
L1_lpc2148_freertos_cpp_uart.elf:     file format elf32-littlearm

Sections:
Idx Name          Size      VMA       LMA       File off  Algn
  0 .lpc2000ExceptionVectors_ram 0000003c  40000000  40000000  00010860  2**0
                  CONTENTS
  1 .lpc2000ExceptionVectors 00000038  00001000  00001000  00001000  2**2
                  CONTENTS, ALLOC, LOAD, READONLY, CODE
  2 .init         000001fc  00001038  00001038  00001038  2**4
                  CONTENTS, ALLOC, LOAD, READONLY, CODE
  3 .text         00007968  00001234  00001234  00001234  2**2
                  CONTENTS, ALLOC, LOAD, READONLY, CODE
  4 .rodata       000007f0  00008b9c  00008b9c  00008b9c  2**2
                  CONTENTS, ALLOC, LOAD, READONLY, DATA
  5 .data         00000824  4000003c  0000938c  0001003c  2**2
                  CONTENTS, ALLOC, LOAD, DATA
  6 .data_run     00000824  4000003c  4000003c  0001089c  2**0
                  CONTENTS
  7 .bss          00000200  40000860  00009bb0  00010860  2**2
                  ALLOC
  8 .stack_irq    00000200  40000a60  40000a60  000110c0  2**0
                  CONTENTS
  9 .stack_fiq    00000040  40000c60  40000c60  000112c0  2**0
                  CONTENTS
 10 .stack_svc    00000200  40000ca0  40000ca0  00011300  2**0
                  CONTENTS
 11 .comment      00000396  00000000  00000000  00011500  2**0
                  CONTENTS, READONLY
 12 .ARM.attributes 00000010  00000000  00000000  00011896  2**0
                  CONTENTS, READONLY
 13 .debug_frame  00000a70  00000000  00000000  000118a8  2**2
                  CONTENTS, READONLY, DEBUGGING
 14 .debug_line   000029d0  00000000  00000000  00012318  2**0
                  CONTENTS, READONLY, DEBUGGING
 15 .debug_info   0000f759  00000000  00000000  00014ce8  2**0
                  CONTENTS, READONLY, DEBUGGING
 16 .debug_abbrev 00002ef7  00000000  00000000  00024441  2**0
                  CONTENTS, READONLY, DEBUGGING
 17 .debug_aranges 00000420  00000000  00000000  00027338  2**3
                  CONTENTS, READONLY, DEBUGGING
 18 .debug_loc    000042d4  00000000  00000000  00027758  2**0
                  CONTENTS, READONLY, DEBUGGING
 19 .debug_pubnames 0000076a  00000000  00000000  0002ba2c  2**0
                  CONTENTS, READONLY, DEBUGGING
 20 .debug_str    00001534  00000000  00000000  0002c196  2**0
                  CONTENTS, READONLY, DEBUGGING
 21 .debug_ranges 00000460  00000000  00000000  0002d6ca  2**0
                  CONTENTS, READONLY, DEBUGGING

Disassembly of section .lpc2000ExceptionVectors:

00001000 <__lpc2000ExceptionVectors_start__>:
    1000:	e59ff018 	ldr	pc, [pc, #24]	; 1020 <Lpc2000ExceptionVectorsResetHandlerAddress>
    1004:	e59ff018 	ldr	pc, [pc, #24]	; 1024 <Lpc2000ExceptionVectorsUndefinedHandlerAddress>
    1008:	e59ff018 	ldr	pc, [pc, #24]	; 1028 <Lpc2000ExceptionVectorsSoftwareIntHandlerAddress>
    100c:	e59ff018 	ldr	pc, [pc, #24]	; 102c <Lpc2000ExceptionVectorsAbortPrefetchHandlerAddress>
    1010:	e59ff018 	ldr	pc, [pc, #24]	; 1030 <Lpc2000ExceptionVectorsAbortDataHandlerAddress>
    1014:	e1a00000 	nop			(mov r0,r0)
    1018:	e51ffff0 	ldr	pc, [pc, #-4080]	; 30 <__HEAPSIZE__+0x30>
    101c:	e59ff010 	ldr	pc, [pc, #16]	; 1034 <Lpc2000ExceptionVectorsFIQHandlerAddress>

00001020 <Lpc2000ExceptionVectorsResetHandlerAddress>:
    1020:	000011f0 	.word	0x000011f0

00001024 <Lpc2000ExceptionVectorsUndefinedHandlerAddress>:
    1024:	00001218 	.word	0x00001218

00001028 <Lpc2000ExceptionVectorsSoftwareIntHandlerAddress>:
    1028:	0000121c 	.word	0x0000121c

0000102c <Lpc2000ExceptionVectorsAbortPrefetchHandlerAddress>:
    102c:	00001220 	.word	0x00001220

00001030 <Lpc2000ExceptionVectorsAbortDataHandlerAddress>:
    1030:	00001224 	.word	0x00001224

00001034 <Lpc2000ExceptionVectorsFIQHandlerAddress>:
    1034:	00001228 	.word	0x00001228

Disassembly of section .init:

00001038 <__init_start__>:
	...

00001040 <Arm7StartupStart>:
    1040:	e10f0000 	mrs	r0, CPSR
    1044:	e3c0001f 	bic	r0, r0, #31	; 0x1f
    1048:	e380101b 	orr	r1, r0, #27	; 0x1b
    104c:	e12ff001 	msr	CPSR_fsxc, r1
    1050:	e59fd12c 	ldr	sp, [pc, #300]	; 1184 <Arm7StartupMemset+0x10>
    1054:	e3801017 	orr	r1, r0, #23	; 0x17
    1058:	e12ff001 	msr	CPSR_fsxc, r1
    105c:	e59fd124 	ldr	sp, [pc, #292]	; 1188 <Arm7StartupMemset+0x14>
    1060:	e3801012 	orr	r1, r0, #18	; 0x12
    1064:	e12ff001 	msr	CPSR_fsxc, r1
    1068:	e59fd11c 	ldr	sp, [pc, #284]	; 118c <Arm7StartupMemset+0x18>
    106c:	e3801011 	orr	r1, r0, #17	; 0x11
    1070:	e12ff001 	msr	CPSR_fsxc, r1
    1074:	e59fd114 	ldr	sp, [pc, #276]	; 1190 <Arm7StartupMemset+0x1c>
    1078:	e3801013 	orr	r1, r0, #19	; 0x13
    107c:	e12ff001 	msr	CPSR_fsxc, r1
    1080:	e59fd10c 	ldr	sp, [pc, #268]	; 1194 <Arm7StartupMemset+0x20>
    1084:	e59f010c 	ldr	r0, [pc, #268]	; 1198 <Arm7StartupMemset+0x24>
    1088:	e59f110c 	ldr	r1, [pc, #268]	; 119c <Arm7StartupMemset+0x28>
    108c:	e59f210c 	ldr	r2, [pc, #268]	; 11a0 <Arm7StartupMemset+0x2c>
    1090:	eb00002e 	bl	1150 <Arm7StartupMemcpy>
    1094:	e59f0108 	ldr	r0, [pc, #264]	; 11a4 <Arm7StartupMemset+0x30>
    1098:	e59f1108 	ldr	r1, [pc, #264]	; 11a8 <Arm7StartupMemset+0x34>
    109c:	e59f2108 	ldr	r2, [pc, #264]	; 11ac <Arm7StartupMemset+0x38>
    10a0:	eb00002a 	bl	1150 <Arm7StartupMemcpy>
    10a4:	e59f0104 	ldr	r0, [pc, #260]	; 11b0 <Arm7StartupMemset+0x3c>
    10a8:	e59f1104 	ldr	r1, [pc, #260]	; 11b4 <Arm7StartupMemset+0x40>
    10ac:	e59f2104 	ldr	r2, [pc, #260]	; 11b8 <Arm7StartupMemset+0x44>
    10b0:	eb000026 	bl	1150 <Arm7StartupMemcpy>
    10b4:	e59f0100 	ldr	r0, [pc, #256]	; 11bc <Arm7StartupMemset+0x48>
    10b8:	e59f1100 	ldr	r1, [pc, #256]	; 11c0 <Arm7StartupMemset+0x4c>
    10bc:	e59f2100 	ldr	r2, [pc, #256]	; 11c4 <Arm7StartupMemset+0x50>
    10c0:	eb000022 	bl	1150 <Arm7StartupMemcpy>
    10c4:	e59f00fc 	ldr	r0, [pc, #252]	; 11c8 <Arm7StartupMemset+0x54>
    10c8:	e59f10fc 	ldr	r1, [pc, #252]	; 11cc <Arm7StartupMemset+0x58>
    10cc:	e59f20fc 	ldr	r2, [pc, #252]	; 11d0 <Arm7StartupMemset+0x5c>
    10d0:	eb00001e 	bl	1150 <Arm7StartupMemcpy>
    10d4:	e59f00f8 	ldr	r0, [pc, #248]	; 11d4 <Arm7StartupMemset+0x60>
    10d8:	e59f10f8 	ldr	r1, [pc, #248]	; 11d8 <Arm7StartupMemset+0x64>
    10dc:	e3a02000 	mov	r2, #0	; 0x0
    10e0:	eb000023 	bl	1174 <Arm7StartupMemset>
    10e4:	e59f00f0 	ldr	r0, [pc, #240]	; 11dc <Arm7StartupMemset+0x68>
    10e8:	e59f10f0 	ldr	r1, [pc, #240]	; 11e0 <Arm7StartupMemset+0x6c>
    10ec:	e0411000 	sub	r1, r1, r0
    10f0:	e3510008 	cmp	r1, #8	; 0x8
    10f4:	a3a02000 	movge	r2, #0	; 0x0
    10f8:	a4802004 	strge	r2, [r0], #4
    10fc:	a5801000 	strge	r1, [r0]
    1100:	e59f00ac 	ldr	r0, [pc, #172]	; 11b4 <Arm7StartupMemset+0x40>
    1104:	e59f10ac 	ldr	r1, [pc, #172]	; 11b8 <Arm7StartupMemset+0x44>

00001108 <Arm7StartupStartCtorLoop>:
    1108:	e1500001 	cmp	r0, r1
    110c:	0a000005 	beq	1128 <Arm7StartupStartCtorEnd>
    1110:	e4902004 	ldr	r2, [r0], #4
    1114:	e92d0003 	push	{r0, r1}
    1118:	e1a0e00f 	mov	lr, pc
    111c:	e12fff12 	bx	r2
    1120:	e8bd0003 	pop	{r0, r1}
    1124:	eafffff7 	b	1108 <Arm7StartupStartCtorLoop>

00001128 <Arm7StartupStartCtorEnd>:
    1128:	e3a0e004 	mov	lr, #4	; 0x4
    112c:	e1a0c00d 	mov	ip, sp
    1130:	e92dd800 	push	{fp, ip, lr, pc}
    1134:	e24cb004 	sub	fp, ip, #4	; 0x4

00001138 <Arm7StartupCallMain>:
    1138:	e3a00000 	mov	r0, #0	; 0x0
    113c:	e3a01000 	mov	r1, #0	; 0x0
    1140:	e59f209c 	ldr	r2, [pc, #156]	; 11e4 <Arm7StartupMemset+0x70>
    1144:	e1a0e00f 	mov	lr, pc
    1148:	e12fff12 	bx	r2

0000114c <Arm7StartupReturnedFromMain>:
    114c:	eafffffe 	b	114c <Arm7StartupReturnedFromMain>

00001150 <Arm7StartupMemcpy>:
    1150:	e1500001 	cmp	r0, r1
    1154:	01a0f00e 	moveq	pc, lr
    1158:	e0522001 	subs	r2, r2, r1
    115c:	01a0f00e 	moveq	pc, lr
    1160:	e4d03001 	ldrb	r3, [r0], #1
    1164:	e4c13001 	strb	r3, [r1], #1
    1168:	e2522001 	subs	r2, r2, #1	; 0x1
    116c:	1afffffb 	bne	1160 <Arm7StartupMemcpy+0x10>
    1170:	e1a0f00e 	mov	pc, lr

00001174 <Arm7StartupMemset>:
    1174:	e1500001 	cmp	r0, r1
    1178:	01a0f00e 	moveq	pc, lr
    117c:	e4c02001 	strb	r2, [r0], #1
    1180:	eafffffb 	b	1174 <Arm7StartupMemset>
    1184:	40000ea0 	.word	0x40000ea0
    1188:	40000ea0 	.word	0x40000ea0
    118c:	40000c60 	.word	0x40000c60
    1190:	40000ca0 	.word	0x40000ca0
    1194:	40000ea0 	.word	0x40000ea0
    1198:	0000938c 	.word	0x0000938c
    119c:	4000003c 	.word	0x4000003c
    11a0:	40000860 	.word	0x40000860
    11a4:	00001234 	.word	0x00001234
    11a8:	00001234 	.word	0x00001234
    11ac:	00008b9c 	.word	0x00008b9c
    11b0:	00008b9c 	.word	0x00008b9c
    11b4:	00008b9c 	.word	0x00008b9c
    11b8:	00008b9c 	.word	0x00008b9c
    11bc:	00008b9c 	.word	0x00008b9c
    11c0:	00008b9c 	.word	0x00008b9c
    11c4:	00008b9c 	.word	0x00008b9c
    11c8:	00008b9c 	.word	0x00008b9c
    11cc:	00008b9c 	.word	0x00008b9c
    11d0:	0000938c 	.word	0x0000938c
    11d4:	40000860 	.word	0x40000860
    11d8:	40000a60 	.word	0x40000a60
    11dc:	40000ea0 	.word	0x40000ea0
    11e0:	40000ea0 	.word	0x40000ea0
    11e4:	00001234 	.word	0x00001234
    11e8:	e1a00000 	.word	0xe1a00000
    11ec:	e1a00000 	.word	0xe1a00000

000011f0 <_Lpc2000ExceptionVectorsResetHandler>:
    11f0:	e3a08101 	mov	r8, #1073741824	; 0x40000000
    11f4:	e59f9030 	ldr	r9, [pc, #48]	; 122c <_Lpc2000ExceptionVectorsFIQHandler+0x4>
    11f8:	e8b900ff 	ldm	r9!, {r0, r1, r2, r3, r4, r5, r6, r7}
    11fc:	e8a800ff 	stmia	r8!, {r0, r1, r2, r3, r4, r5, r6, r7}
    1200:	e8b9007f 	ldm	r9!, {r0, r1, r2, r3, r4, r5, r6}
    1204:	e8a8007f 	stmia	r8!, {r0, r1, r2, r3, r4, r5, r6}
    1208:	e59f0020 	ldr	r0, [pc, #32]	; 1230 <_Lpc2000ExceptionVectorsFIQHandler+0x8>
    120c:	e3a01002 	mov	r1, #2	; 0x2
    1210:	e5801000 	str	r1, [r0]
    1214:	eaffff89 	b	1040 <Arm7StartupStart>

00001218 <_Lpc2000ExceptionVectorsUndefinedHandler>:
    1218:	ea00039a 	b	2088 <Exception_UndefinedAddress>

0000121c <_Lpc2000ExceptionVectorsSoftwareIntHandler>:
    121c:	ea00045f 	b	23a0 <vPortYieldProcessor>

00001220 <_Lpc2000ExceptionVectorsAbortPrefetchHandler>:
    1220:	ea000392 	b	2070 <Exception_PrefetchAbort>

00001224 <_Lpc2000ExceptionVectorsAbortDataHandler>:
    1224:	ea00038b 	b	2058 <Exception_DataAbort>

00001228 <_Lpc2000ExceptionVectorsFIQHandler>:
    1228:	ea000384 	b	2040 <Exception_FIQHandler>
    122c:	00001000 	.word	0x00001000
    1230:	e01fc040 	.word	0xe01fc040

Disassembly of section .text:

00001234 <main>:
    1234:	e92d4070 	push	{r4, r5, r6, lr}
    1238:	e24dd01c 	sub	sp, sp, #28	; 0x1c
    123c:	eb0002da 	bl	1dac <cpuSetupHardware>
    1240:	e59f00d8 	ldr	r0, [pc, #216]	; 1320 <__init_end__+0xec>
    1244:	eb0002bd 	bl	1d40 <watchdogDelayUs>
    1248:	e3a00c96 	mov	r0, #38400	; 0x9600
    124c:	eb000270 	bl	1c14 <uart0Init>
    1250:	e59f00cc 	ldr	r0, [pc, #204]	; 1324 <__init_end__+0xf0>
    1254:	eb000073 	bl	1428 <rprintf_devopen>
    1258:	e28d6010 	add	r6, sp, #16	; 0x10
    125c:	eb0002fa 	bl	1e4c <cpuPrintMemoryInfo>
    1260:	e59f00b8 	ldr	r0, [pc, #184]	; 1320 <__init_end__+0xec>
    1264:	eb0002b5 	bl	1d40 <watchdogDelayUs>
    1268:	e3a05000 	mov	r5, #0	; 0x0
    126c:	e3a0c001 	mov	ip, #1	; 0x1
    1270:	e2864004 	add	r4, r6, #4	; 0x4
    1274:	e59f00ac 	ldr	r0, [pc, #172]	; 1328 <__init_end__+0xf4>
    1278:	e59f10ac 	ldr	r1, [pc, #172]	; 132c <__init_end__+0xf8>
    127c:	e3a02c06 	mov	r2, #1536	; 0x600
    1280:	e1a03006 	mov	r3, r6
    1284:	e58dc000 	str	ip, [sp]
    1288:	e98d0030 	stmib	sp, {r4, r5}
    128c:	e58d500c 	str	r5, [sp, #12]
    1290:	eb000ac5 	bl	3dac <xTaskGenericCreate>
    1294:	e3500001 	cmp	r0, #1	; 0x1
    1298:	e1a0c000 	mov	ip, r0
    129c:	1a000015 	bne	12f8 <main+0xc4>
    12a0:	e59f0088 	ldr	r0, [pc, #136]	; 1330 <__init_end__+0xfc>
    12a4:	e59f1088 	ldr	r1, [pc, #136]	; 1334 <__init_end__+0x100>
    12a8:	e3a02080 	mov	r2, #128	; 0x80
    12ac:	e1a03006 	mov	r3, r6
    12b0:	e58dc000 	str	ip, [sp]
    12b4:	e98d0030 	stmib	sp, {r4, r5}
    12b8:	e58d500c 	str	r5, [sp, #12]
    12bc:	eb000aba 	bl	3dac <xTaskGenericCreate>
    12c0:	e3500001 	cmp	r0, #1	; 0x1
    12c4:	e1a0c000 	mov	ip, r0
    12c8:	1a00000a 	bne	12f8 <main+0xc4>
    12cc:	e1a03006 	mov	r3, r6
    12d0:	e59f0060 	ldr	r0, [pc, #96]	; 1338 <__init_end__+0x104>
    12d4:	e59f1060 	ldr	r1, [pc, #96]	; 133c <__init_end__+0x108>
    12d8:	e3a02080 	mov	r2, #128	; 0x80
    12dc:	e58dc000 	str	ip, [sp]
    12e0:	e58d4004 	str	r4, [sp, #4]
    12e4:	e58d500c 	str	r5, [sp, #12]
    12e8:	e58d5008 	str	r5, [sp, #8]
    12ec:	eb000aae 	bl	3dac <xTaskGenericCreate>
    12f0:	e3500001 	cmp	r0, #1	; 0x1
    12f4:	0a000001 	beq	1300 <main+0xcc>
    12f8:	e59f0040 	ldr	r0, [pc, #64]	; 1340 <__init_end__+0x10c>
    12fc:	eb00005d 	bl	1478 <rprintf>
    1300:	e59f003c 	ldr	r0, [pc, #60]	; 1344 <__init_end__+0x110>
    1304:	eb00005b 	bl	1478 <rprintf>
    1308:	eb000b45 	bl	4024 <vTaskStartScheduler>
    130c:	e59f0034 	ldr	r0, [pc, #52]	; 1348 <__init_end__+0x114>
    1310:	eb000058 	bl	1478 <rprintf>
    1314:	e3a00000 	mov	r0, #0	; 0x0
    1318:	e28dd01c 	add	sp, sp, #28	; 0x1c
    131c:	e8bd8070 	pop	{r4, r5, r6, pc}
    1320:	000f4240 	.word	0x000f4240
    1324:	00001ca4 	.word	0x00001ca4
    1328:	000019d0 	.word	0x000019d0
    132c:	00008b9c 	.word	0x00008b9c
    1330:	0000134c 	.word	0x0000134c
    1334:	00008ba4 	.word	0x00008ba4
    1338:	000013a4 	.word	0x000013a4
    133c:	00008bad 	.word	0x00008bad
    1340:	00008bb7 	.word	0x00008bb7
    1344:	00008bf7 	.word	0x00008bf7
    1348:	00008c11 	.word	0x00008c11

0000134c <_Z8led_taskPv>:
    134c:	e59f204c 	ldr	r2, [pc, #76]	; 13a0 <_Z8led_taskPv+0x54>
    1350:	e5923000 	ldr	r3, [r2]
    1354:	e3c33b0f 	bic	r3, r3, #15360	; 0x3c00
    1358:	e5823000 	str	r3, [r2]
    135c:	e2422901 	sub	r2, r2, #16384	; 0x4000
    1360:	e5923008 	ldr	r3, [r2, #8]
    1364:	e3833040 	orr	r3, r3, #64	; 0x40
    1368:	e5823008 	str	r3, [r2, #8]
    136c:	e5923008 	ldr	r3, [r2, #8]
    1370:	e3c33020 	bic	r3, r3, #32	; 0x20
    1374:	e5823008 	str	r3, [r2, #8]
    1378:	e92d4030 	push	{r4, r5, lr}
    137c:	e1a04002 	mov	r4, r2
    1380:	e3a05040 	mov	r5, #64	; 0x40
    1384:	e5943000 	ldr	r3, [r4]
    1388:	e3130020 	tst	r3, #32	; 0x20
    138c:	15845004 	strne	r5, [r4, #4]
    1390:	0584500c 	streq	r5, [r4, #12]
    1394:	e3a0000a 	mov	r0, #10	; 0xa
    1398:	eb00088d 	bl	35d4 <vTaskDelay>
    139c:	eafffff8 	b	1384 <_Z8led_taskPv+0x38>
    13a0:	e002c000 	.word	0xe002c000

000013a4 <_Z9SD_StatusPv>:
    13a4:	e59f106c 	ldr	r1, [pc, #108]	; 1418 <_Z9SD_StatusPv+0x74>
    13a8:	e5913004 	ldr	r3, [r1, #4]
    13ac:	e3c33001 	bic	r3, r3, #1	; 0x1
    13b0:	e5813004 	str	r3, [r1, #4]
    13b4:	e59f2060 	ldr	r2, [pc, #96]	; 141c <_Z9SD_StatusPv+0x78>
    13b8:	e5923008 	ldr	r3, [r2, #8]
    13bc:	e3c33801 	bic	r3, r3, #65536	; 0x10000
    13c0:	e5823008 	str	r3, [r2, #8]
    13c4:	e5913004 	ldr	r3, [r1, #4]
    13c8:	e3c33b01 	bic	r3, r3, #1024	; 0x400
    13cc:	e5813004 	str	r3, [r1, #4]
    13d0:	e5923008 	ldr	r3, [r2, #8]
    13d4:	e3c33602 	bic	r3, r3, #2097152	; 0x200000
    13d8:	e5823008 	str	r3, [r2, #8]
    13dc:	e92d4010 	push	{r4, lr}
    13e0:	e1a04002 	mov	r4, r2
    13e4:	e5941000 	ldr	r1, [r4]
    13e8:	e1a01821 	lsr	r1, r1, #16
    13ec:	e2011001 	and	r1, r1, #1	; 0x1
    13f0:	e59f0028 	ldr	r0, [pc, #40]	; 1420 <_Z9SD_StatusPv+0x7c>
    13f4:	eb00001f 	bl	1478 <rprintf>
    13f8:	e5941000 	ldr	r1, [r4]
    13fc:	e1a01aa1 	lsr	r1, r1, #21
    1400:	e2011001 	and	r1, r1, #1	; 0x1
    1404:	e59f0018 	ldr	r0, [pc, #24]	; 1424 <_Z9SD_StatusPv+0x80>
    1408:	eb00001a 	bl	1478 <rprintf>
    140c:	e3a00ffa 	mov	r0, #1000	; 0x3e8
    1410:	eb00086f 	bl	35d4 <vTaskDelay>
    1414:	eafffff2 	b	13e4 <_Z9SD_StatusPv+0x40>
    1418:	e002c000 	.word	0xe002c000
    141c:	e0028000 	.word	0xe0028000
    1420:	00008c2d 	.word	0x00008c2d
    1424:	00008c41 	.word	0x00008c41

00001428 <rprintf_devopen>:
    1428:	e59f3004 	ldr	r3, [pc, #4]	; 1434 <rprintf_devopen+0xc>
    142c:	e5830000 	str	r0, [r3]
    1430:	e12fff1e 	bx	lr
    1434:	40000860 	.word	0x40000860

00001438 <rprintf_putCharSource>:
    1438:	e92d4010 	push	{r4, lr}
    143c:	e20040ff 	and	r4, r0, #255	; 0xff
    1440:	e354000a 	cmp	r4, #10	; 0xa
    1444:	03a0000d 	moveq	r0, #13	; 0xd
    1448:	059f1020 	ldreq	r1, [pc, #32]	; 1470 <rprintf_putCharSource+0x38>
    144c:	059f3020 	ldreq	r3, [pc, #32]	; 1474 <rprintf_putCharSource+0x3c>
    1450:	01a0e00f 	moveq	lr, pc
    1454:	0593f000 	ldreq	pc, [r3]
    1458:	e1a00004 	mov	r0, r4
    145c:	e59f100c 	ldr	r1, [pc, #12]	; 1470 <rprintf_putCharSource+0x38>
    1460:	e59f300c 	ldr	r3, [pc, #12]	; 1474 <rprintf_putCharSource+0x3c>
    1464:	e1a0e00f 	mov	lr, pc
    1468:	e593f000 	ldr	pc, [r3]
    146c:	e8bd8010 	pop	{r4, pc}
    1470:	0001869f 	.word	0x0001869f
    1474:	40000860 	.word	0x40000860

00001478 <rprintf>:
    1478:	e92d000f 	push	{r0, r1, r2, r3}
    147c:	e92d4ff0 	push	{r4, r5, r6, r7, r8, r9, sl, fp, lr}
    1480:	e24dd00c 	sub	sp, sp, #12	; 0xc
    1484:	e59da030 	ldr	sl, [sp, #48]
    1488:	e28d5034 	add	r5, sp, #52	; 0x34
    148c:	e28db00b 	add	fp, sp, #11	; 0xb
    1490:	ea000002 	b	14a0 <rprintf+0x28>
    1494:	e3500000 	cmp	r0, #0	; 0x0
    1498:	0a000077 	beq	167c <rprintf+0x204>
    149c:	ebffffe5 	bl	1438 <rprintf_putCharSource>
    14a0:	e4da0001 	ldrb	r0, [sl], #1
    14a4:	e3500025 	cmp	r0, #37	; 0x25
    14a8:	1afffff9 	bne	1494 <rprintf+0x1c>
    14ac:	e4da0001 	ldrb	r0, [sl], #1
    14b0:	e3500020 	cmp	r0, #32	; 0x20
    14b4:	13500030 	cmpne	r0, #48	; 0x30
    14b8:	13a03000 	movne	r3, #0	; 0x0
    14bc:	03a03001 	moveq	r3, #1	; 0x1
    14c0:	11a09003 	movne	r9, r3
    14c4:	11a06009 	movne	r6, r9
    14c8:	1a000008 	bne	14f0 <rprintf+0x78>
    14cc:	e4da2001 	ldrb	r2, [sl], #1
    14d0:	e2423030 	sub	r3, r2, #48	; 0x30
    14d4:	e20360ff 	and	r6, r3, #255	; 0xff
    14d8:	e3560009 	cmp	r6, #9	; 0x9
    14dc:	91a09000 	movls	r9, r0
    14e0:	94da0001 	ldrbls	r0, [sl], #1
    14e4:	81a09000 	movhi	r9, r0
    14e8:	83a06000 	movhi	r6, #0	; 0x0
    14ec:	81a00002 	movhi	r0, r2
    14f0:	e350004c 	cmp	r0, #76	; 0x4c
    14f4:	1350006c 	cmpne	r0, #108	; 0x6c
    14f8:	04da0001 	ldrbeq	r0, [sl], #1
    14fc:	e3500058 	cmp	r0, #88	; 0x58
    1500:	0a00001b 	beq	1574 <rprintf+0xfc>
    1504:	8a00000b 	bhi	1538 <rprintf+0xc0>
    1508:	e3500049 	cmp	r0, #73	; 0x49
    150c:	0a000027 	beq	15b0 <rprintf+0x138>
    1510:	8a000003 	bhi	1524 <rprintf+0xac>
    1514:	e3500043 	cmp	r0, #67	; 0x43
    1518:	0a000017 	beq	157c <rprintf+0x104>
    151c:	e3500044 	cmp	r0, #68	; 0x44
    1520:	ea00000a 	b	1550 <rprintf+0xd8>
    1524:	e3500053 	cmp	r0, #83	; 0x53
    1528:	0a000016 	beq	1588 <rprintf+0x110>
    152c:	e3500055 	cmp	r0, #85	; 0x55
    1530:	1affffd9 	bne	149c <rprintf+0x24>
    1534:	ea00004b 	b	1668 <rprintf+0x1f0>
    1538:	e3500069 	cmp	r0, #105	; 0x69
    153c:	0a00001b 	beq	15b0 <rprintf+0x138>
    1540:	8a000004 	bhi	1558 <rprintf+0xe0>
    1544:	e3500063 	cmp	r0, #99	; 0x63
    1548:	0a00000b 	beq	157c <rprintf+0x104>
    154c:	e3500064 	cmp	r0, #100	; 0x64
    1550:	1affffd1 	bne	149c <rprintf+0x24>
    1554:	ea000015 	b	15b0 <rprintf+0x138>
    1558:	e3500075 	cmp	r0, #117	; 0x75
    155c:	0a000041 	beq	1668 <rprintf+0x1f0>
    1560:	e3500078 	cmp	r0, #120	; 0x78
    1564:	0a000002 	beq	1574 <rprintf+0xfc>
    1568:	e3500073 	cmp	r0, #115	; 0x73
    156c:	1affffca 	bne	149c <rprintf+0x24>
    1570:	ea000004 	b	1588 <rprintf+0x110>
    1574:	e3a08010 	mov	r8, #16	; 0x10
    1578:	ea00003b 	b	166c <rprintf+0x1f4>
    157c:	e5d50000 	ldrb	r0, [r5]
    1580:	e2855004 	add	r5, r5, #4	; 0x4
    1584:	eaffffc4 	b	149c <rprintf+0x24>
    1588:	e5956000 	ldr	r6, [r5]
    158c:	e3a04000 	mov	r4, #0	; 0x0
    1590:	e2855004 	add	r5, r5, #4	; 0x4
    1594:	ea000000 	b	159c <rprintf+0x124>
    1598:	ebffffa6 	bl	1438 <rprintf_putCharSource>
    159c:	e7d63004 	ldrb	r3, [r6, r4]
    15a0:	e2530000 	subs	r0, r3, #0	; 0x0
    15a4:	e2844001 	add	r4, r4, #1	; 0x1
    15a8:	1afffffa 	bne	1598 <rprintf+0x120>
    15ac:	eaffffbb 	b	14a0 <rprintf+0x28>
    15b0:	e5954000 	ldr	r4, [r5]
    15b4:	e2853004 	add	r3, r5, #4	; 0x4
    15b8:	e3540000 	cmp	r4, #0	; 0x0
    15bc:	e1a05003 	mov	r5, r3
    15c0:	b3a0002d 	movlt	r0, #45	; 0x2d
    15c4:	b2644000 	rsblt	r4, r4, #0	; 0x0
    15c8:	bbffff9a 	bllt	1438 <rprintf_putCharSource>
    15cc:	e3a0800a 	mov	r8, #10	; 0xa
    15d0:	e3a03000 	mov	r3, #0	; 0x0
    15d4:	e5cb3000 	strb	r3, [fp]
    15d8:	e1a0700b 	mov	r7, fp
    15dc:	e1a00004 	mov	r0, r4
    15e0:	e1a01008 	mov	r1, r8
    15e4:	eb000c72 	bl	47b4 <__umodsi3>
    15e8:	e2800030 	add	r0, r0, #48	; 0x30
    15ec:	e20030ff 	and	r3, r0, #255	; 0xff
    15f0:	e3530039 	cmp	r3, #57	; 0x39
    15f4:	e2832007 	add	r2, r3, #7	; 0x7
    15f8:	820230ff 	andhi	r3, r2, #255	; 0xff
    15fc:	e1a00004 	mov	r0, r4
    1600:	e5673001 	strb	r3, [r7, #-1]!
    1604:	e1a01008 	mov	r1, r8
    1608:	eb000c25 	bl	46a4 <__aeabi_uidiv>
    160c:	e3560000 	cmp	r6, #0	; 0x0
    1610:	e2463001 	sub	r3, r6, #1	; 0x1
    1614:	120360ff 	andne	r6, r3, #255	; 0xff
    1618:	e3500000 	cmp	r0, #0	; 0x0
    161c:	e1a04000 	mov	r4, r0
    1620:	1affffed 	bne	15dc <rprintf+0x164>
    1624:	e1a02006 	mov	r2, r6
    1628:	ea000001 	b	1634 <rprintf+0x1bc>
    162c:	e7c79000 	strb	r9, [r7, r0]
    1630:	e20360ff 	and	r6, r3, #255	; 0xff
    1634:	e3560000 	cmp	r6, #0	; 0x0
    1638:	e2463001 	sub	r3, r6, #1	; 0x1
    163c:	e2400001 	sub	r0, r0, #1	; 0x1
    1640:	1afffff9 	bne	162c <rprintf+0x1b4>
    1644:	e0627007 	rsb	r7, r2, r7
    1648:	e1a04006 	mov	r4, r6
    164c:	ea000000 	b	1654 <rprintf+0x1dc>
    1650:	ebffff78 	bl	1438 <rprintf_putCharSource>
    1654:	e7d73004 	ldrb	r3, [r7, r4]
    1658:	e2530000 	subs	r0, r3, #0	; 0x0
    165c:	e2844001 	add	r4, r4, #1	; 0x1
    1660:	1afffffa 	bne	1650 <rprintf+0x1d8>
    1664:	eaffff8d 	b	14a0 <rprintf+0x28>
    1668:	e3a0800a 	mov	r8, #10	; 0xa
    166c:	e2853004 	add	r3, r5, #4	; 0x4
    1670:	e5954000 	ldr	r4, [r5]
    1674:	e1a05003 	mov	r5, r3
    1678:	eaffffd4 	b	15d0 <rprintf+0x158>
    167c:	e28dd00c 	add	sp, sp, #12	; 0xc
    1680:	e8bd4ff0 	pop	{r4, r5, r6, r7, r8, r9, sl, fp, lr}
    1684:	e28dd010 	add	sp, sp, #16	; 0x10
    1688:	e12fff1e 	bx	lr

0000168c <_ZN5Timer12changePeriodEm>:
    168c:	e52de004 	push	{lr}		; (str lr, [sp, #-4]!)
    1690:	e3a03000 	mov	r3, #0	; 0x0
    1694:	e24dd004 	sub	sp, sp, #4	; 0x4
    1698:	e58d3000 	str	r3, [sp]
    169c:	e1a02001 	mov	r2, r1
    16a0:	e5900000 	ldr	r0, [r0]
    16a4:	e3a01002 	mov	r1, #2	; 0x2
    16a8:	eb000a93 	bl	40fc <xTimerGenericCommand>
    16ac:	e28dd004 	add	sp, sp, #4	; 0x4
    16b0:	e8bd8000 	pop	{pc}

000016b4 <_ZN5Timer4stopEv>:
    16b4:	e52de004 	push	{lr}		; (str lr, [sp, #-4]!)
    16b8:	e3a02000 	mov	r2, #0	; 0x0
    16bc:	e24dd004 	sub	sp, sp, #4	; 0x4
    16c0:	e58d2000 	str	r2, [sp]
    16c4:	e3a01001 	mov	r1, #1	; 0x1
    16c8:	e1a03002 	mov	r3, r2
    16cc:	e5900000 	ldr	r0, [r0]
    16d0:	eb000a89 	bl	40fc <xTimerGenericCommand>
    16d4:	e28dd004 	add	sp, sp, #4	; 0x4
    16d8:	e8bd8000 	pop	{pc}

000016dc <_ZN5TimerD1Ev>:
    16dc:	e52de004 	push	{lr}		; (str lr, [sp, #-4]!)
    16e0:	e3a02000 	mov	r2, #0	; 0x0
    16e4:	e24dd004 	sub	sp, sp, #4	; 0x4
    16e8:	e58d2000 	str	r2, [sp]
    16ec:	e3a01003 	mov	r1, #3	; 0x3
    16f0:	e1a03002 	mov	r3, r2
    16f4:	e5900000 	ldr	r0, [r0]
    16f8:	eb000a7f 	bl	40fc <xTimerGenericCommand>
    16fc:	e28dd004 	add	sp, sp, #4	; 0x4
    1700:	e8bd8000 	pop	{pc}

00001704 <_ZN5TimerD2Ev>:
    1704:	e52de004 	push	{lr}		; (str lr, [sp, #-4]!)
    1708:	e3a02000 	mov	r2, #0	; 0x0
    170c:	e24dd004 	sub	sp, sp, #4	; 0x4
    1710:	e58d2000 	str	r2, [sp]
    1714:	e3a01003 	mov	r1, #3	; 0x3
    1718:	e1a03002 	mov	r3, r2
    171c:	e5900000 	ldr	r0, [r0]
    1720:	eb000a75 	bl	40fc <xTimerGenericCommand>
    1724:	e28dd004 	add	sp, sp, #4	; 0x4
    1728:	e8bd8000 	pop	{pc}

0000172c <_ZN5Timer19changePeriodFromISREm>:
    172c:	e52de004 	push	{lr}		; (str lr, [sp, #-4]!)
    1730:	e3a02000 	mov	r2, #0	; 0x0
    1734:	e24dd008 	sub	sp, sp, #8	; 0x8
    1738:	e58d2000 	str	r2, [sp]
    173c:	e28d3008 	add	r3, sp, #8	; 0x8
    1740:	e5232004 	str	r2, [r3, #-4]!
    1744:	e5900000 	ldr	r0, [r0]
    1748:	e1a02001 	mov	r2, r1
    174c:	e3a01002 	mov	r1, #2	; 0x2
    1750:	eb000a69 	bl	40fc <xTimerGenericCommand>
    1754:	e59d3004 	ldr	r3, [sp, #4]
    1758:	e3530000 	cmp	r3, #0	; 0x0
    175c:	1b0007f2 	blne	372c <vTaskSwitchContext>
    1760:	e28dd008 	add	sp, sp, #8	; 0x8
    1764:	e8bd8000 	pop	{pc}

00001768 <_ZN5Timer11stopFromISREv>:
    1768:	e52de004 	push	{lr}		; (str lr, [sp, #-4]!)
    176c:	e24dd008 	sub	sp, sp, #8	; 0x8
    1770:	e3a02000 	mov	r2, #0	; 0x0
    1774:	e28d3008 	add	r3, sp, #8	; 0x8
    1778:	e5232004 	str	r2, [r3, #-4]!
    177c:	e58d2000 	str	r2, [sp]
    1780:	e3a01001 	mov	r1, #1	; 0x1
    1784:	e5900000 	ldr	r0, [r0]
    1788:	eb000a5b 	bl	40fc <xTimerGenericCommand>
    178c:	e59d3004 	ldr	r3, [sp, #4]
    1790:	e3530000 	cmp	r3, #0	; 0x0
    1794:	1b0007e4 	blne	372c <vTaskSwitchContext>
    1798:	e28dd008 	add	sp, sp, #8	; 0x8
    179c:	e8bd8000 	pop	{pc}

000017a0 <_ZN5Timer12resetFromISREv>:
    17a0:	e92d4070 	push	{r4, r5, r6, lr}
    17a4:	e24dd008 	sub	sp, sp, #8	; 0x8
    17a8:	e3a05000 	mov	r5, #0	; 0x0
    17ac:	e28d4008 	add	r4, sp, #8	; 0x8
    17b0:	e5245004 	str	r5, [r4, #-4]!
    17b4:	e5906000 	ldr	r6, [r0]
    17b8:	eb000563 	bl	2d4c <xTaskGetTickCountFromISR>
    17bc:	e1a03004 	mov	r3, r4
    17c0:	e1a02000 	mov	r2, r0
    17c4:	e1a01005 	mov	r1, r5
    17c8:	e1a00006 	mov	r0, r6
    17cc:	e58d5000 	str	r5, [sp]
    17d0:	eb000a49 	bl	40fc <xTimerGenericCommand>
    17d4:	e59d3004 	ldr	r3, [sp, #4]
    17d8:	e1530005 	cmp	r3, r5
    17dc:	1b0007d2 	blne	372c <vTaskSwitchContext>
    17e0:	e28dd008 	add	sp, sp, #8	; 0x8
    17e4:	e8bd8070 	pop	{r4, r5, r6, pc}

000017e8 <_ZN5Timer12startFromISREv>:
    17e8:	e92d4070 	push	{r4, r5, r6, lr}
    17ec:	e24dd008 	sub	sp, sp, #8	; 0x8
    17f0:	e3a05000 	mov	r5, #0	; 0x0
    17f4:	e28d4008 	add	r4, sp, #8	; 0x8
    17f8:	e5245004 	str	r5, [r4, #-4]!
    17fc:	e5906000 	ldr	r6, [r0]
    1800:	eb000551 	bl	2d4c <xTaskGetTickCountFromISR>
    1804:	e1a03004 	mov	r3, r4
    1808:	e1a02000 	mov	r2, r0
    180c:	e1a01005 	mov	r1, r5
    1810:	e1a00006 	mov	r0, r6
    1814:	e58d5000 	str	r5, [sp]
    1818:	eb000a37 	bl	40fc <xTimerGenericCommand>
    181c:	e59d3004 	ldr	r3, [sp, #4]
    1820:	e1530005 	cmp	r3, r5
    1824:	1b0007c0 	blne	372c <vTaskSwitchContext>
    1828:	e28dd008 	add	sp, sp, #8	; 0x8
    182c:	e8bd8070 	pop	{r4, r5, r6, pc}

00001830 <_ZN5Timer9isRunningEv>:
    1830:	e52de004 	push	{lr}		; (str lr, [sp, #-4]!)
    1834:	e5900000 	ldr	r0, [r0]
    1838:	eb000a26 	bl	40d8 <xTimerIsTimerActive>
    183c:	e2500000 	subs	r0, r0, #0	; 0x0
    1840:	13a00001 	movne	r0, #1	; 0x1
    1844:	e49df004 	pop	{pc}		; (ldr pc, [sp], #4)

00001848 <_ZN5Timer5resetEv>:
    1848:	e92d4010 	push	{r4, lr}
    184c:	e24dd004 	sub	sp, sp, #4	; 0x4
    1850:	e5904000 	ldr	r4, [r0]
    1854:	eb0006a9 	bl	3300 <xTaskGetTickCount>
    1858:	e3a0c000 	mov	ip, #0	; 0x0
    185c:	e1a02000 	mov	r2, r0
    1860:	e1a0100c 	mov	r1, ip
    1864:	e1a00004 	mov	r0, r4
    1868:	e1a0300c 	mov	r3, ip
    186c:	e58dc000 	str	ip, [sp]
    1870:	eb000a21 	bl	40fc <xTimerGenericCommand>
    1874:	e28dd004 	add	sp, sp, #4	; 0x4
    1878:	e8bd8010 	pop	{r4, pc}

0000187c <_ZN5Timer5startEv>:
    187c:	e92d4010 	push	{r4, lr}
    1880:	e24dd004 	sub	sp, sp, #4	; 0x4
    1884:	e5904000 	ldr	r4, [r0]
    1888:	eb00069c 	bl	3300 <xTaskGetTickCount>
    188c:	e3a0c000 	mov	ip, #0	; 0x0
    1890:	e1a02000 	mov	r2, r0
    1894:	e1a0100c 	mov	r1, ip
    1898:	e1a00004 	mov	r0, r4
    189c:	e1a0300c 	mov	r3, ip
    18a0:	e58dc000 	str	ip, [sp]
    18a4:	eb000a14 	bl	40fc <xTimerGenericCommand>
    18a8:	e28dd004 	add	sp, sp, #4	; 0x4
    18ac:	e8bd8010 	pop	{r4, pc}

000018b0 <_ZN5TimerC1EPFvPvEm9TimerType>:
    18b0:	e92d4010 	push	{r4, lr}
    18b4:	e24dd004 	sub	sp, sp, #4	; 0x4
    18b8:	e58d1000 	str	r1, [sp]
    18bc:	e1a04000 	mov	r4, r0
    18c0:	e1a01002 	mov	r1, r2
    18c4:	e59f0018 	ldr	r0, [pc, #24]	; 18e4 <_ZN5TimerC1EPFvPvEm9TimerType+0x34>
    18c8:	e2532000 	subs	r2, r3, #0	; 0x0
    18cc:	13a02001 	movne	r2, #1	; 0x1
    18d0:	e3a03000 	mov	r3, #0	; 0x0
    18d4:	eb000a44 	bl	41ec <xTimerCreate>
    18d8:	e5840000 	str	r0, [r4]
    18dc:	e28dd004 	add	sp, sp, #4	; 0x4
    18e0:	e8bd8010 	pop	{r4, pc}
    18e4:	4000003c 	.word	0x4000003c

000018e8 <_ZN5TimerC2EPFvPvEm9TimerType>:
    18e8:	e92d4010 	push	{r4, lr}
    18ec:	e24dd004 	sub	sp, sp, #4	; 0x4
    18f0:	e58d1000 	str	r1, [sp]
    18f4:	e1a04000 	mov	r4, r0
    18f8:	e1a01002 	mov	r1, r2
    18fc:	e59f0018 	ldr	r0, [pc, #24]	; 191c <_ZN5TimerC2EPFvPvEm9TimerType+0x34>
    1900:	e2532000 	subs	r2, r3, #0	; 0x0
    1904:	13a02001 	movne	r2, #1	; 0x1
    1908:	e3a03000 	mov	r3, #0	; 0x0
    190c:	eb000a36 	bl	41ec <xTimerCreate>
    1910:	e5840000 	str	r0, [r4]
    1914:	e28dd004 	add	sp, sp, #4	; 0x4
    1918:	e8bd8010 	pop	{r4, pc}
    191c:	4000003c 	.word	0x4000003c

00001920 <_Z11getUartLinePc>:
    1920:	e92d4070 	push	{r4, r5, r6, lr}
    1924:	e24dd004 	sub	sp, sp, #4	; 0x4
    1928:	e1a05000 	mov	r5, r0
    192c:	e3a04000 	mov	r4, #0	; 0x0
    1930:	e28d6003 	add	r6, sp, #3	; 0x3
    1934:	e3e01000 	mvn	r1, #0	; 0x0
    1938:	e1a00006 	mov	r0, r6
    193c:	eb0000cf 	bl	1c80 <uart0GetChar>
    1940:	e3500000 	cmp	r0, #0	; 0x0
    1944:	0afffffa 	beq	1934 <_Z11getUartLinePc+0x14>
    1948:	e5dd2003 	ldrb	r2, [sp, #3]
    194c:	e352000a 	cmp	r2, #10	; 0xa
    1950:	1a000006 	bne	1970 <_Z11getUartLinePc+0x50>
    1954:	e3a03000 	mov	r3, #0	; 0x0
    1958:	e7c53004 	strb	r3, [r5, r4]
    195c:	e1a00002 	mov	r0, r2
    1960:	e3a01064 	mov	r1, #100	; 0x64
    1964:	eb0000ce 	bl	1ca4 <uart0PutChar>
    1968:	e28dd004 	add	sp, sp, #4	; 0x4
    196c:	e8bd8070 	pop	{r4, r5, r6, pc}
    1970:	e352000d 	cmp	r2, #13	; 0xd
    1974:	0affffee 	beq	1934 <_Z11getUartLinePc+0x14>
    1978:	e3520008 	cmp	r2, #8	; 0x8
    197c:	e1a00002 	mov	r0, r2
    1980:	e3a01064 	mov	r1, #100	; 0x64
    1984:	1a000008 	bne	19ac <_Z11getUartLinePc+0x8c>
    1988:	e2541000 	subs	r1, r4, #0	; 0x0
    198c:	e59f002c 	ldr	r0, [pc, #44]	; 19c0 <_Z11getUartLinePc+0xa0>
    1990:	0a000002 	beq	19a0 <_Z11getUartLinePc+0x80>
    1994:	e2444001 	sub	r4, r4, #1	; 0x1
    1998:	ebfffeb6 	bl	1478 <rprintf>
    199c:	eaffffe4 	b	1934 <_Z11getUartLinePc+0x14>
    19a0:	e3a00007 	mov	r0, #7	; 0x7
    19a4:	eb0000be 	bl	1ca4 <uart0PutChar>
    19a8:	eaffffe1 	b	1934 <_Z11getUartLinePc+0x14>
    19ac:	eb0000bc 	bl	1ca4 <uart0PutChar>
    19b0:	e5dd3003 	ldrb	r3, [sp, #3]
    19b4:	e7c53004 	strb	r3, [r5, r4]
    19b8:	e2844001 	add	r4, r4, #1	; 0x1
    19bc:	eaffffdc 	b	1934 <_Z11getUartLinePc+0x14>
    19c0:	00008c5c 	.word	0x00008c5c

000019c4 <_Z9printLinev>:
    19c4:	e59f0000 	ldr	r0, [pc, #0]	; 19cc <_Z9printLinev+0x8>
    19c8:	eafffeaa 	b	1478 <rprintf>
    19cc:	00008c60 	.word	0x00008c60

000019d0 <_Z6uartUIPv>:
    19d0:	e92d4070 	push	{r4, r5, r6, lr}
    19d4:	e24ddd0a 	sub	sp, sp, #640	; 0x280
    19d8:	e28d6c02 	add	r6, sp, #512	; 0x200
    19dc:	e59f01c4 	ldr	r0, [pc, #452]	; 1ba8 <_Z6uartUIPv+0x1d8>
    19e0:	ebfffea4 	bl	1478 <rprintf>
    19e4:	e3a01000 	mov	r1, #0	; 0x0
    19e8:	e3a02080 	mov	r2, #128	; 0x80
    19ec:	e1a00006 	mov	r0, r6
    19f0:	eb000dea 	bl	51a0 <memset>
    19f4:	e1a00006 	mov	r0, r6
    19f8:	ebffffc8 	bl	1920 <_Z11getUartLinePc>
    19fc:	e5dd3200 	ldrb	r3, [sp, #512]
    1a00:	e3530000 	cmp	r3, #0	; 0x0
    1a04:	0afffff4 	beq	19dc <_Z6uartUIPv+0xc>
    1a08:	e59f119c 	ldr	r1, [pc, #412]	; 1bac <_Z6uartUIPv+0x1dc>
    1a0c:	e1a00006 	mov	r0, r6
    1a10:	eb000f1d 	bl	568c <strtok>
    1a14:	e59f1194 	ldr	r1, [pc, #404]	; 1bb0 <_Z6uartUIPv+0x1e0>
    1a18:	e1a04000 	mov	r4, r0
    1a1c:	eb000e48 	bl	5344 <strcmp>
    1a20:	e3500000 	cmp	r0, #0	; 0x0
    1a24:	1a000004 	bne	1a3c <_Z6uartUIPv+0x6c>
    1a28:	e59f1184 	ldr	r1, [pc, #388]	; 1bb4 <_Z6uartUIPv+0x1e4>
    1a2c:	eb000f16 	bl	568c <strtok>
    1a30:	e1a01000 	mov	r1, r0
    1a34:	e59f017c 	ldr	r0, [pc, #380]	; 1bb8 <_Z6uartUIPv+0x1e8>
    1a38:	ea000056 	b	1b98 <_Z6uartUIPv+0x1c8>
    1a3c:	e59f1178 	ldr	r1, [pc, #376]	; 1bbc <_Z6uartUIPv+0x1ec>
    1a40:	e1a00004 	mov	r0, r4
    1a44:	eb000e3e 	bl	5344 <strcmp>
    1a48:	e3500000 	cmp	r0, #0	; 0x0
    1a4c:	01a01000 	moveq	r1, r0
    1a50:	01a0000d 	moveq	r0, sp
    1a54:	0a000006 	beq	1a74 <_Z6uartUIPv+0xa4>
    1a58:	e1a00004 	mov	r0, r4
    1a5c:	e59f115c 	ldr	r1, [pc, #348]	; 1bc0 <_Z6uartUIPv+0x1f0>
    1a60:	eb000e37 	bl	5344 <strcmp>
    1a64:	e3500000 	cmp	r0, #0	; 0x0
    1a68:	1a000003 	bne	1a7c <_Z6uartUIPv+0xac>
    1a6c:	e1a0000d 	mov	r0, sp
    1a70:	e3a01001 	mov	r1, #1	; 0x1
    1a74:	eb0007ed 	bl	3a30 <vTaskGetRunTimeStats>
    1a78:	ea00001a 	b	1ae8 <_Z6uartUIPv+0x118>
    1a7c:	e1a00004 	mov	r0, r4
    1a80:	e59f113c 	ldr	r1, [pc, #316]	; 1bc4 <_Z6uartUIPv+0x1f4>
    1a84:	eb000e2e 	bl	5344 <strcmp>
    1a88:	e3500000 	cmp	r0, #0	; 0x0
    1a8c:	1a00000e 	bne	1acc <_Z6uartUIPv+0xfc>
    1a90:	e59f111c 	ldr	r1, [pc, #284]	; 1bb4 <_Z6uartUIPv+0x1e4>
    1a94:	eb000efc 	bl	568c <strtok>
    1a98:	eb000b7c 	bl	4890 <atoi>
    1a9c:	e2504000 	subs	r4, r0, #0	; 0x0
    1aa0:	d59f0120 	ldrle	r0, [pc, #288]	; 1bc8 <_Z6uartUIPv+0x1f8>
    1aa4:	da00003d 	ble	1ba0 <_Z6uartUIPv+0x1d0>
    1aa8:	e1a01004 	mov	r1, r4
    1aac:	e59f0118 	ldr	r0, [pc, #280]	; 1bcc <_Z6uartUIPv+0x1fc>
    1ab0:	ebfffe70 	bl	1478 <rprintf>
    1ab4:	e1a0000d 	mov	r0, sp
    1ab8:	e3a01001 	mov	r1, #1	; 0x1
    1abc:	eb0007db 	bl	3a30 <vTaskGetRunTimeStats>
    1ac0:	e1a00004 	mov	r0, r4
    1ac4:	eb0006c2 	bl	35d4 <vTaskDelay>
    1ac8:	eaffffe7 	b	1a6c <_Z6uartUIPv+0x9c>
    1acc:	e1a00004 	mov	r0, r4
    1ad0:	e59f10f8 	ldr	r1, [pc, #248]	; 1bd0 <_Z6uartUIPv+0x200>
    1ad4:	eb000e1a 	bl	5344 <strcmp>
    1ad8:	e3500000 	cmp	r0, #0	; 0x0
    1adc:	1a000004 	bne	1af4 <_Z6uartUIPv+0x124>
    1ae0:	e1a0000d 	mov	r0, sp
    1ae4:	eb00086c 	bl	3c9c <vTaskList>
    1ae8:	e59f00e4 	ldr	r0, [pc, #228]	; 1bd4 <_Z6uartUIPv+0x204>
    1aec:	e1a0100d 	mov	r1, sp
    1af0:	ea000028 	b	1b98 <_Z6uartUIPv+0x1c8>
    1af4:	e59f00dc 	ldr	r0, [pc, #220]	; 1bd8 <_Z6uartUIPv+0x208>
    1af8:	e1a01004 	mov	r1, r4
    1afc:	eb000e10 	bl	5344 <strcmp>
    1b00:	e3500000 	cmp	r0, #0	; 0x0
    1b04:	1a000017 	bne	1b68 <_Z6uartUIPv+0x198>
    1b08:	e59f00cc 	ldr	r0, [pc, #204]	; 1bdc <_Z6uartUIPv+0x20c>
    1b0c:	ebfffe59 	bl	1478 <rprintf>
    1b10:	ebffffab 	bl	19c4 <_Z9printLinev>
    1b14:	e59f00c4 	ldr	r0, [pc, #196]	; 1be0 <_Z6uartUIPv+0x210>
    1b18:	ebfffe56 	bl	1478 <rprintf>
    1b1c:	ebffffa8 	bl	19c4 <_Z9printLinev>
    1b20:	e59f00bc 	ldr	r0, [pc, #188]	; 1be4 <_Z6uartUIPv+0x214>
    1b24:	ebfffe53 	bl	1478 <rprintf>
    1b28:	e59f00b8 	ldr	r0, [pc, #184]	; 1be8 <_Z6uartUIPv+0x218>
    1b2c:	ebfffe51 	bl	1478 <rprintf>
    1b30:	e59f00b4 	ldr	r0, [pc, #180]	; 1bec <_Z6uartUIPv+0x21c>
    1b34:	ebfffe4f 	bl	1478 <rprintf>
    1b38:	e59f00b0 	ldr	r0, [pc, #176]	; 1bf0 <_Z6uartUIPv+0x220>
    1b3c:	ebfffe4d 	bl	1478 <rprintf>
    1b40:	e59f00ac 	ldr	r0, [pc, #172]	; 1bf4 <_Z6uartUIPv+0x224>
    1b44:	ebfffe4b 	bl	1478 <rprintf>
    1b48:	e59f00a8 	ldr	r0, [pc, #168]	; 1bf8 <_Z6uartUIPv+0x228>
    1b4c:	ebfffe49 	bl	1478 <rprintf>
    1b50:	e59f00a4 	ldr	r0, [pc, #164]	; 1bfc <_Z6uartUIPv+0x22c>
    1b54:	ebfffe47 	bl	1478 <rprintf>
    1b58:	e59f00a0 	ldr	r0, [pc, #160]	; 1c00 <_Z6uartUIPv+0x230>
    1b5c:	ebfffe45 	bl	1478 <rprintf>
    1b60:	ebffff97 	bl	19c4 <_Z9printLinev>
    1b64:	eaffff9c 	b	19dc <_Z6uartUIPv+0xc>
    1b68:	e1a00004 	mov	r0, r4
    1b6c:	e59f1090 	ldr	r1, [pc, #144]	; 1c04 <_Z6uartUIPv+0x234>
    1b70:	eb000df3 	bl	5344 <strcmp>
    1b74:	e3500000 	cmp	r0, #0	; 0x0
    1b78:	159f0088 	ldrne	r0, [pc, #136]	; 1c08 <_Z6uartUIPv+0x238>
    1b7c:	1a000007 	bne	1ba0 <_Z6uartUIPv+0x1d0>
    1b80:	e59f0084 	ldr	r0, [pc, #132]	; 1c0c <_Z6uartUIPv+0x23c>
    1b84:	ebfffe3b 	bl	1478 <rprintf>
    1b88:	e1a00006 	mov	r0, r6
    1b8c:	ebffff63 	bl	1920 <_Z11getUartLinePc>
    1b90:	e59f0078 	ldr	r0, [pc, #120]	; 1c10 <_Z6uartUIPv+0x240>
    1b94:	e1a01006 	mov	r1, r6
    1b98:	ebfffe36 	bl	1478 <rprintf>
    1b9c:	eaffff8e 	b	19dc <_Z6uartUIPv+0xc>
    1ba0:	ebfffe34 	bl	1478 <rprintf>
    1ba4:	eaffff8c 	b	19dc <_Z6uartUIPv+0xc>
    1ba8:	00008cb6 	.word	0x00008cb6
    1bac:	00008cba 	.word	0x00008cba
    1bb0:	00008cbc 	.word	0x00008cbc
    1bb4:	00008c5f 	.word	0x00008c5f
    1bb8:	00008cc1 	.word	0x00008cc1
    1bbc:	00008ccb 	.word	0x00008ccb
    1bc0:	00008cd2 	.word	0x00008cd2
    1bc4:	00008cd7 	.word	0x00008cd7
    1bc8:	00008d1a 	.word	0x00008d1a
    1bcc:	00008cdc 	.word	0x00008cdc
    1bd0:	00008d56 	.word	0x00008d56
    1bd4:	00008ccf 	.word	0x00008ccf
    1bd8:	00008d5b 	.word	0x00008d5b
    1bdc:	00009163 	.word	0x00009163
    1be0:	00008d60 	.word	0x00008d60
    1be4:	00008d6f 	.word	0x00008d6f
    1be8:	00008da0 	.word	0x00008da0
    1bec:	00008dcd 	.word	0x00008dcd
    1bf0:	00008df0 	.word	0x00008df0
    1bf4:	00008e13 	.word	0x00008e13
    1bf8:	00008e48 	.word	0x00008e48
    1bfc:	00008e8d 	.word	0x00008e8d
    1c00:	00008ee1 	.word	0x00008ee1
    1c04:	00008f22 	.word	0x00008f22
    1c08:	00008f4a 	.word	0x00008f4a
    1c0c:	00008f27 	.word	0x00008f27
    1c10:	00008f39 	.word	0x00008f39

00001c14 <uart0Init>:
    1c14:	e59f2058 	ldr	r2, [pc, #88]	; 1c74 <uart0Init+0x60>
    1c18:	e5923000 	ldr	r3, [r2]
    1c1c:	e3c3300f 	bic	r3, r3, #15	; 0xf
    1c20:	e5823000 	str	r3, [r2]
    1c24:	e5923000 	ldr	r3, [r2]
    1c28:	e3833005 	orr	r3, r3, #5	; 0x5
    1c2c:	e5823000 	str	r3, [r2]
    1c30:	e92d4010 	push	{r4, lr}
    1c34:	e59f403c 	ldr	r4, [pc, #60]	; 1c78 <uart0Init+0x64>
    1c38:	e594300c 	ldr	r3, [r4, #12]
    1c3c:	e3833080 	orr	r3, r3, #128	; 0x80
    1c40:	e1a01200 	lsl	r1, r0, #4
    1c44:	e584300c 	str	r3, [r4, #12]
    1c48:	e59f002c 	ldr	r0, [pc, #44]	; 1c7c <uart0Init+0x68>
    1c4c:	eb000a94 	bl	46a4 <__aeabi_uidiv>
    1c50:	e3a03000 	mov	r3, #0	; 0x0
    1c54:	e5840000 	str	r0, [r4]
    1c58:	e5843004 	str	r3, [r4, #4]
    1c5c:	e594300c 	ldr	r3, [r4, #12]
    1c60:	e3c33080 	bic	r3, r3, #128	; 0x80
    1c64:	e584300c 	str	r3, [r4, #12]
    1c68:	e3a03003 	mov	r3, #3	; 0x3
    1c6c:	e584300c 	str	r3, [r4, #12]
    1c70:	e8bd8010 	pop	{r4, pc}
    1c74:	e002c000 	.word	0xe002c000
    1c78:	e000c000 	.word	0xe000c000
    1c7c:	02dc6c00 	.word	0x02dc6c00

00001c80 <uart0GetChar>:
    1c80:	e59f2018 	ldr	r2, [pc, #24]	; 1ca0 <uart0GetChar+0x20>
    1c84:	e5923014 	ldr	r3, [r2, #20]
    1c88:	e3130001 	tst	r3, #1	; 0x1
    1c8c:	0afffffc 	beq	1c84 <uart0GetChar+0x4>
    1c90:	e59f3008 	ldr	r3, [pc, #8]	; 1ca0 <uart0GetChar+0x20>
    1c94:	e5933000 	ldr	r3, [r3]
    1c98:	e5c03000 	strb	r3, [r0]
    1c9c:	e12fff1e 	bx	lr
    1ca0:	e000c000 	.word	0xe000c000

00001ca4 <uart0PutChar>:
    1ca4:	e59f2018 	ldr	r2, [pc, #24]	; 1cc4 <uart0PutChar+0x20>
    1ca8:	e20000ff 	and	r0, r0, #255	; 0xff
    1cac:	e5923014 	ldr	r3, [r2, #20]
    1cb0:	e3130020 	tst	r3, #32	; 0x20
    1cb4:	0afffffc 	beq	1cac <uart0PutChar+0x8>
    1cb8:	e59f3004 	ldr	r3, [pc, #4]	; 1cc4 <uart0PutChar+0x20>
    1cbc:	e5830000 	str	r0, [r3]
    1cc0:	e12fff1e 	bx	lr
    1cc4:	e000c000 	.word	0xe000c000

00001cc8 <watchdog_Reset>:
    1cc8:	e3a0320e 	mov	r3, #-536870912	; 0xe0000000
    1ccc:	e3a020aa 	mov	r2, #170	; 0xaa
    1cd0:	e5832008 	str	r2, [r3, #8]
    1cd4:	e3a02055 	mov	r2, #85	; 0x55
    1cd8:	e5832008 	str	r2, [r3, #8]
    1cdc:	e12fff1e 	bx	lr

00001ce0 <watchdog_Feed>:
    1ce0:	e3a0320e 	mov	r3, #-536870912	; 0xe0000000
    1ce4:	e3a020aa 	mov	r2, #170	; 0xaa
    1ce8:	e5832008 	str	r2, [r3, #8]
    1cec:	e3a02055 	mov	r2, #85	; 0x55
    1cf0:	e5832008 	str	r2, [r3, #8]
    1cf4:	e12fff1e 	bx	lr

00001cf8 <watchdog_Start>:
    1cf8:	e3a0220e 	mov	r2, #-536870912	; 0xe0000000
    1cfc:	e3e03000 	mvn	r3, #0	; 0x0
    1d00:	e5823004 	str	r3, [r2, #4]
    1d04:	e2833002 	add	r3, r3, #2	; 0x2
    1d08:	e5823000 	str	r3, [r2]
    1d0c:	e28330a9 	add	r3, r3, #169	; 0xa9
    1d10:	e5823008 	str	r3, [r2, #8]
    1d14:	e3a03055 	mov	r3, #85	; 0x55
    1d18:	e5823008 	str	r3, [r2, #8]
    1d1c:	e12fff1e 	bx	lr

00001d20 <watchdog_Stop>:
    1d20:	e3a0220e 	mov	r2, #-536870912	; 0xe0000000
    1d24:	e3a03000 	mov	r3, #0	; 0x0
    1d28:	e5823000 	str	r3, [r2]
    1d2c:	e28330aa 	add	r3, r3, #170	; 0xaa
    1d30:	e5823008 	str	r3, [r2, #8]
    1d34:	e3a03055 	mov	r3, #85	; 0x55
    1d38:	e5823008 	str	r3, [r2, #8]
    1d3c:	e12fff1e 	bx	lr

00001d40 <watchdogDelayUs>:
    1d40:	e3a0300c 	mov	r3, #12	; 0xc
    1d44:	e0010093 	mul	r1, r3, r0
    1d48:	e3a0220e 	mov	r2, #-536870912	; 0xe0000000
    1d4c:	e3e03000 	mvn	r3, #0	; 0x0
    1d50:	e5823004 	str	r3, [r2, #4]
    1d54:	e2833002 	add	r3, r3, #2	; 0x2
    1d58:	e5823000 	str	r3, [r2]
    1d5c:	e28330a9 	add	r3, r3, #169	; 0xa9
    1d60:	e5823008 	str	r3, [r2, #8]
    1d64:	e3a03055 	mov	r3, #85	; 0x55
    1d68:	e5823008 	str	r3, [r2, #8]
    1d6c:	e1e01001 	mvn	r1, r1
    1d70:	e592300c 	ldr	r3, [r2, #12]
    1d74:	e1530001 	cmp	r3, r1
    1d78:	e3a0020e 	mov	r0, #-536870912	; 0xe0000000
    1d7c:	8afffffb 	bhi	1d70 <watchdogDelayUs+0x30>
    1d80:	e3a03000 	mov	r3, #0	; 0x0
    1d84:	e5803000 	str	r3, [r0]
    1d88:	e28330aa 	add	r3, r3, #170	; 0xaa
    1d8c:	e5803008 	str	r3, [r0, #8]
    1d90:	e3a03055 	mov	r3, #85	; 0x55
    1d94:	e5803008 	str	r3, [r0, #8]
    1d98:	e12fff1e 	bx	lr

00001d9c <_ZdaPv>:
    1d9c:	ea000abe 	b	489c <free>

00001da0 <_ZdlPv>:
    1da0:	ea000abd 	b	489c <free>

00001da4 <_Znam>:
    1da4:	ea000ac1 	b	48b0 <malloc>

00001da8 <_Znwm>:
    1da8:	ea000ac0 	b	48b0 <malloc>

00001dac <cpuSetupHardware>:
    1dac:	e59f2088 	ldr	r2, [pc, #136]	; 1e3c <cpuSetupHardware+0x90>
    1db0:	e59f0088 	ldr	r0, [pc, #136]	; 1e40 <cpuSetupHardware+0x94>
    1db4:	e3a03000 	mov	r3, #0	; 0x0
    1db8:	e59f1084 	ldr	r1, [pc, #132]	; 1e44 <cpuSetupHardware+0x98>
    1dbc:	e5823000 	str	r3, [r2]
    1dc0:	e5823004 	str	r3, [r2, #4]
    1dc4:	e5823014 	str	r3, [r2, #20]
    1dc8:	e5803008 	str	r3, [r0, #8]
    1dcc:	e5803018 	str	r3, [r0, #24]
    1dd0:	e2833023 	add	r3, r3, #35	; 0x23
    1dd4:	e5813084 	str	r3, [r1, #132]
    1dd8:	e3a03001 	mov	r3, #1	; 0x1
    1ddc:	e5813080 	str	r3, [r1, #128]
    1de0:	e28330a9 	add	r3, r3, #169	; 0xa9
    1de4:	e581308c 	str	r3, [r1, #140]
    1de8:	e3a03055 	mov	r3, #85	; 0x55
    1dec:	e581308c 	str	r3, [r1, #140]
    1df0:	e5913088 	ldr	r3, [r1, #136]
    1df4:	e3130b01 	tst	r3, #1024	; 0x400
    1df8:	e59f0044 	ldr	r0, [pc, #68]	; 1e44 <cpuSetupHardware+0x98>
    1dfc:	0afffffb 	beq	1df0 <cpuSetupHardware+0x44>
    1e00:	e3a02003 	mov	r2, #3	; 0x3
    1e04:	e3a030aa 	mov	r3, #170	; 0xaa
    1e08:	e5802080 	str	r2, [r0, #128]
    1e0c:	e580308c 	str	r3, [r0, #140]
    1e10:	e3a03055 	mov	r3, #85	; 0x55
    1e14:	e580308c 	str	r3, [r0, #140]
    1e18:	e3a03002 	mov	r3, #2	; 0x2
    1e1c:	e5802004 	str	r2, [r0, #4]
    1e20:	e5803000 	str	r3, [r0]
    1e24:	e59f201c 	ldr	r2, [pc, #28]	; 1e48 <cpuSetupHardware+0x9c>
    1e28:	e3a03001 	mov	r3, #1	; 0x1
    1e2c:	e5803100 	str	r3, [r0, #256]
    1e30:	e3e03000 	mvn	r3, #0	; 0x0
    1e34:	e5032feb 	str	r2, [r3, #-4075]
    1e38:	e12fff1e 	bx	lr
    1e3c:	e002c000 	.word	0xe002c000
    1e40:	e0028000 	.word	0xe0028000
    1e44:	e01fc000 	.word	0xe01fc000
    1e48:	007ffffd 	.word	0x007ffffd

00001e4c <cpuPrintMemoryInfo>:
    1e4c:	e92d41f0 	push	{r4, r5, r6, r7, r8, lr}
    1e50:	e59f708c 	ldr	r7, [pc, #140]	; 1ee4 <cpuPrintMemoryInfo+0x98>
    1e54:	e59f808c 	ldr	r8, [pc, #140]	; 1ee8 <cpuPrintMemoryInfo+0x9c>
    1e58:	e1a00007 	mov	r0, r7
    1e5c:	ebfffd85 	bl	1478 <rprintf>
    1e60:	e1a00008 	mov	r0, r8
    1e64:	ebfffd83 	bl	1478 <rprintf>
    1e68:	e59f007c 	ldr	r0, [pc, #124]	; 1eec <cpuPrintMemoryInfo+0xa0>
    1e6c:	ebfffd81 	bl	1478 <rprintf>
    1e70:	e59f6078 	ldr	r6, [pc, #120]	; 1ef0 <cpuPrintMemoryInfo+0xa4>
    1e74:	e59f1078 	ldr	r1, [pc, #120]	; 1ef4 <cpuPrintMemoryInfo+0xa8>
    1e78:	e59f0078 	ldr	r0, [pc, #120]	; 1ef8 <cpuPrintMemoryInfo+0xac>
    1e7c:	e0661001 	rsb	r1, r6, r1
    1e80:	ebfffd7c 	bl	1478 <rprintf>
    1e84:	e59f4070 	ldr	r4, [pc, #112]	; 1efc <cpuPrintMemoryInfo+0xb0>
    1e88:	e59f1070 	ldr	r1, [pc, #112]	; 1f00 <cpuPrintMemoryInfo+0xb4>
    1e8c:	e59f5070 	ldr	r5, [pc, #112]	; 1f04 <cpuPrintMemoryInfo+0xb8>
    1e90:	e0641001 	rsb	r1, r4, r1
    1e94:	e59f006c 	ldr	r0, [pc, #108]	; 1f08 <cpuPrintMemoryInfo+0xbc>
    1e98:	ebfffd76 	bl	1478 <rprintf>
    1e9c:	e2651902 	rsb	r1, r5, #32768	; 0x8000
    1ea0:	e0841001 	add	r1, r4, r1
    1ea4:	e59f0060 	ldr	r0, [pc, #96]	; 1f0c <cpuPrintMemoryInfo+0xc0>
    1ea8:	ebfffd72 	bl	1478 <rprintf>
    1eac:	e1a00007 	mov	r0, r7
    1eb0:	ebfffd70 	bl	1478 <rprintf>
    1eb4:	e1a01004 	mov	r1, r4
    1eb8:	e59f0050 	ldr	r0, [pc, #80]	; 1f10 <cpuPrintMemoryInfo+0xc4>
    1ebc:	ebfffd6d 	bl	1478 <rprintf>
    1ec0:	e1a01006 	mov	r1, r6
    1ec4:	e59f0048 	ldr	r0, [pc, #72]	; 1f14 <cpuPrintMemoryInfo+0xc8>
    1ec8:	ebfffd6a 	bl	1478 <rprintf>
    1ecc:	e1a01005 	mov	r1, r5
    1ed0:	e59f0040 	ldr	r0, [pc, #64]	; 1f18 <cpuPrintMemoryInfo+0xcc>
    1ed4:	ebfffd67 	bl	1478 <rprintf>
    1ed8:	e1a00008 	mov	r0, r8
    1edc:	e8bd41f0 	pop	{r4, r5, r6, r7, r8, lr}
    1ee0:	eafffd64 	b	1478 <rprintf>
    1ee4:	00009163 	.word	0x00009163
    1ee8:	00008c8d 	.word	0x00008c8d
    1eec:	00008f63 	.word	0x00008f63
    1ef0:	40000a60 	.word	0x40000a60
    1ef4:	40000ea0 	.word	0x40000ea0
    1ef8:	00008f7c 	.word	0x00008f7c
    1efc:	40000000 	.word	0x40000000
    1f00:	40000a60 	.word	0x40000a60
    1f04:	40000ea0 	.word	0x40000ea0
    1f08:	00008f97 	.word	0x00008f97
    1f0c:	00008fb2 	.word	0x00008fb2
    1f10:	00008fcd 	.word	0x00008fcd
    1f14:	00008fde 	.word	0x00008fde
    1f18:	00008fef 	.word	0x00008fef

00001f1c <_close_r>:
    1f1c:	e3a00000 	mov	r0, #0	; 0x0
    1f20:	e12fff1e 	bx	lr

00001f24 <_lseek_r>:
    1f24:	e3a00000 	mov	r0, #0	; 0x0
    1f28:	e12fff1e 	bx	lr

00001f2c <_fstat_r>:
    1f2c:	e3a03a02 	mov	r3, #8192	; 0x2000
    1f30:	e5823004 	str	r3, [r2, #4]
    1f34:	e3a00000 	mov	r0, #0	; 0x0
    1f38:	e12fff1e 	bx	lr

00001f3c <_sbrk_r>:
    1f3c:	e59f2020 	ldr	r2, [pc, #32]	; 1f64 <_sbrk_r+0x28>
    1f40:	e5923000 	ldr	r3, [r2]
    1f44:	e3530000 	cmp	r3, #0	; 0x0
    1f48:	059f3018 	ldreq	r3, [pc, #24]	; 1f68 <_sbrk_r+0x2c>
    1f4c:	05823000 	streq	r3, [r2]
    1f50:	e59f300c 	ldr	r3, [pc, #12]	; 1f64 <_sbrk_r+0x28>
    1f54:	e5930000 	ldr	r0, [r3]
    1f58:	e0802001 	add	r2, r0, r1
    1f5c:	e5832000 	str	r2, [r3]
    1f60:	e12fff1e 	bx	lr
    1f64:	40000864 	.word	0x40000864
    1f68:	40000ea0 	.word	0x40000ea0

00001f6c <_write_r>:
    1f6c:	e92d40f0 	push	{r4, r5, r6, r7, lr}
    1f70:	e1a06003 	mov	r6, r3
    1f74:	e1a07002 	mov	r7, r2
    1f78:	e1a05003 	mov	r5, r3
    1f7c:	e3a04000 	mov	r4, #0	; 0x0
    1f80:	ea000002 	b	1f90 <_write_r+0x24>
    1f84:	e7d70004 	ldrb	r0, [r7, r4]
    1f88:	ebffff45 	bl	1ca4 <uart0PutChar>
    1f8c:	e2844001 	add	r4, r4, #1	; 0x1
    1f90:	e3e01000 	mvn	r1, #0	; 0x0
    1f94:	e3550000 	cmp	r5, #0	; 0x0
    1f98:	e0855001 	add	r5, r5, r1
    1f9c:	1afffff8 	bne	1f84 <_write_r+0x18>
    1fa0:	e1a00006 	mov	r0, r6
    1fa4:	e8bd80f0 	pop	{r4, r5, r6, r7, pc}

00001fa8 <_read_r>:
    1fa8:	e92d4030 	push	{r4, r5, lr}
    1fac:	e24dd004 	sub	sp, sp, #4	; 0x4
    1fb0:	e1a04002 	mov	r4, r2
    1fb4:	e28d5003 	add	r5, sp, #3	; 0x3
    1fb8:	e1a00005 	mov	r0, r5
    1fbc:	e3e01000 	mvn	r1, #0	; 0x0
    1fc0:	ebffff2e 	bl	1c80 <uart0GetChar>
    1fc4:	e3500000 	cmp	r0, #0	; 0x0
    1fc8:	0afffffa 	beq	1fb8 <_read_r+0x10>
    1fcc:	e5dd3003 	ldrb	r3, [sp, #3]
    1fd0:	e3530000 	cmp	r3, #0	; 0x0
    1fd4:	0afffff7 	beq	1fb8 <_read_r+0x10>
    1fd8:	e5c43000 	strb	r3, [r4]
    1fdc:	e3a00001 	mov	r0, #1	; 0x1
    1fe0:	e28dd004 	add	sp, sp, #4	; 0x4
    1fe4:	e8bd8030 	pop	{r4, r5, pc}

00001fe8 <_kill_r>:
    1fe8:	e52de004 	push	{lr}		; (str lr, [sp, #-4]!)
    1fec:	e59f0008 	ldr	r0, [pc, #8]	; 1ffc <_kill_r+0x14>
    1ff0:	ebfffd20 	bl	1478 <rprintf>
    1ff4:	e3a00000 	mov	r0, #0	; 0x0
    1ff8:	e49df004 	pop	{pc}		; (ldr pc, [sp], #4)
    1ffc:	00009000 	.word	0x00009000

00002000 <_getpid_r>:
    2000:	e52de004 	push	{lr}		; (str lr, [sp, #-4]!)
    2004:	e59f0008 	ldr	r0, [pc, #8]	; 2014 <_getpid_r+0x14>
    2008:	ebfffd1a 	bl	1478 <rprintf>
    200c:	e3a00000 	mov	r0, #0	; 0x0
    2010:	e49df004 	pop	{pc}		; (ldr pc, [sp], #4)
    2014:	00009009 	.word	0x00009009

00002018 <printExceptionInfo>:
    2018:	e1a02001 	mov	r2, r1
    201c:	e52de004 	push	{lr}		; (str lr, [sp, #-4]!)
    2020:	e1a01000 	mov	r1, r0
    2024:	e59f000c 	ldr	r0, [pc, #12]	; 2038 <printExceptionInfo+0x20>
    2028:	ebfffd12 	bl	1478 <rprintf>
    202c:	e59f0008 	ldr	r0, [pc, #8]	; 203c <printExceptionInfo+0x24>
    2030:	ebfffd10 	bl	1478 <rprintf>
    2034:	eafffffe 	b	2034 <printExceptionInfo+0x1c>
    2038:	00009014 	.word	0x00009014
    203c:	0000903a 	.word	0x0000903a

00002040 <Exception_FIQHandler>:
    2040:	e52de004 	push	{lr}		; (str lr, [sp, #-4]!)
    2044:	e59f0008 	ldr	r0, [pc, #8]	; 2054 <Exception_FIQHandler+0x14>
    2048:	e24e1004 	sub	r1, lr, #4	; 0x4
    204c:	e49de004 	pop	{lr}		; (ldr lr, [sp], #4)
    2050:	eafffff0 	b	2018 <printExceptionInfo>
    2054:	00009076 	.word	0x00009076

00002058 <Exception_DataAbort>:
    2058:	e52de004 	push	{lr}		; (str lr, [sp, #-4]!)
    205c:	e59f0008 	ldr	r0, [pc, #8]	; 206c <Exception_DataAbort+0x14>
    2060:	e24e1008 	sub	r1, lr, #8	; 0x8
    2064:	e49de004 	pop	{lr}		; (ldr lr, [sp], #4)
    2068:	eaffffea 	b	2018 <printExceptionInfo>
    206c:	0000908e 	.word	0x0000908e

00002070 <Exception_PrefetchAbort>:
    2070:	e52de004 	push	{lr}		; (str lr, [sp, #-4]!)
    2074:	e59f0008 	ldr	r0, [pc, #8]	; 2084 <Exception_PrefetchAbort+0x14>
    2078:	e24e1004 	sub	r1, lr, #4	; 0x4
    207c:	e49de004 	pop	{lr}		; (ldr lr, [sp], #4)
    2080:	eaffffe4 	b	2018 <printExceptionInfo>
    2084:	000090ae 	.word	0x000090ae

00002088 <Exception_UndefinedAddress>:
    2088:	e52de004 	push	{lr}		; (str lr, [sp, #-4]!)
    208c:	e59f0008 	ldr	r0, [pc, #8]	; 209c <Exception_UndefinedAddress+0x14>
    2090:	e24e1004 	sub	r1, lr, #4	; 0x4
    2094:	e49de004 	pop	{lr}		; (ldr lr, [sp], #4)
    2098:	eaffffde 	b	2018 <printExceptionInfo>
    209c:	000090ce 	.word	0x000090ce

000020a0 <vListInitialise>:
    20a0:	e3e03000 	mvn	r3, #0	; 0x0
    20a4:	e5803008 	str	r3, [r0, #8]
    20a8:	e2802008 	add	r2, r0, #8	; 0x8
    20ac:	e2833001 	add	r3, r3, #1	; 0x1
    20b0:	e580200c 	str	r2, [r0, #12]
    20b4:	e5802004 	str	r2, [r0, #4]
    20b8:	e5802010 	str	r2, [r0, #16]
    20bc:	e5803000 	str	r3, [r0]
    20c0:	e12fff1e 	bx	lr

000020c4 <vListInitialiseItem>:
    20c4:	e3a03000 	mov	r3, #0	; 0x0
    20c8:	e5803010 	str	r3, [r0, #16]
    20cc:	e12fff1e 	bx	lr

000020d0 <vListInsertEnd>:
    20d0:	e5903004 	ldr	r3, [r0, #4]
    20d4:	e5932004 	ldr	r2, [r3, #4]
    20d8:	e5812004 	str	r2, [r1, #4]
    20dc:	e5932004 	ldr	r2, [r3, #4]
    20e0:	e5813008 	str	r3, [r1, #8]
    20e4:	e5821008 	str	r1, [r2, #8]
    20e8:	e5831004 	str	r1, [r3, #4]
    20ec:	e5903000 	ldr	r3, [r0]
    20f0:	e2833001 	add	r3, r3, #1	; 0x1
    20f4:	e5803000 	str	r3, [r0]
    20f8:	e5810010 	str	r0, [r1, #16]
    20fc:	e5801004 	str	r1, [r0, #4]
    2100:	e12fff1e 	bx	lr

00002104 <vListInsert>:
    2104:	e591c000 	ldr	ip, [r1]
    2108:	e37c0001 	cmn	ip, #1	; 0x1
    210c:	05902010 	ldreq	r2, [r0, #16]
    2110:	12802008 	addne	r2, r0, #8	; 0x8
    2114:	1a000001 	bne	2120 <vListInsert+0x1c>
    2118:	ea000004 	b	2130 <vListInsert+0x2c>
    211c:	e5922004 	ldr	r2, [r2, #4]
    2120:	e5923004 	ldr	r3, [r2, #4]
    2124:	e5933000 	ldr	r3, [r3]
    2128:	e153000c 	cmp	r3, ip
    212c:	9afffffa 	bls	211c <vListInsert+0x18>
    2130:	e5923004 	ldr	r3, [r2, #4]
    2134:	e5831008 	str	r1, [r3, #8]
    2138:	e5813004 	str	r3, [r1, #4]
    213c:	e5821004 	str	r1, [r2, #4]
    2140:	e5903000 	ldr	r3, [r0]
    2144:	e2833001 	add	r3, r3, #1	; 0x1
    2148:	e5803000 	str	r3, [r0]
    214c:	e5810010 	str	r0, [r1, #16]
    2150:	e5812008 	str	r2, [r1, #8]
    2154:	e12fff1e 	bx	lr

00002158 <vListRemove>:
    2158:	e5903004 	ldr	r3, [r0, #4]
    215c:	e5902008 	ldr	r2, [r0, #8]
    2160:	e5832008 	str	r2, [r3, #8]
    2164:	e5902008 	ldr	r2, [r0, #8]
    2168:	e5901010 	ldr	r1, [r0, #16]
    216c:	e5823004 	str	r3, [r2, #4]
    2170:	e5913004 	ldr	r3, [r1, #4]
    2174:	e1530000 	cmp	r3, r0
    2178:	e5913000 	ldr	r3, [r1]
    217c:	05812004 	streq	r2, [r1, #4]
    2180:	e2433001 	sub	r3, r3, #1	; 0x1
    2184:	e3a02000 	mov	r2, #0	; 0x0
    2188:	e5802010 	str	r2, [r0, #16]
    218c:	e5813000 	str	r3, [r1]
    2190:	e12fff1e 	bx	lr

00002194 <pxPortInitialiseStack>:
    2194:	e1a0c000 	mov	ip, r0
    2198:	e2813004 	add	r3, r1, #4	; 0x4
    219c:	e40c3004 	str	r3, [ip], #-4
    21a0:	e92d4ff0 	push	{r4, r5, r6, r7, r8, r9, sl, fp, lr}
    21a4:	e24c4004 	sub	r4, ip, #4	; 0x4
    21a8:	e2445004 	sub	r5, r4, #4	; 0x4
    21ac:	e2456004 	sub	r6, r5, #4	; 0x4
    21b0:	e2467004 	sub	r7, r6, #4	; 0x4
    21b4:	e2478004 	sub	r8, r7, #4	; 0x4
    21b8:	e248a004 	sub	sl, r8, #4	; 0x4
    21bc:	e24a9004 	sub	r9, sl, #4	; 0x4
    21c0:	e24dd01c 	sub	sp, sp, #28	; 0x1c
    21c4:	e2493004 	sub	r3, r9, #4	; 0x4
    21c8:	e58d3004 	str	r3, [sp, #4]
    21cc:	e2433004 	sub	r3, r3, #4	; 0x4
    21d0:	e58d3008 	str	r3, [sp, #8]
    21d4:	e2433004 	sub	r3, r3, #4	; 0x4
    21d8:	e58d300c 	str	r3, [sp, #12]
    21dc:	e2433004 	sub	r3, r3, #4	; 0x4
    21e0:	e58d3010 	str	r3, [sp, #16]
    21e4:	e2433004 	sub	r3, r3, #4	; 0x4
    21e8:	e58d3014 	str	r3, [sp, #20]
    21ec:	e3110001 	tst	r1, #1	; 0x1
    21f0:	e2433004 	sub	r3, r3, #4	; 0x4
    21f4:	e2431004 	sub	r1, r3, #4	; 0x4
    21f8:	e58d3018 	str	r3, [sp, #24]
    21fc:	13a0303f 	movne	r3, #63	; 0x3f
    2200:	03a0301f 	moveq	r3, #31	; 0x1f
    2204:	e58d3000 	str	r3, [sp]
    2208:	e59f30a0 	ldr	r3, [pc, #160]	; 22b0 <pxPortInitialiseStack+0x11c>
    220c:	e5003004 	str	r3, [r0, #-4]
    2210:	e59f309c 	ldr	r3, [pc, #156]	; 22b4 <pxPortInitialiseStack+0x120>
    2214:	e50c0004 	str	r0, [ip, #-4]
    2218:	e5043004 	str	r3, [r4, #-4]
    221c:	e59f3094 	ldr	r3, [pc, #148]	; 22b8 <pxPortInitialiseStack+0x124>
    2220:	e5053004 	str	r3, [r5, #-4]
    2224:	e59f3090 	ldr	r3, [pc, #144]	; 22bc <pxPortInitialiseStack+0x128>
    2228:	e5063004 	str	r3, [r6, #-4]
    222c:	e59f308c 	ldr	r3, [pc, #140]	; 22c0 <pxPortInitialiseStack+0x12c>
    2230:	e5073004 	str	r3, [r7, #-4]
    2234:	e59f3088 	ldr	r3, [pc, #136]	; 22c4 <pxPortInitialiseStack+0x130>
    2238:	e5083004 	str	r3, [r8, #-4]
    223c:	e59f3084 	ldr	r3, [pc, #132]	; 22c8 <pxPortInitialiseStack+0x134>
    2240:	e50a3004 	str	r3, [sl, #-4]
    2244:	e59f3080 	ldr	r3, [pc, #128]	; 22cc <pxPortInitialiseStack+0x138>
    2248:	e59d0004 	ldr	r0, [sp, #4]
    224c:	e5093004 	str	r3, [r9, #-4]
    2250:	e59f3078 	ldr	r3, [pc, #120]	; 22d0 <pxPortInitialiseStack+0x13c>
    2254:	e5003004 	str	r3, [r0, #-4]
    2258:	e59d0008 	ldr	r0, [sp, #8]
    225c:	e59f3070 	ldr	r3, [pc, #112]	; 22d4 <pxPortInitialiseStack+0x140>
    2260:	e5003004 	str	r3, [r0, #-4]
    2264:	e59d000c 	ldr	r0, [sp, #12]
    2268:	e59f3068 	ldr	r3, [pc, #104]	; 22d8 <pxPortInitialiseStack+0x144>
    226c:	e5003004 	str	r3, [r0, #-4]
    2270:	e59d0010 	ldr	r0, [sp, #16]
    2274:	e59f3060 	ldr	r3, [pc, #96]	; 22dc <pxPortInitialiseStack+0x148>
    2278:	e5003004 	str	r3, [r0, #-4]
    227c:	e59d0014 	ldr	r0, [sp, #20]
    2280:	e59f3058 	ldr	r3, [pc, #88]	; 22e0 <pxPortInitialiseStack+0x14c>
    2284:	e5003004 	str	r3, [r0, #-4]
    2288:	e59d3018 	ldr	r3, [sp, #24]
    228c:	e59d0000 	ldr	r0, [sp]
    2290:	e5032004 	str	r2, [r3, #-4]
    2294:	e241b004 	sub	fp, r1, #4	; 0x4
    2298:	e3a03000 	mov	r3, #0	; 0x0
    229c:	e5010004 	str	r0, [r1, #-4]
    22a0:	e50b3004 	str	r3, [fp, #-4]
    22a4:	e24b0004 	sub	r0, fp, #4	; 0x4
    22a8:	e28dd01c 	add	sp, sp, #28	; 0x1c
    22ac:	e8bd8ff0 	pop	{r4, r5, r6, r7, r8, r9, sl, fp, pc}
    22b0:	aaaaaaaa 	.word	0xaaaaaaaa
    22b4:	12121212 	.word	0x12121212
    22b8:	11111111 	.word	0x11111111
    22bc:	10101010 	.word	0x10101010
    22c0:	09090909 	.word	0x09090909
    22c4:	08080808 	.word	0x08080808
    22c8:	07070707 	.word	0x07070707
    22cc:	06060606 	.word	0x06060606
    22d0:	05050505 	.word	0x05050505
    22d4:	04040404 	.word	0x04040404
    22d8:	03030303 	.word	0x03030303
    22dc:	02020202 	.word	0x02020202
    22e0:	01010101 	.word	0x01010101

000022e4 <vPortEndScheduler>:
    22e4:	e12fff1e 	bx	lr

000022e8 <xPortStartScheduler>:
    22e8:	e59f1058 	ldr	r1, [pc, #88]	; 2348 <xPortStartScheduler+0x60>
    22ec:	e59f3058 	ldr	r3, [pc, #88]	; 234c <xPortStartScheduler+0x64>
    22f0:	e92d4010 	push	{r4, lr}
    22f4:	e3a04000 	mov	r4, #0	; 0x0
    22f8:	e581400c 	str	r4, [r1, #12]
    22fc:	e5813018 	str	r3, [r1, #24]
    2300:	e3a03003 	mov	r3, #3	; 0x3
    2304:	e5813014 	str	r3, [r1, #20]
    2308:	e3e02000 	mvn	r2, #0	; 0x0
    230c:	e5123ff3 	ldr	r3, [r2, #-4083]
    2310:	e3c33010 	bic	r3, r3, #16	; 0x10
    2314:	e5023ff3 	str	r3, [r2, #-4083]
    2318:	e5123fef 	ldr	r3, [r2, #-4079]
    231c:	e3833010 	orr	r3, r3, #16	; 0x10
    2320:	e5023fef 	str	r3, [r2, #-4079]
    2324:	e59f3024 	ldr	r3, [pc, #36]	; 2350 <xPortStartScheduler+0x68>
    2328:	e5023eff 	str	r3, [r2, #-3839]
    232c:	e3a03024 	mov	r3, #36	; 0x24
    2330:	e5023dff 	str	r3, [r2, #-3583]
    2334:	e3a03001 	mov	r3, #1	; 0x1
    2338:	e5813004 	str	r3, [r1, #4]
    233c:	eb000004 	bl	2354 <vPortISRStartFirstTask>
    2340:	e1a00004 	mov	r0, r4
    2344:	e8bd8010 	pop	{r4, pc}
    2348:	e0004000 	.word	0xe0004000
    234c:	0000bb80 	.word	0x0000bb80
    2350:	00002444 	.word	0x00002444

00002354 <vPortISRStartFirstTask>:
    2354:	e59f0218 	ldr	r0, [pc, #536]	; 2574 <vPortExitCritical+0x44>
    2358:	e5900000 	ldr	r0, [r0]
    235c:	e590e000 	ldr	lr, [r0]
    2360:	e59f0210 	ldr	r0, [pc, #528]	; 2578 <vPortExitCritical+0x48>
    2364:	e8be0002 	ldm	lr!, {r1}
    2368:	e5801000 	str	r1, [r0]
    236c:	e8be0001 	ldm	lr!, {r0}
    2370:	e169f000 	msr	SPSR_fc, r0
    2374:	e8de7fff 	ldm	lr, {r0, r1, r2, r3, r4, r5, r6, r7, r8, r9, sl, fp, ip, sp, lr}^
    2378:	e1a00000 	nop			(mov r0,r0)
    237c:	e59ee03c 	ldr	lr, [lr, #60]
    2380:	e25ef004 	subs	pc, lr, #4	; 0x4
    2384:	e59f300c 	ldr	r3, [pc, #12]	; 2398 <vPortISRStartFirstTask+0x44>
    2388:	e5933000 	ldr	r3, [r3]
    238c:	e59f3008 	ldr	r3, [pc, #8]	; 239c <vPortISRStartFirstTask+0x48>
    2390:	e5933000 	ldr	r3, [r3]
    2394:	e12fff1e 	bx	lr
    2398:	40000040 	.word	0x40000040
    239c:	40000868 	.word	0x40000868

000023a0 <vPortYieldProcessor>:
    23a0:	e28ee004 	add	lr, lr, #4	; 0x4
    23a4:	e92d0001 	push	{r0}
    23a8:	e94d2000 	stmdb	sp, {sp}^
    23ac:	e1a00000 	nop			(mov r0,r0)
    23b0:	e24dd004 	sub	sp, sp, #4	; 0x4
    23b4:	e8bd0001 	pop	{r0}
    23b8:	e9204000 	stmdb	r0!, {lr}
    23bc:	e1a0e000 	mov	lr, r0
    23c0:	e8bd0001 	pop	{r0}
    23c4:	e94e7fff 	stmdb	lr, {r0, r1, r2, r3, r4, r5, r6, r7, r8, r9, sl, fp, ip, sp, lr}^
    23c8:	e1a00000 	nop			(mov r0,r0)
    23cc:	e24ee03c 	sub	lr, lr, #60	; 0x3c
    23d0:	e14f0000 	mrs	r0, SPSR
    23d4:	e92e0001 	stmdb	lr!, {r0}
    23d8:	e59f0198 	ldr	r0, [pc, #408]	; 2578 <vPortExitCritical+0x48>
    23dc:	e5900000 	ldr	r0, [r0]
    23e0:	e92e0001 	stmdb	lr!, {r0}
    23e4:	e59f0188 	ldr	r0, [pc, #392]	; 2574 <vPortExitCritical+0x44>
    23e8:	e5900000 	ldr	r0, [r0]
    23ec:	e580e000 	str	lr, [r0]
    23f0:	e59f3044 	ldr	r3, [pc, #68]	; 243c <vPortYieldProcessor+0x9c>
    23f4:	e59f2044 	ldr	r2, [pc, #68]	; 2440 <vPortYieldProcessor+0xa0>
    23f8:	e5931000 	ldr	r1, [r3]
    23fc:	e5921000 	ldr	r1, [r2]
    2400:	eb0004c9 	bl	372c <vTaskSwitchContext>
    2404:	e59f0168 	ldr	r0, [pc, #360]	; 2574 <vPortExitCritical+0x44>
    2408:	e5900000 	ldr	r0, [r0]
    240c:	e590e000 	ldr	lr, [r0]
    2410:	e59f0160 	ldr	r0, [pc, #352]	; 2578 <vPortExitCritical+0x48>
    2414:	e8be0002 	ldm	lr!, {r1}
    2418:	e5801000 	str	r1, [r0]
    241c:	e8be0001 	ldm	lr!, {r0}
    2420:	e169f000 	msr	SPSR_fc, r0
    2424:	e8de7fff 	ldm	lr, {r0, r1, r2, r3, r4, r5, r6, r7, r8, r9, sl, fp, ip, sp, lr}^
    2428:	e1a00000 	nop			(mov r0,r0)
    242c:	e59ee03c 	ldr	lr, [lr, #60]
    2430:	e25ef004 	subs	pc, lr, #4	; 0x4
    2434:	e5933000 	ldr	r3, [r3]
    2438:	e5922000 	ldr	r2, [r2]
    243c:	40000040 	.word	0x40000040
    2440:	40000868 	.word	0x40000868

00002444 <vTickISR>:
    2444:	e92d0001 	push	{r0}
    2448:	e94d2000 	stmdb	sp, {sp}^
    244c:	e1a00000 	nop			(mov r0,r0)
    2450:	e24dd004 	sub	sp, sp, #4	; 0x4
    2454:	e8bd0001 	pop	{r0}
    2458:	e9204000 	stmdb	r0!, {lr}
    245c:	e1a0e000 	mov	lr, r0
    2460:	e8bd0001 	pop	{r0}
    2464:	e94e7fff 	stmdb	lr, {r0, r1, r2, r3, r4, r5, r6, r7, r8, r9, sl, fp, ip, sp, lr}^
    2468:	e1a00000 	nop			(mov r0,r0)
    246c:	e24ee03c 	sub	lr, lr, #60	; 0x3c
    2470:	e14f0000 	mrs	r0, SPSR
    2474:	e92e0001 	stmdb	lr!, {r0}
    2478:	e59f00f8 	ldr	r0, [pc, #248]	; 2578 <vPortExitCritical+0x48>
    247c:	e5900000 	ldr	r0, [r0]
    2480:	e92e0001 	stmdb	lr!, {r0}
    2484:	e59f00e8 	ldr	r0, [pc, #232]	; 2574 <vPortExitCritical+0x44>
    2488:	e5900000 	ldr	r0, [r0]
    248c:	e580e000 	str	lr, [r0]
    2490:	e59f1060 	ldr	r1, [pc, #96]	; 24f8 <vTickISR+0xb4>
    2494:	e59f0060 	ldr	r0, [pc, #96]	; 24fc <vTickISR+0xb8>
    2498:	e5913000 	ldr	r3, [r1]
    249c:	e5903000 	ldr	r3, [r0]
    24a0:	eb0002e6 	bl	3040 <vTaskIncrementTick>
    24a4:	eb0004a0 	bl	372c <vTaskSwitchContext>
    24a8:	e59f3050 	ldr	r3, [pc, #80]	; 2500 <vTickISR+0xbc>
    24ac:	e3a02001 	mov	r2, #1	; 0x1
    24b0:	e5832000 	str	r2, [r3]
    24b4:	e3a02000 	mov	r2, #0	; 0x0
    24b8:	e3e03000 	mvn	r3, #0	; 0x0
    24bc:	e5032fcf 	str	r2, [r3, #-4047]
    24c0:	e59f00ac 	ldr	r0, [pc, #172]	; 2574 <vPortExitCritical+0x44>
    24c4:	e5900000 	ldr	r0, [r0]
    24c8:	e590e000 	ldr	lr, [r0]
    24cc:	e59f00a4 	ldr	r0, [pc, #164]	; 2578 <vPortExitCritical+0x48>
    24d0:	e8be0002 	ldm	lr!, {r1}
    24d4:	e5801000 	str	r1, [r0]
    24d8:	e8be0001 	ldm	lr!, {r0}
    24dc:	e169f000 	msr	SPSR_fc, r0
    24e0:	e8de7fff 	ldm	lr, {r0, r1, r2, r3, r4, r5, r6, r7, r8, r9, sl, fp, ip, sp, lr}^
    24e4:	e1a00000 	nop			(mov r0,r0)
    24e8:	e59ee03c 	ldr	lr, [lr, #60]
    24ec:	e25ef004 	subs	pc, lr, #4	; 0x4
    24f0:	e5911000 	ldr	r1, [r1]
    24f4:	e5900000 	ldr	r0, [r0]
    24f8:	40000040 	.word	0x40000040
    24fc:	40000868 	.word	0x40000868
    2500:	e0004000 	.word	0xe0004000

00002504 <vPortEnterCritical>:
    2504:	e92d0001 	push	{r0}
    2508:	e10f0000 	mrs	r0, CPSR
    250c:	e38000c0 	orr	r0, r0, #192	; 0xc0
    2510:	e129f000 	msr	CPSR_fc, r0
    2514:	e8bd0001 	pop	{r0}
    2518:	e59f200c 	ldr	r2, [pc, #12]	; 252c <vPortEnterCritical+0x28>
    251c:	e5923000 	ldr	r3, [r2]
    2520:	e2833001 	add	r3, r3, #1	; 0x1
    2524:	e5823000 	str	r3, [r2]
    2528:	e12fff1e 	bx	lr
    252c:	40000040 	.word	0x40000040

00002530 <vPortExitCritical>:
    2530:	e59f2038 	ldr	r2, [pc, #56]	; 2570 <vPortExitCritical+0x40>
    2534:	e5923000 	ldr	r3, [r2]
    2538:	e3530000 	cmp	r3, #0	; 0x0
    253c:	012fff1e 	bxeq	lr
    2540:	e5923000 	ldr	r3, [r2]
    2544:	e2433001 	sub	r3, r3, #1	; 0x1
    2548:	e5823000 	str	r3, [r2]
    254c:	e5923000 	ldr	r3, [r2]
    2550:	e3530000 	cmp	r3, #0	; 0x0
    2554:	112fff1e 	bxne	lr
    2558:	e92d0001 	push	{r0}
    255c:	e10f0000 	mrs	r0, CPSR
    2560:	e3c000c0 	bic	r0, r0, #192	; 0xc0
    2564:	e129f000 	msr	CPSR_fc, r0
    2568:	e8bd0001 	pop	{r0}
    256c:	e12fff1e 	bx	lr
    2570:	40000040 	.word	0x40000040
    2574:	40000868 	.word	0x40000868
    2578:	40000040 	.word	0x40000040

0000257c <uxQueueMessagesWaitingFromISR>:
    257c:	e5900038 	ldr	r0, [r0, #56]
    2580:	e12fff1e 	bx	lr

00002584 <ucQueueGetQueueNumber>:
    2584:	e5d0004c 	ldrb	r0, [r0, #76]
    2588:	e12fff1e 	bx	lr

0000258c <vQueueSetQueueNumber>:
    258c:	e5c0104c 	strb	r1, [r0, #76]
    2590:	e12fff1e 	bx	lr

00002594 <ucQueueGetQueueType>:
    2594:	e5d0004d 	ldrb	r0, [r0, #77]
    2598:	e12fff1e 	bx	lr

0000259c <xQueueIsQueueEmptyFromISR>:
    259c:	e5900038 	ldr	r0, [r0, #56]
    25a0:	e2700001 	rsbs	r0, r0, #1	; 0x1
    25a4:	33a00000 	movcc	r0, #0	; 0x0
    25a8:	e12fff1e 	bx	lr

000025ac <xQueueIsQueueFullFromISR>:
    25ac:	e590303c 	ldr	r3, [r0, #60]
    25b0:	e5900038 	ldr	r0, [r0, #56]
    25b4:	e1500003 	cmp	r0, r3
    25b8:	13a00000 	movne	r0, #0	; 0x0
    25bc:	03a00001 	moveq	r0, #1	; 0x1
    25c0:	e12fff1e 	bx	lr

000025c4 <uxQueueMessagesWaiting>:
    25c4:	e92d4010 	push	{r4, lr}
    25c8:	e1a04000 	mov	r4, r0
    25cc:	ebffffcc 	bl	2504 <vPortEnterCritical>
    25d0:	e5944038 	ldr	r4, [r4, #56]
    25d4:	ebffffd5 	bl	2530 <vPortExitCritical>
    25d8:	e1a00004 	mov	r0, r4
    25dc:	e8bd8010 	pop	{r4, pc}

000025e0 <prvUnlockQueue>:
    25e0:	e92d4030 	push	{r4, r5, lr}
    25e4:	e1a04000 	mov	r4, r0
    25e8:	e2805024 	add	r5, r0, #36	; 0x24
    25ec:	ebffffc4 	bl	2504 <vPortEnterCritical>
    25f0:	ea000008 	b	2618 <prvUnlockQueue+0x38>
    25f4:	e5943024 	ldr	r3, [r4, #36]
    25f8:	e3530000 	cmp	r3, #0	; 0x0
    25fc:	0a000009 	beq	2628 <prvUnlockQueue+0x48>
    2600:	eb000268 	bl	2fa8 <xTaskRemoveFromEventList>
    2604:	e3500000 	cmp	r0, #0	; 0x0
    2608:	1b0001fc 	blne	2e00 <vTaskMissedYield>
    260c:	e5943048 	ldr	r3, [r4, #72]
    2610:	e2433001 	sub	r3, r3, #1	; 0x1
    2614:	e5843048 	str	r3, [r4, #72]
    2618:	e5943048 	ldr	r3, [r4, #72]
    261c:	e3530000 	cmp	r3, #0	; 0x0
    2620:	e1a00005 	mov	r0, r5
    2624:	cafffff2 	bgt	25f4 <prvUnlockQueue+0x14>
    2628:	e3e03000 	mvn	r3, #0	; 0x0
    262c:	e5843048 	str	r3, [r4, #72]
    2630:	ebffffbe 	bl	2530 <vPortExitCritical>
    2634:	e2845010 	add	r5, r4, #16	; 0x10
    2638:	ebffffb1 	bl	2504 <vPortEnterCritical>
    263c:	ea000008 	b	2664 <prvUnlockQueue+0x84>
    2640:	e5943010 	ldr	r3, [r4, #16]
    2644:	e3530000 	cmp	r3, #0	; 0x0
    2648:	0a000009 	beq	2674 <prvUnlockQueue+0x94>
    264c:	eb000255 	bl	2fa8 <xTaskRemoveFromEventList>
    2650:	e3500000 	cmp	r0, #0	; 0x0
    2654:	1b0001e9 	blne	2e00 <vTaskMissedYield>
    2658:	e5943044 	ldr	r3, [r4, #68]
    265c:	e2433001 	sub	r3, r3, #1	; 0x1
    2660:	e5843044 	str	r3, [r4, #68]
    2664:	e5943044 	ldr	r3, [r4, #68]
    2668:	e3530000 	cmp	r3, #0	; 0x0
    266c:	e1a00005 	mov	r0, r5
    2670:	cafffff2 	bgt	2640 <prvUnlockQueue+0x60>
    2674:	e3e03000 	mvn	r3, #0	; 0x0
    2678:	e5843044 	str	r3, [r4, #68]
    267c:	e8bd4030 	pop	{r4, r5, lr}
    2680:	eaffffaa 	b	2530 <vPortExitCritical>

00002684 <vQueueWaitForMessageRestricted>:
    2684:	e92d4030 	push	{r4, r5, lr}
    2688:	e1a04000 	mov	r4, r0
    268c:	e1a05001 	mov	r5, r1
    2690:	ebffff9b 	bl	2504 <vPortEnterCritical>
    2694:	e5943044 	ldr	r3, [r4, #68]
    2698:	e3730001 	cmn	r3, #1	; 0x1
    269c:	02833001 	addeq	r3, r3, #1	; 0x1
    26a0:	05843044 	streq	r3, [r4, #68]
    26a4:	e5943048 	ldr	r3, [r4, #72]
    26a8:	e3730001 	cmn	r3, #1	; 0x1
    26ac:	02833001 	addeq	r3, r3, #1	; 0x1
    26b0:	05843048 	streq	r3, [r4, #72]
    26b4:	ebffff9d 	bl	2530 <vPortExitCritical>
    26b8:	e5943038 	ldr	r3, [r4, #56]
    26bc:	e3530000 	cmp	r3, #0	; 0x0
    26c0:	01a01005 	moveq	r1, r5
    26c4:	02840024 	addeq	r0, r4, #36	; 0x24
    26c8:	0b0003b1 	bleq	3594 <vTaskPlaceOnEventListRestricted>
    26cc:	e1a00004 	mov	r0, r4
    26d0:	e8bd4030 	pop	{r4, r5, lr}
    26d4:	eaffffc1 	b	25e0 <prvUnlockQueue>

000026d8 <vQueueDelete>:
    26d8:	e92d4010 	push	{r4, lr}
    26dc:	e1a04000 	mov	r4, r0
    26e0:	e5900000 	ldr	r0, [r0]
    26e4:	eb0007c8 	bl	460c <vPortFree>
    26e8:	e1a00004 	mov	r0, r4
    26ec:	e8bd4010 	pop	{r4, lr}
    26f0:	ea0007c5 	b	460c <vPortFree>

000026f4 <xQueueReceiveFromISR>:
    26f4:	e92d4070 	push	{r4, r5, r6, lr}
    26f8:	e1a04000 	mov	r4, r0
    26fc:	e5900038 	ldr	r0, [r0, #56]
    2700:	e3500000 	cmp	r0, #0	; 0x0
    2704:	e1a05001 	mov	r5, r1
    2708:	e1a06002 	mov	r6, r2
    270c:	08bd8070 	popeq	{r4, r5, r6, pc}
    2710:	e594c000 	ldr	ip, [r4]
    2714:	e35c0000 	cmp	ip, #0	; 0x0
    2718:	0a00000a 	beq	2748 <xQueueReceiveFromISR+0x54>
    271c:	e594300c 	ldr	r3, [r4, #12]
    2720:	e5942040 	ldr	r2, [r4, #64]
    2724:	e5941004 	ldr	r1, [r4, #4]
    2728:	e0833002 	add	r3, r3, r2
    272c:	e1530001 	cmp	r3, r1
    2730:	e584300c 	str	r3, [r4, #12]
    2734:	2584c00c 	strcs	ip, [r4, #12]
    2738:	e1a00005 	mov	r0, r5
    273c:	e594100c 	ldr	r1, [r4, #12]
    2740:	e5942040 	ldr	r2, [r4, #64]
    2744:	eb000a56 	bl	50a4 <memcpy>
    2748:	e5942044 	ldr	r2, [r4, #68]
    274c:	e5943038 	ldr	r3, [r4, #56]
    2750:	e3720001 	cmn	r2, #1	; 0x1
    2754:	e2433001 	sub	r3, r3, #1	; 0x1
    2758:	e5843038 	str	r3, [r4, #56]
    275c:	12823001 	addne	r3, r2, #1	; 0x1
    2760:	15843044 	strne	r3, [r4, #68]
    2764:	13a00001 	movne	r0, #1	; 0x1
    2768:	18bd8070 	popne	{r4, r5, r6, pc}
    276c:	e5943010 	ldr	r3, [r4, #16]
    2770:	e3530000 	cmp	r3, #0	; 0x0
    2774:	0a000006 	beq	2794 <xQueueReceiveFromISR+0xa0>
    2778:	e2840010 	add	r0, r4, #16	; 0x10
    277c:	eb000209 	bl	2fa8 <xTaskRemoveFromEventList>
    2780:	e3500000 	cmp	r0, #0	; 0x0
    2784:	13a03001 	movne	r3, #1	; 0x1
    2788:	15863000 	strne	r3, [r6]
    278c:	11a00003 	movne	r0, r3
    2790:	18bd8070 	popne	{r4, r5, r6, pc}
    2794:	e3a00001 	mov	r0, #1	; 0x1
    2798:	e8bd8070 	pop	{r4, r5, r6, pc}

0000279c <xQueueGenericReceive>:
    279c:	e92d4ff0 	push	{r4, r5, r6, r7, r8, r9, sl, fp, lr}
    27a0:	e3a06000 	mov	r6, #0	; 0x0
    27a4:	e24dd00c 	sub	sp, sp, #12	; 0xc
    27a8:	e1a05000 	mov	r5, r0
    27ac:	e58d2000 	str	r2, [sp]
    27b0:	e1a08001 	mov	r8, r1
    27b4:	e1a0a003 	mov	sl, r3
    27b8:	e2807024 	add	r7, r0, #36	; 0x24
    27bc:	e28db004 	add	fp, sp, #4	; 0x4
    27c0:	e1a09006 	mov	r9, r6
    27c4:	ea000000 	b	27cc <xQueueGenericReceive+0x30>
    27c8:	e3a06001 	mov	r6, #1	; 0x1
    27cc:	ebffff4c 	bl	2504 <vPortEnterCritical>
    27d0:	e5953038 	ldr	r3, [r5, #56]
    27d4:	e3530000 	cmp	r3, #0	; 0x0
    27d8:	0a00002c 	beq	2890 <xQueueGenericReceive+0xf4>
    27dc:	e5951000 	ldr	r1, [r5]
    27e0:	e3510000 	cmp	r1, #0	; 0x0
    27e4:	e595400c 	ldr	r4, [r5, #12]
    27e8:	0a000009 	beq	2814 <xQueueGenericReceive+0x78>
    27ec:	e5953040 	ldr	r3, [r5, #64]
    27f0:	e5952004 	ldr	r2, [r5, #4]
    27f4:	e0843003 	add	r3, r4, r3
    27f8:	e1530002 	cmp	r3, r2
    27fc:	e585300c 	str	r3, [r5, #12]
    2800:	2585100c 	strcs	r1, [r5, #12]
    2804:	e1a00008 	mov	r0, r8
    2808:	e595100c 	ldr	r1, [r5, #12]
    280c:	e5952040 	ldr	r2, [r5, #64]
    2810:	eb000a23 	bl	50a4 <memcpy>
    2814:	e35a0000 	cmp	sl, #0	; 0x0
    2818:	1a000010 	bne	2860 <xQueueGenericReceive+0xc4>
    281c:	e5953038 	ldr	r3, [r5, #56]
    2820:	e5952000 	ldr	r2, [r5]
    2824:	e2433001 	sub	r3, r3, #1	; 0x1
    2828:	e3520000 	cmp	r2, #0	; 0x0
    282c:	e5853038 	str	r3, [r5, #56]
    2830:	1a000001 	bne	283c <xQueueGenericReceive+0xa0>
    2834:	eb000189 	bl	2e60 <xTaskGetCurrentTaskHandle>
    2838:	e5850004 	str	r0, [r5, #4]
    283c:	e5953010 	ldr	r3, [r5, #16]
    2840:	e3530000 	cmp	r3, #0	; 0x0
    2844:	0a00000e 	beq	2884 <xQueueGenericReceive+0xe8>
    2848:	e2850010 	add	r0, r5, #16	; 0x10
    284c:	eb0001d5 	bl	2fa8 <xTaskRemoveFromEventList>
    2850:	e3500001 	cmp	r0, #1	; 0x1
    2854:	1a00000a 	bne	2884 <xQueueGenericReceive+0xe8>
    2858:	ef000000 	svc	0x00000000
    285c:	ea000008 	b	2884 <xQueueGenericReceive+0xe8>
    2860:	e5953024 	ldr	r3, [r5, #36]
    2864:	e3530000 	cmp	r3, #0	; 0x0
    2868:	e585400c 	str	r4, [r5, #12]
    286c:	0a000004 	beq	2884 <xQueueGenericReceive+0xe8>
    2870:	e1a00007 	mov	r0, r7
    2874:	eb0001cb 	bl	2fa8 <xTaskRemoveFromEventList>
    2878:	e3500000 	cmp	r0, #0	; 0x0
    287c:	0a000000 	beq	2884 <xQueueGenericReceive+0xe8>
    2880:	ef000000 	svc	0x00000000
    2884:	ebffff29 	bl	2530 <vPortExitCritical>
    2888:	e3a00001 	mov	r0, #1	; 0x1
    288c:	ea000035 	b	2968 <xQueueGenericReceive+0x1cc>
    2890:	e59d4000 	ldr	r4, [sp]
    2894:	e3540000 	cmp	r4, #0	; 0x0
    2898:	1a000002 	bne	28a8 <xQueueGenericReceive+0x10c>
    289c:	ebffff23 	bl	2530 <vPortExitCritical>
    28a0:	e1a00004 	mov	r0, r4
    28a4:	ea00002f 	b	2968 <xQueueGenericReceive+0x1cc>
    28a8:	e3560000 	cmp	r6, #0	; 0x0
    28ac:	01a0000b 	moveq	r0, fp
    28b0:	0b00014a 	bleq	2de0 <vTaskSetTimeOutState>
    28b4:	ebffff1d 	bl	2530 <vPortExitCritical>
    28b8:	eb00011d 	bl	2d34 <vTaskSuspendAll>
    28bc:	ebffff10 	bl	2504 <vPortEnterCritical>
    28c0:	e5953044 	ldr	r3, [r5, #68]
    28c4:	e3730001 	cmn	r3, #1	; 0x1
    28c8:	e5953048 	ldr	r3, [r5, #72]
    28cc:	05859044 	streq	r9, [r5, #68]
    28d0:	e3730001 	cmn	r3, #1	; 0x1
    28d4:	05859048 	streq	r9, [r5, #72]
    28d8:	ebffff14 	bl	2530 <vPortExitCritical>
    28dc:	e1a0000b 	mov	r0, fp
    28e0:	e1a0100d 	mov	r1, sp
    28e4:	eb00025e 	bl	3264 <xTaskCheckForTimeOut>
    28e8:	e3500000 	cmp	r0, #0	; 0x0
    28ec:	1a000019 	bne	2958 <xQueueGenericReceive+0x1bc>
    28f0:	ebffff03 	bl	2504 <vPortEnterCritical>
    28f4:	e5954038 	ldr	r4, [r5, #56]
    28f8:	ebffff0c 	bl	2530 <vPortExitCritical>
    28fc:	e3540000 	cmp	r4, #0	; 0x0
    2900:	1a000010 	bne	2948 <xQueueGenericReceive+0x1ac>
    2904:	e5953000 	ldr	r3, [r5]
    2908:	e3530000 	cmp	r3, #0	; 0x0
    290c:	1a000003 	bne	2920 <xQueueGenericReceive+0x184>
    2910:	ebfffefb 	bl	2504 <vPortEnterCritical>
    2914:	e5950004 	ldr	r0, [r5, #4]
    2918:	eb00017a 	bl	2f08 <vTaskPriorityInherit>
    291c:	ebffff03 	bl	2530 <vPortExitCritical>
    2920:	e59d1000 	ldr	r1, [sp]
    2924:	e1a00007 	mov	r0, r7
    2928:	eb000367 	bl	36cc <vTaskPlaceOnEventList>
    292c:	e1a00005 	mov	r0, r5
    2930:	ebffff2a 	bl	25e0 <prvUnlockQueue>
    2934:	eb000279 	bl	3320 <xTaskResumeAll>
    2938:	e3500000 	cmp	r0, #0	; 0x0
    293c:	1affffa1 	bne	27c8 <xQueueGenericReceive+0x2c>
    2940:	ef000000 	svc	0x00000000
    2944:	eaffff9f 	b	27c8 <xQueueGenericReceive+0x2c>
    2948:	e1a00005 	mov	r0, r5
    294c:	ebffff23 	bl	25e0 <prvUnlockQueue>
    2950:	eb000272 	bl	3320 <xTaskResumeAll>
    2954:	eaffff9b 	b	27c8 <xQueueGenericReceive+0x2c>
    2958:	e1a00005 	mov	r0, r5
    295c:	ebffff1f 	bl	25e0 <prvUnlockQueue>
    2960:	eb00026e 	bl	3320 <xTaskResumeAll>
    2964:	e3a00000 	mov	r0, #0	; 0x0
    2968:	e28dd00c 	add	sp, sp, #12	; 0xc
    296c:	e8bd8ff0 	pop	{r4, r5, r6, r7, r8, r9, sl, fp, pc}

00002970 <prvCopyDataToQueue>:
    2970:	e5903040 	ldr	r3, [r0, #64]
    2974:	e3530000 	cmp	r3, #0	; 0x0
    2978:	e92d4030 	push	{r4, r5, lr}
    297c:	e1a04000 	mov	r4, r0
    2980:	1a000006 	bne	29a0 <prvCopyDataToQueue+0x30>
    2984:	e5905000 	ldr	r5, [r0]
    2988:	e3550000 	cmp	r5, #0	; 0x0
    298c:	1a00001e 	bne	2a0c <prvCopyDataToQueue+0x9c>
    2990:	e5900004 	ldr	r0, [r0, #4]
    2994:	eb000141 	bl	2ea0 <vTaskPriorityDisinherit>
    2998:	e5845004 	str	r5, [r4, #4]
    299c:	ea00001a 	b	2a0c <prvCopyDataToQueue+0x9c>
    29a0:	e3520000 	cmp	r2, #0	; 0x0
    29a4:	1a00000b 	bne	29d8 <prvCopyDataToQueue+0x68>
    29a8:	e1a02003 	mov	r2, r3
    29ac:	e5900008 	ldr	r0, [r0, #8]
    29b0:	eb0009bb 	bl	50a4 <memcpy>
    29b4:	e5943008 	ldr	r3, [r4, #8]
    29b8:	e5942040 	ldr	r2, [r4, #64]
    29bc:	e5941004 	ldr	r1, [r4, #4]
    29c0:	e0833002 	add	r3, r3, r2
    29c4:	e1530001 	cmp	r3, r1
    29c8:	e5843008 	str	r3, [r4, #8]
    29cc:	25943000 	ldrcs	r3, [r4]
    29d0:	25843008 	strcs	r3, [r4, #8]
    29d4:	ea00000c 	b	2a0c <prvCopyDataToQueue+0x9c>
    29d8:	e1a02003 	mov	r2, r3
    29dc:	e590000c 	ldr	r0, [r0, #12]
    29e0:	eb0009af 	bl	50a4 <memcpy>
    29e4:	e5943040 	ldr	r3, [r4, #64]
    29e8:	e594200c 	ldr	r2, [r4, #12]
    29ec:	e2631000 	rsb	r1, r3, #0	; 0x0
    29f0:	e5943000 	ldr	r3, [r4]
    29f4:	e0822001 	add	r2, r2, r1
    29f8:	e1520003 	cmp	r2, r3
    29fc:	35943004 	ldrcc	r3, [r4, #4]
    2a00:	30833001 	addcc	r3, r3, r1
    2a04:	e584200c 	str	r2, [r4, #12]
    2a08:	3584300c 	strcc	r3, [r4, #12]
    2a0c:	e5943038 	ldr	r3, [r4, #56]
    2a10:	e2833001 	add	r3, r3, #1	; 0x1
    2a14:	e5843038 	str	r3, [r4, #56]
    2a18:	e8bd8030 	pop	{r4, r5, pc}

00002a1c <xQueueGenericSendFromISR>:
    2a1c:	e92d4030 	push	{r4, r5, lr}
    2a20:	e590c03c 	ldr	ip, [r0, #60]
    2a24:	e5904038 	ldr	r4, [r0, #56]
    2a28:	e154000c 	cmp	r4, ip
    2a2c:	e1a05000 	mov	r5, r0
    2a30:	e1a04002 	mov	r4, r2
    2a34:	23a00000 	movcs	r0, #0	; 0x0
    2a38:	e1a02003 	mov	r2, r3
    2a3c:	28bd8030 	popcs	{r4, r5, pc}
    2a40:	ebffffca 	bl	2970 <prvCopyDataToQueue>
    2a44:	e5953048 	ldr	r3, [r5, #72]
    2a48:	e3730001 	cmn	r3, #1	; 0x1
    2a4c:	12833001 	addne	r3, r3, #1	; 0x1
    2a50:	15853048 	strne	r3, [r5, #72]
    2a54:	13a00001 	movne	r0, #1	; 0x1
    2a58:	18bd8030 	popne	{r4, r5, pc}
    2a5c:	e5953024 	ldr	r3, [r5, #36]
    2a60:	e3530000 	cmp	r3, #0	; 0x0
    2a64:	0a000006 	beq	2a84 <xQueueGenericSendFromISR+0x68>
    2a68:	e2850024 	add	r0, r5, #36	; 0x24
    2a6c:	eb00014d 	bl	2fa8 <xTaskRemoveFromEventList>
    2a70:	e3500000 	cmp	r0, #0	; 0x0
    2a74:	13a03001 	movne	r3, #1	; 0x1
    2a78:	15843000 	strne	r3, [r4]
    2a7c:	11a00003 	movne	r0, r3
    2a80:	18bd8030 	popne	{r4, r5, pc}
    2a84:	e3a00001 	mov	r0, #1	; 0x1
    2a88:	e8bd8030 	pop	{r4, r5, pc}

00002a8c <xQueueGenericSend>:
    2a8c:	e92d4ff0 	push	{r4, r5, r6, r7, r8, r9, sl, fp, lr}
    2a90:	e3a05000 	mov	r5, #0	; 0x0
    2a94:	e24dd00c 	sub	sp, sp, #12	; 0xc
    2a98:	e1a06000 	mov	r6, r0
    2a9c:	e58d2000 	str	r2, [sp]
    2aa0:	e1a08001 	mov	r8, r1
    2aa4:	e1a0a003 	mov	sl, r3
    2aa8:	e2807010 	add	r7, r0, #16	; 0x10
    2aac:	e28db004 	add	fp, sp, #4	; 0x4
    2ab0:	e1a09005 	mov	r9, r5
    2ab4:	ea000000 	b	2abc <xQueueGenericSend+0x30>
    2ab8:	e3a05001 	mov	r5, #1	; 0x1
    2abc:	ebfffe90 	bl	2504 <vPortEnterCritical>
    2ac0:	e5962038 	ldr	r2, [r6, #56]
    2ac4:	e596303c 	ldr	r3, [r6, #60]
    2ac8:	e1520003 	cmp	r2, r3
    2acc:	2a00000e 	bcs	2b0c <xQueueGenericSend+0x80>
    2ad0:	e1a01008 	mov	r1, r8
    2ad4:	e1a0200a 	mov	r2, sl
    2ad8:	e1a00006 	mov	r0, r6
    2adc:	ebffffa3 	bl	2970 <prvCopyDataToQueue>
    2ae0:	e5963024 	ldr	r3, [r6, #36]
    2ae4:	e3530000 	cmp	r3, #0	; 0x0
    2ae8:	0a000004 	beq	2b00 <xQueueGenericSend+0x74>
    2aec:	e2860024 	add	r0, r6, #36	; 0x24
    2af0:	eb00012c 	bl	2fa8 <xTaskRemoveFromEventList>
    2af4:	e3500001 	cmp	r0, #1	; 0x1
    2af8:	1a000000 	bne	2b00 <xQueueGenericSend+0x74>
    2afc:	ef000000 	svc	0x00000000
    2b00:	ebfffe8a 	bl	2530 <vPortExitCritical>
    2b04:	e3a00001 	mov	r0, #1	; 0x1
    2b08:	ea00002f 	b	2bcc <xQueueGenericSend+0x140>
    2b0c:	e59d4000 	ldr	r4, [sp]
    2b10:	e3540000 	cmp	r4, #0	; 0x0
    2b14:	1a000002 	bne	2b24 <xQueueGenericSend+0x98>
    2b18:	ebfffe84 	bl	2530 <vPortExitCritical>
    2b1c:	e1a00004 	mov	r0, r4
    2b20:	ea000029 	b	2bcc <xQueueGenericSend+0x140>
    2b24:	e3550000 	cmp	r5, #0	; 0x0
    2b28:	01a0000b 	moveq	r0, fp
    2b2c:	0b0000ab 	bleq	2de0 <vTaskSetTimeOutState>
    2b30:	ebfffe7e 	bl	2530 <vPortExitCritical>
    2b34:	eb00007e 	bl	2d34 <vTaskSuspendAll>
    2b38:	ebfffe71 	bl	2504 <vPortEnterCritical>
    2b3c:	e5963044 	ldr	r3, [r6, #68]
    2b40:	e3730001 	cmn	r3, #1	; 0x1
    2b44:	e5963048 	ldr	r3, [r6, #72]
    2b48:	05869044 	streq	r9, [r6, #68]
    2b4c:	e3730001 	cmn	r3, #1	; 0x1
    2b50:	05869048 	streq	r9, [r6, #72]
    2b54:	ebfffe75 	bl	2530 <vPortExitCritical>
    2b58:	e1a0000b 	mov	r0, fp
    2b5c:	e1a0100d 	mov	r1, sp
    2b60:	eb0001bf 	bl	3264 <xTaskCheckForTimeOut>
    2b64:	e3500000 	cmp	r0, #0	; 0x0
    2b68:	1a000013 	bne	2bbc <xQueueGenericSend+0x130>
    2b6c:	ebfffe64 	bl	2504 <vPortEnterCritical>
    2b70:	e5965038 	ldr	r5, [r6, #56]
    2b74:	e596403c 	ldr	r4, [r6, #60]
    2b78:	ebfffe6c 	bl	2530 <vPortExitCritical>
    2b7c:	e1550004 	cmp	r5, r4
    2b80:	1a000009 	bne	2bac <xQueueGenericSend+0x120>
    2b84:	e59d1000 	ldr	r1, [sp]
    2b88:	e1a00007 	mov	r0, r7
    2b8c:	eb0002ce 	bl	36cc <vTaskPlaceOnEventList>
    2b90:	e1a00006 	mov	r0, r6
    2b94:	ebfffe91 	bl	25e0 <prvUnlockQueue>
    2b98:	eb0001e0 	bl	3320 <xTaskResumeAll>
    2b9c:	e3500000 	cmp	r0, #0	; 0x0
    2ba0:	1affffc4 	bne	2ab8 <xQueueGenericSend+0x2c>
    2ba4:	ef000000 	svc	0x00000000
    2ba8:	eaffffc2 	b	2ab8 <xQueueGenericSend+0x2c>
    2bac:	e1a00006 	mov	r0, r6
    2bb0:	ebfffe8a 	bl	25e0 <prvUnlockQueue>
    2bb4:	eb0001d9 	bl	3320 <xTaskResumeAll>
    2bb8:	eaffffbe 	b	2ab8 <xQueueGenericSend+0x2c>
    2bbc:	e1a00006 	mov	r0, r6
    2bc0:	ebfffe86 	bl	25e0 <prvUnlockQueue>
    2bc4:	eb0001d5 	bl	3320 <xTaskResumeAll>
    2bc8:	e3a00000 	mov	r0, #0	; 0x0
    2bcc:	e28dd00c 	add	sp, sp, #12	; 0xc
    2bd0:	e8bd8ff0 	pop	{r4, r5, r6, r7, r8, r9, sl, fp, pc}

00002bd4 <xQueueCreateMutex>:
    2bd4:	e92d4070 	push	{r4, r5, r6, lr}
    2bd8:	e1a03000 	mov	r3, r0
    2bdc:	e3a00050 	mov	r0, #80	; 0x50
    2be0:	e20360ff 	and	r6, r3, #255	; 0xff
    2be4:	eb000690 	bl	462c <pvPortMalloc>
    2be8:	e2505000 	subs	r5, r0, #0	; 0x0
    2bec:	0a000015 	beq	2c48 <xQueueCreateMutex+0x74>
    2bf0:	e3a04000 	mov	r4, #0	; 0x0
    2bf4:	e3e02000 	mvn	r2, #0	; 0x0
    2bf8:	e3a03001 	mov	r3, #1	; 0x1
    2bfc:	e585303c 	str	r3, [r5, #60]
    2c00:	e5852048 	str	r2, [r5, #72]
    2c04:	e5852044 	str	r2, [r5, #68]
    2c08:	e2850010 	add	r0, r5, #16	; 0x10
    2c0c:	e5c5604d 	strb	r6, [r5, #77]
    2c10:	e5854004 	str	r4, [r5, #4]
    2c14:	e5854000 	str	r4, [r5]
    2c18:	e5854008 	str	r4, [r5, #8]
    2c1c:	e585400c 	str	r4, [r5, #12]
    2c20:	e5854038 	str	r4, [r5, #56]
    2c24:	e5854040 	str	r4, [r5, #64]
    2c28:	ebfffd1c 	bl	20a0 <vListInitialise>
    2c2c:	e2850024 	add	r0, r5, #36	; 0x24
    2c30:	ebfffd1a 	bl	20a0 <vListInitialise>
    2c34:	e1a00005 	mov	r0, r5
    2c38:	e1a01004 	mov	r1, r4
    2c3c:	e1a02004 	mov	r2, r4
    2c40:	e1a03004 	mov	r3, r4
    2c44:	ebffff90 	bl	2a8c <xQueueGenericSend>
    2c48:	e1a00005 	mov	r0, r5
    2c4c:	e8bd8070 	pop	{r4, r5, r6, pc}

00002c50 <xQueueGenericCreate>:
    2c50:	e92d45f0 	push	{r4, r5, r6, r7, r8, sl, lr}
    2c54:	e2506000 	subs	r6, r0, #0	; 0x0
    2c58:	e1a07001 	mov	r7, r1
    2c5c:	e202a0ff 	and	sl, r2, #255	; 0xff
    2c60:	0a000022 	beq	2cf0 <xQueueGenericCreate+0xa0>
    2c64:	e3a00050 	mov	r0, #80	; 0x50
    2c68:	eb00066f 	bl	462c <pvPortMalloc>
    2c6c:	e2504000 	subs	r4, r0, #0	; 0x0
    2c70:	0a00001e 	beq	2cf0 <xQueueGenericCreate+0xa0>
    2c74:	e0080796 	mul	r8, r6, r7
    2c78:	e2880001 	add	r0, r8, #1	; 0x1
    2c7c:	eb00066a 	bl	462c <pvPortMalloc>
    2c80:	e3500000 	cmp	r0, #0	; 0x0
    2c84:	e1a05000 	mov	r5, r0
    2c88:	e5840000 	str	r0, [r4]
    2c8c:	0a000013 	beq	2ce0 <xQueueGenericCreate+0x90>
    2c90:	e2463001 	sub	r3, r6, #1	; 0x1
    2c94:	e0220397 	mla	r2, r7, r3, r0
    2c98:	e0803008 	add	r3, r0, r8
    2c9c:	e3e01000 	mvn	r1, #0	; 0x0
    2ca0:	e5843004 	str	r3, [r4, #4]
    2ca4:	e3a03000 	mov	r3, #0	; 0x0
    2ca8:	e5843038 	str	r3, [r4, #56]
    2cac:	e584200c 	str	r2, [r4, #12]
    2cb0:	e5841048 	str	r1, [r4, #72]
    2cb4:	e5840008 	str	r0, [r4, #8]
    2cb8:	e5841044 	str	r1, [r4, #68]
    2cbc:	e2840010 	add	r0, r4, #16	; 0x10
    2cc0:	e584603c 	str	r6, [r4, #60]
    2cc4:	e5847040 	str	r7, [r4, #64]
    2cc8:	e5c4a04d 	strb	sl, [r4, #77]
    2ccc:	ebfffcf3 	bl	20a0 <vListInitialise>
    2cd0:	e2840024 	add	r0, r4, #36	; 0x24
    2cd4:	ebfffcf1 	bl	20a0 <vListInitialise>
    2cd8:	e1a00004 	mov	r0, r4
    2cdc:	e8bd85f0 	pop	{r4, r5, r6, r7, r8, sl, pc}
    2ce0:	e1a00004 	mov	r0, r4
    2ce4:	eb000648 	bl	460c <vPortFree>
    2ce8:	e1a00005 	mov	r0, r5
    2cec:	e8bd85f0 	pop	{r4, r5, r6, r7, r8, sl, pc}
    2cf0:	e3a00000 	mov	r0, #0	; 0x0
    2cf4:	e8bd85f0 	pop	{r4, r5, r6, r7, r8, sl, pc}

00002cf8 <xTaskIsTaskSuspended>:
    2cf8:	e5902014 	ldr	r2, [r0, #20]
    2cfc:	e59f3028 	ldr	r3, [pc, #40]	; 2d2c <xTaskIsTaskSuspended+0x34>
    2d00:	e1520003 	cmp	r2, r3
    2d04:	1a000006 	bne	2d24 <xTaskIsTaskSuspended+0x2c>
    2d08:	e5900028 	ldr	r0, [r0, #40]
    2d0c:	e59f301c 	ldr	r3, [pc, #28]	; 2d30 <xTaskIsTaskSuspended+0x38>
    2d10:	e1500003 	cmp	r0, r3
    2d14:	0a000002 	beq	2d24 <xTaskIsTaskSuspended+0x2c>
    2d18:	e2700001 	rsbs	r0, r0, #1	; 0x1
    2d1c:	33a00000 	movcc	r0, #0	; 0x0
    2d20:	e12fff1e 	bx	lr
    2d24:	e3a00000 	mov	r0, #0	; 0x0
    2d28:	e12fff1e 	bx	lr
    2d2c:	40000930 	.word	0x40000930
    2d30:	4000091c 	.word	0x4000091c

00002d34 <vTaskSuspendAll>:
    2d34:	e59f200c 	ldr	r2, [pc, #12]	; 2d48 <vTaskSuspendAll+0x14>
    2d38:	e5923000 	ldr	r3, [r2]
    2d3c:	e2833001 	add	r3, r3, #1	; 0x1
    2d40:	e5823000 	str	r3, [r2]
    2d44:	e12fff1e 	bx	lr
    2d48:	40000878 	.word	0x40000878

00002d4c <xTaskGetTickCountFromISR>:
    2d4c:	e59f3004 	ldr	r3, [pc, #4]	; 2d58 <xTaskGetTickCountFromISR+0xc>
    2d50:	e5930000 	ldr	r0, [r3]
    2d54:	e12fff1e 	bx	lr
    2d58:	40000884 	.word	0x40000884

00002d5c <uxTaskGetNumberOfTasks>:
    2d5c:	e59f3004 	ldr	r3, [pc, #4]	; 2d68 <uxTaskGetNumberOfTasks+0xc>
    2d60:	e5930000 	ldr	r0, [r3]
    2d64:	e12fff1e 	bx	lr
    2d68:	40000894 	.word	0x40000894

00002d6c <runTimeStatISREntry>:
    2d6c:	e59f3028 	ldr	r3, [pc, #40]	; 2d9c <runTimeStatISREntry+0x30>
    2d70:	e593c008 	ldr	ip, [r3, #8]
    2d74:	e59f3024 	ldr	r3, [pc, #36]	; 2da0 <runTimeStatISREntry+0x34>
    2d78:	e5931000 	ldr	r1, [r3]
    2d7c:	e59f0020 	ldr	r0, [pc, #32]	; 2da4 <runTimeStatISREntry+0x38>
    2d80:	e5913048 	ldr	r3, [r1, #72]
    2d84:	e5902000 	ldr	r2, [r0]
    2d88:	e08c3003 	add	r3, ip, r3
    2d8c:	e0623003 	rsb	r3, r2, r3
    2d90:	e5813048 	str	r3, [r1, #72]
    2d94:	e580c000 	str	ip, [r0]
    2d98:	e12fff1e 	bx	lr
    2d9c:	e0008000 	.word	0xe0008000
    2da0:	40000868 	.word	0x40000868
    2da4:	40000888 	.word	0x40000888

00002da8 <runTimeStatISRExit>:
    2da8:	e59f0024 	ldr	r0, [pc, #36]	; 2dd4 <runTimeStatISRExit+0x2c>
    2dac:	e59f3024 	ldr	r3, [pc, #36]	; 2dd8 <runTimeStatISRExit+0x30>
    2db0:	e59fc024 	ldr	ip, [pc, #36]	; 2ddc <runTimeStatISRExit+0x34>
    2db4:	e5931008 	ldr	r1, [r3, #8]
    2db8:	e5903000 	ldr	r3, [r0]
    2dbc:	e59c2000 	ldr	r2, [ip]
    2dc0:	e0813003 	add	r3, r1, r3
    2dc4:	e0623003 	rsb	r3, r2, r3
    2dc8:	e5803000 	str	r3, [r0]
    2dcc:	e58c1000 	str	r1, [ip]
    2dd0:	e12fff1e 	bx	lr
    2dd4:	4000086c 	.word	0x4000086c
    2dd8:	e0008000 	.word	0xe0008000
    2ddc:	40000888 	.word	0x40000888

00002de0 <vTaskSetTimeOutState>:
    2de0:	e59f3010 	ldr	r3, [pc, #16]	; 2df8 <vTaskSetTimeOutState+0x18>
    2de4:	e5932000 	ldr	r2, [r3]
    2de8:	e59f300c 	ldr	r3, [pc, #12]	; 2dfc <vTaskSetTimeOutState+0x1c>
    2dec:	e5933000 	ldr	r3, [r3]
    2df0:	e880000c 	stm	r0, {r2, r3}
    2df4:	e12fff1e 	bx	lr
    2df8:	40000880 	.word	0x40000880
    2dfc:	40000884 	.word	0x40000884

00002e00 <vTaskMissedYield>:
    2e00:	e59f3008 	ldr	r3, [pc, #8]	; 2e10 <vTaskMissedYield+0x10>
    2e04:	e3a02001 	mov	r2, #1	; 0x1
    2e08:	e5832000 	str	r2, [r3]
    2e0c:	e12fff1e 	bx	lr
    2e10:	4000087c 	.word	0x4000087c

00002e14 <uxTaskGetTaskNumber>:
    2e14:	e3500000 	cmp	r0, #0	; 0x0
    2e18:	15900040 	ldrne	r0, [r0, #64]
    2e1c:	e12fff1e 	bx	lr

00002e20 <vTaskSetTaskNumber>:
    2e20:	e3500000 	cmp	r0, #0	; 0x0
    2e24:	15801040 	strne	r1, [r0, #64]
    2e28:	e12fff1e 	bx	lr

00002e2c <uxTaskGetStackHighWaterMark>:
    2e2c:	e3500000 	cmp	r0, #0	; 0x0
    2e30:	059f3024 	ldreq	r3, [pc, #36]	; 2e5c <uxTaskGetStackHighWaterMark+0x30>
    2e34:	05930000 	ldreq	r0, [r3]
    2e38:	e5901030 	ldr	r1, [r0, #48]
    2e3c:	e3a02000 	mov	r2, #0	; 0x0
    2e40:	e7d13002 	ldrb	r3, [r1, r2]
    2e44:	e35300a5 	cmp	r3, #165	; 0xa5
    2e48:	e1a03802 	lsl	r3, r2, #16
    2e4c:	e1a00823 	lsr	r0, r3, #16
    2e50:	e2822001 	add	r2, r2, #1	; 0x1
    2e54:	0afffff9 	beq	2e40 <uxTaskGetStackHighWaterMark+0x14>
    2e58:	e12fff1e 	bx	lr
    2e5c:	40000868 	.word	0x40000868

00002e60 <xTaskGetCurrentTaskHandle>:
    2e60:	e59f3004 	ldr	r3, [pc, #4]	; 2e6c <xTaskGetCurrentTaskHandle+0xc>
    2e64:	e5930000 	ldr	r0, [r3]
    2e68:	e12fff1e 	bx	lr
    2e6c:	40000868 	.word	0x40000868

00002e70 <xTaskGetSchedulerState>:
    2e70:	e59f3020 	ldr	r3, [pc, #32]	; 2e98 <xTaskGetSchedulerState+0x28>
    2e74:	e5930000 	ldr	r0, [r3]
    2e78:	e3500000 	cmp	r0, #0	; 0x0
    2e7c:	012fff1e 	bxeq	lr
    2e80:	e59f3014 	ldr	r3, [pc, #20]	; 2e9c <xTaskGetSchedulerState+0x2c>
    2e84:	e5933000 	ldr	r3, [r3]
    2e88:	e3530000 	cmp	r3, #0	; 0x0
    2e8c:	03a00001 	moveq	r0, #1	; 0x1
    2e90:	13a00002 	movne	r0, #2	; 0x2
    2e94:	e12fff1e 	bx	lr
    2e98:	40000874 	.word	0x40000874
    2e9c:	40000878 	.word	0x40000878

00002ea0 <vTaskPriorityDisinherit>:
    2ea0:	e92d4030 	push	{r4, r5, lr}
    2ea4:	e2504000 	subs	r4, r0, #0	; 0x0
    2ea8:	08bd8030 	popeq	{r4, r5, pc}
    2eac:	e594202c 	ldr	r2, [r4, #44]
    2eb0:	e5943044 	ldr	r3, [r4, #68]
    2eb4:	e1520003 	cmp	r2, r3
    2eb8:	08bd8030 	popeq	{r4, r5, pc}
    2ebc:	e2845004 	add	r5, r4, #4	; 0x4
    2ec0:	e1a00005 	mov	r0, r5
    2ec4:	ebfffca3 	bl	2158 <vListRemove>
    2ec8:	e59f2030 	ldr	r2, [pc, #48]	; 2f00 <vTaskPriorityDisinherit+0x60>
    2ecc:	e5941044 	ldr	r1, [r4, #68]
    2ed0:	e5923000 	ldr	r3, [r2]
    2ed4:	e1510003 	cmp	r1, r3
    2ed8:	e2613004 	rsb	r3, r1, #4	; 0x4
    2edc:	e5843018 	str	r3, [r4, #24]
    2ee0:	e584102c 	str	r1, [r4, #44]
    2ee4:	85821000 	strhi	r1, [r2]
    2ee8:	e59f2014 	ldr	r2, [pc, #20]	; 2f04 <vTaskPriorityDisinherit+0x64>
    2eec:	e3a03014 	mov	r3, #20	; 0x14
    2ef0:	e0202193 	mla	r0, r3, r1, r2
    2ef4:	e1a01005 	mov	r1, r5
    2ef8:	e8bd4030 	pop	{r4, r5, lr}
    2efc:	eafffc73 	b	20d0 <vListInsertEnd>
    2f00:	40000870 	.word	0x40000870
    2f04:	4000089c 	.word	0x4000089c

00002f08 <vTaskPriorityInherit>:
    2f08:	e92d4070 	push	{r4, r5, r6, lr}
    2f0c:	e59f5088 	ldr	r5, [pc, #136]	; 2f9c <vTaskPriorityInherit+0x94>
    2f10:	e5953000 	ldr	r3, [r5]
    2f14:	e1a04000 	mov	r4, r0
    2f18:	e593302c 	ldr	r3, [r3, #44]
    2f1c:	e590002c 	ldr	r0, [r0, #44]
    2f20:	e1500003 	cmp	r0, r3
    2f24:	28bd8070 	popcs	{r4, r5, r6, pc}
    2f28:	e59f2070 	ldr	r2, [pc, #112]	; 2fa0 <vTaskPriorityInherit+0x98>
    2f2c:	e3a03014 	mov	r3, #20	; 0x14
    2f30:	e0212093 	mla	r1, r3, r0, r2
    2f34:	e5953000 	ldr	r3, [r5]
    2f38:	e5942014 	ldr	r2, [r4, #20]
    2f3c:	e593302c 	ldr	r3, [r3, #44]
    2f40:	e1520001 	cmp	r2, r1
    2f44:	e2633004 	rsb	r3, r3, #4	; 0x4
    2f48:	e5843018 	str	r3, [r4, #24]
    2f4c:	15953000 	ldrne	r3, [r5]
    2f50:	1593302c 	ldrne	r3, [r3, #44]
    2f54:	1584302c 	strne	r3, [r4, #44]
    2f58:	18bd8070 	popne	{r4, r5, r6, pc}
    2f5c:	e2846004 	add	r6, r4, #4	; 0x4
    2f60:	e1a00006 	mov	r0, r6
    2f64:	ebfffc7b 	bl	2158 <vListRemove>
    2f68:	e5953000 	ldr	r3, [r5]
    2f6c:	e59f2030 	ldr	r2, [pc, #48]	; 2fa4 <vTaskPriorityInherit+0x9c>
    2f70:	e593102c 	ldr	r1, [r3, #44]
    2f74:	e5923000 	ldr	r3, [r2]
    2f78:	e1510003 	cmp	r1, r3
    2f7c:	e584102c 	str	r1, [r4, #44]
    2f80:	85821000 	strhi	r1, [r2]
    2f84:	e59f2014 	ldr	r2, [pc, #20]	; 2fa0 <vTaskPriorityInherit+0x98>
    2f88:	e3a03014 	mov	r3, #20	; 0x14
    2f8c:	e0202193 	mla	r0, r3, r1, r2
    2f90:	e1a01006 	mov	r1, r6
    2f94:	e8bd4070 	pop	{r4, r5, r6, lr}
    2f98:	eafffc4c 	b	20d0 <vListInsertEnd>
    2f9c:	40000868 	.word	0x40000868
    2fa0:	4000089c 	.word	0x4000089c
    2fa4:	40000870 	.word	0x40000870

00002fa8 <xTaskRemoveFromEventList>:
    2fa8:	e590300c 	ldr	r3, [r0, #12]
    2fac:	e92d4030 	push	{r4, r5, lr}
    2fb0:	e593500c 	ldr	r5, [r3, #12]
    2fb4:	e2854018 	add	r4, r5, #24	; 0x18
    2fb8:	e1a00004 	mov	r0, r4
    2fbc:	ebfffc65 	bl	2158 <vListRemove>
    2fc0:	e59f3064 	ldr	r3, [pc, #100]	; 302c <xTaskRemoveFromEventList+0x84>
    2fc4:	e5933000 	ldr	r3, [r3]
    2fc8:	e3530000 	cmp	r3, #0	; 0x0
    2fcc:	11a01004 	movne	r1, r4
    2fd0:	159f0058 	ldrne	r0, [pc, #88]	; 3030 <xTaskRemoveFromEventList+0x88>
    2fd4:	1a00000b 	bne	3008 <xTaskRemoveFromEventList+0x60>
    2fd8:	e2854004 	add	r4, r5, #4	; 0x4
    2fdc:	e1a00004 	mov	r0, r4
    2fe0:	ebfffc5c 	bl	2158 <vListRemove>
    2fe4:	e59f2048 	ldr	r2, [pc, #72]	; 3034 <xTaskRemoveFromEventList+0x8c>
    2fe8:	e595102c 	ldr	r1, [r5, #44]
    2fec:	e5923000 	ldr	r3, [r2]
    2ff0:	e1510003 	cmp	r1, r3
    2ff4:	85821000 	strhi	r1, [r2]
    2ff8:	e59f2038 	ldr	r2, [pc, #56]	; 3038 <xTaskRemoveFromEventList+0x90>
    2ffc:	e3a03014 	mov	r3, #20	; 0x14
    3000:	e0202193 	mla	r0, r3, r1, r2
    3004:	e1a01004 	mov	r1, r4
    3008:	ebfffc30 	bl	20d0 <vListInsertEnd>
    300c:	e59f3028 	ldr	r3, [pc, #40]	; 303c <xTaskRemoveFromEventList+0x94>
    3010:	e5933000 	ldr	r3, [r3]
    3014:	e595202c 	ldr	r2, [r5, #44]
    3018:	e593002c 	ldr	r0, [r3, #44]
    301c:	e1520000 	cmp	r2, r0
    3020:	33a00000 	movcc	r0, #0	; 0x0
    3024:	23a00001 	movcs	r0, #1	; 0x1
    3028:	e8bd8030 	pop	{r4, r5, pc}
    302c:	40000878 	.word	0x40000878
    3030:	4000091c 	.word	0x4000091c
    3034:	40000870 	.word	0x40000870
    3038:	4000089c 	.word	0x4000089c
    303c:	40000868 	.word	0x40000868

00003040 <vTaskIncrementTick>:
    3040:	e59f3130 	ldr	r3, [pc, #304]	; 3178 <vTaskIncrementTick+0x138>
    3044:	e5933000 	ldr	r3, [r3]
    3048:	e3530000 	cmp	r3, #0	; 0x0
    304c:	e92d47f0 	push	{r4, r5, r6, r7, r8, r9, sl, lr}
    3050:	1a000043 	bne	3164 <vTaskIncrementTick+0x124>
    3054:	e59f3120 	ldr	r3, [pc, #288]	; 317c <vTaskIncrementTick+0x13c>
    3058:	e5932000 	ldr	r2, [r3]
    305c:	e2822001 	add	r2, r2, #1	; 0x1
    3060:	e5832000 	str	r2, [r3]
    3064:	e5933000 	ldr	r3, [r3]
    3068:	e3530000 	cmp	r3, #0	; 0x0
    306c:	1a000013 	bne	30c0 <vTaskIncrementTick+0x80>
    3070:	e59f0108 	ldr	r0, [pc, #264]	; 3180 <vTaskIncrementTick+0x140>
    3074:	e59f2108 	ldr	r2, [pc, #264]	; 3184 <vTaskIncrementTick+0x144>
    3078:	e5901000 	ldr	r1, [r0]
    307c:	e5923000 	ldr	r3, [r2]
    3080:	e5803000 	str	r3, [r0]
    3084:	e5821000 	str	r1, [r2]
    3088:	e59f20f8 	ldr	r2, [pc, #248]	; 3188 <vTaskIncrementTick+0x148>
    308c:	e5923000 	ldr	r3, [r2]
    3090:	e2833001 	add	r3, r3, #1	; 0x1
    3094:	e5823000 	str	r3, [r2]
    3098:	e5903000 	ldr	r3, [r0]
    309c:	e5933000 	ldr	r3, [r3]
    30a0:	e3530000 	cmp	r3, #0	; 0x0
    30a4:	15903000 	ldrne	r3, [r0]
    30a8:	1593300c 	ldrne	r3, [r3, #12]
    30ac:	1593300c 	ldrne	r3, [r3, #12]
    30b0:	e59f20d4 	ldr	r2, [pc, #212]	; 318c <vTaskIncrementTick+0x14c>
    30b4:	15933004 	ldrne	r3, [r3, #4]
    30b8:	03e03000 	mvneq	r3, #0	; 0x0
    30bc:	e5823000 	str	r3, [r2]
    30c0:	e59f30c4 	ldr	r3, [pc, #196]	; 318c <vTaskIncrementTick+0x14c>
    30c4:	e59f10b0 	ldr	r1, [pc, #176]	; 317c <vTaskIncrementTick+0x13c>
    30c8:	e5932000 	ldr	r2, [r3]
    30cc:	e5913000 	ldr	r3, [r1]
    30d0:	e1530002 	cmp	r3, r2
    30d4:	38bd87f0 	popcc	{r4, r5, r6, r7, r8, r9, sl, pc}
    30d8:	e59f70a0 	ldr	r7, [pc, #160]	; 3180 <vTaskIncrementTick+0x140>
    30dc:	e59f60ac 	ldr	r6, [pc, #172]	; 3190 <vTaskIncrementTick+0x150>
    30e0:	e59f90ac 	ldr	r9, [pc, #172]	; 3194 <vTaskIncrementTick+0x154>
    30e4:	e1a0a001 	mov	sl, r1
    30e8:	e3a08014 	mov	r8, #20	; 0x14
    30ec:	e5973000 	ldr	r3, [r7]
    30f0:	e5933000 	ldr	r3, [r3]
    30f4:	e3530000 	cmp	r3, #0	; 0x0
    30f8:	03e02000 	mvneq	r2, #0	; 0x0
    30fc:	0a000008 	beq	3124 <vTaskIncrementTick+0xe4>
    3100:	e5973000 	ldr	r3, [r7]
    3104:	e593300c 	ldr	r3, [r3, #12]
    3108:	e593400c 	ldr	r4, [r3, #12]
    310c:	e59a3000 	ldr	r3, [sl]
    3110:	e5942004 	ldr	r2, [r4, #4]
    3114:	e2845004 	add	r5, r4, #4	; 0x4
    3118:	e1530002 	cmp	r3, r2
    311c:	e1a00005 	mov	r0, r5
    3120:	2a000002 	bcs	3130 <vTaskIncrementTick+0xf0>
    3124:	e59f3060 	ldr	r3, [pc, #96]	; 318c <vTaskIncrementTick+0x14c>
    3128:	e5832000 	str	r2, [r3]
    312c:	e8bd87f0 	pop	{r4, r5, r6, r7, r8, r9, sl, pc}
    3130:	ebfffc08 	bl	2158 <vListRemove>
    3134:	e5943028 	ldr	r3, [r4, #40]
    3138:	e3530000 	cmp	r3, #0	; 0x0
    313c:	e2840018 	add	r0, r4, #24	; 0x18
    3140:	1bfffc04 	blne	2158 <vListRemove>
    3144:	e594202c 	ldr	r2, [r4, #44]
    3148:	e5963000 	ldr	r3, [r6]
    314c:	e0209298 	mla	r0, r8, r2, r9
    3150:	e1520003 	cmp	r2, r3
    3154:	e1a01005 	mov	r1, r5
    3158:	85862000 	strhi	r2, [r6]
    315c:	ebfffbdb 	bl	20d0 <vListInsertEnd>
    3160:	eaffffe1 	b	30ec <vTaskIncrementTick+0xac>
    3164:	e59f202c 	ldr	r2, [pc, #44]	; 3198 <vTaskIncrementTick+0x158>
    3168:	e5923000 	ldr	r3, [r2]
    316c:	e2833001 	add	r3, r3, #1	; 0x1
    3170:	e5823000 	str	r3, [r2]
    3174:	e8bd87f0 	pop	{r4, r5, r6, r7, r8, r9, sl, pc}
    3178:	40000878 	.word	0x40000878
    317c:	40000884 	.word	0x40000884
    3180:	40000914 	.word	0x40000914
    3184:	40000918 	.word	0x40000918
    3188:	40000880 	.word	0x40000880
    318c:	40000044 	.word	0x40000044
    3190:	40000870 	.word	0x40000870
    3194:	4000089c 	.word	0x4000089c
    3198:	4000088c 	.word	0x4000088c

0000319c <xTaskResumeFromISR>:
    319c:	e5902014 	ldr	r2, [r0, #20]
    31a0:	e59f30a4 	ldr	r3, [pc, #164]	; 324c <xTaskResumeFromISR+0xb0>
    31a4:	e1520003 	cmp	r2, r3
    31a8:	e92d40f0 	push	{r4, r5, r6, r7, lr}
    31ac:	e1a05000 	mov	r5, r0
    31b0:	1a00001d 	bne	322c <xTaskResumeFromISR+0x90>
    31b4:	e5904028 	ldr	r4, [r0, #40]
    31b8:	e59f0090 	ldr	r0, [pc, #144]	; 3250 <xTaskResumeFromISR+0xb4>
    31bc:	e1540000 	cmp	r4, r0
    31c0:	0a000019 	beq	322c <xTaskResumeFromISR+0x90>
    31c4:	e3540000 	cmp	r4, #0	; 0x0
    31c8:	1a000017 	bne	322c <xTaskResumeFromISR+0x90>
    31cc:	ea000019 	b	3238 <xTaskResumeFromISR+0x9c>
    31d0:	e59f307c 	ldr	r3, [pc, #124]	; 3254 <xTaskResumeFromISR+0xb8>
    31d4:	e2854004 	add	r4, r5, #4	; 0x4
    31d8:	e5933000 	ldr	r3, [r3]
    31dc:	e1a00004 	mov	r0, r4
    31e0:	e593702c 	ldr	r7, [r3, #44]
    31e4:	e595602c 	ldr	r6, [r5, #44]
    31e8:	ebfffbda 	bl	2158 <vListRemove>
    31ec:	e59f2064 	ldr	r2, [pc, #100]	; 3258 <xTaskResumeFromISR+0xbc>
    31f0:	e595102c 	ldr	r1, [r5, #44]
    31f4:	e5923000 	ldr	r3, [r2]
    31f8:	e1510003 	cmp	r1, r3
    31fc:	85821000 	strhi	r1, [r2]
    3200:	e59f2054 	ldr	r2, [pc, #84]	; 325c <xTaskResumeFromISR+0xc0>
    3204:	e3a03014 	mov	r3, #20	; 0x14
    3208:	e0202193 	mla	r0, r3, r1, r2
    320c:	e1a01004 	mov	r1, r4
    3210:	e1560007 	cmp	r6, r7
    3214:	33a04000 	movcc	r4, #0	; 0x0
    3218:	23a04001 	movcs	r4, #1	; 0x1
    321c:	ea000000 	b	3224 <xTaskResumeFromISR+0x88>
    3220:	e2851018 	add	r1, r5, #24	; 0x18
    3224:	ebfffba9 	bl	20d0 <vListInsertEnd>
    3228:	ea000000 	b	3230 <xTaskResumeFromISR+0x94>
    322c:	e3a04000 	mov	r4, #0	; 0x0
    3230:	e1a00004 	mov	r0, r4
    3234:	e8bd80f0 	pop	{r4, r5, r6, r7, pc}
    3238:	e59f3020 	ldr	r3, [pc, #32]	; 3260 <xTaskResumeFromISR+0xc4>
    323c:	e5933000 	ldr	r3, [r3]
    3240:	e3530000 	cmp	r3, #0	; 0x0
    3244:	0affffe1 	beq	31d0 <xTaskResumeFromISR+0x34>
    3248:	eafffff4 	b	3220 <xTaskResumeFromISR+0x84>
    324c:	40000930 	.word	0x40000930
    3250:	4000091c 	.word	0x4000091c
    3254:	40000868 	.word	0x40000868
    3258:	40000870 	.word	0x40000870
    325c:	4000089c 	.word	0x4000089c
    3260:	40000878 	.word	0x40000878

00003264 <xTaskCheckForTimeOut>:
    3264:	e92d4030 	push	{r4, r5, lr}
    3268:	e1a05001 	mov	r5, r1
    326c:	e1a04000 	mov	r4, r0
    3270:	ebfffca3 	bl	2504 <vPortEnterCritical>
    3274:	e5951000 	ldr	r1, [r5]
    3278:	e3710001 	cmn	r1, #1	; 0x1
    327c:	0a000017 	beq	32e0 <xTaskCheckForTimeOut+0x7c>
    3280:	e59f3070 	ldr	r3, [pc, #112]	; 32f8 <xTaskCheckForTimeOut+0x94>
    3284:	e5932000 	ldr	r2, [r3]
    3288:	e5943000 	ldr	r3, [r4]
    328c:	e1520003 	cmp	r2, r3
    3290:	0a000004 	beq	32a8 <xTaskCheckForTimeOut+0x44>
    3294:	e59f3060 	ldr	r3, [pc, #96]	; 32fc <xTaskCheckForTimeOut+0x98>
    3298:	e5932000 	ldr	r2, [r3]
    329c:	e5943004 	ldr	r3, [r4, #4]
    32a0:	e1520003 	cmp	r2, r3
    32a4:	2a00000f 	bcs	32e8 <xTaskCheckForTimeOut+0x84>
    32a8:	e59f004c 	ldr	r0, [pc, #76]	; 32fc <xTaskCheckForTimeOut+0x98>
    32ac:	e5942004 	ldr	r2, [r4, #4]
    32b0:	e5903000 	ldr	r3, [r0]
    32b4:	e0623003 	rsb	r3, r2, r3
    32b8:	e1530001 	cmp	r3, r1
    32bc:	2a000009 	bcs	32e8 <xTaskCheckForTimeOut+0x84>
    32c0:	e5903000 	ldr	r3, [r0]
    32c4:	e0633002 	rsb	r3, r3, r2
    32c8:	e0833001 	add	r3, r3, r1
    32cc:	e5853000 	str	r3, [r5]
    32d0:	e59f3020 	ldr	r3, [pc, #32]	; 32f8 <xTaskCheckForTimeOut+0x94>
    32d4:	e5932000 	ldr	r2, [r3]
    32d8:	e5903000 	ldr	r3, [r0]
    32dc:	e884000c 	stm	r4, {r2, r3}
    32e0:	e3a04000 	mov	r4, #0	; 0x0
    32e4:	ea000000 	b	32ec <xTaskCheckForTimeOut+0x88>
    32e8:	e3a04001 	mov	r4, #1	; 0x1
    32ec:	ebfffc8f 	bl	2530 <vPortExitCritical>
    32f0:	e1a00004 	mov	r0, r4
    32f4:	e8bd8030 	pop	{r4, r5, pc}
    32f8:	40000880 	.word	0x40000880
    32fc:	40000884 	.word	0x40000884

00003300 <xTaskGetTickCount>:
    3300:	e92d4010 	push	{r4, lr}
    3304:	ebfffc7e 	bl	2504 <vPortEnterCritical>
    3308:	e59f300c 	ldr	r3, [pc, #12]	; 331c <xTaskGetTickCount+0x1c>
    330c:	e5934000 	ldr	r4, [r3]
    3310:	ebfffc86 	bl	2530 <vPortExitCritical>
    3314:	e1a00004 	mov	r0, r4
    3318:	e8bd8010 	pop	{r4, pc}
    331c:	40000884 	.word	0x40000884

00003320 <xTaskResumeAll>:
    3320:	e92d4ff0 	push	{r4, r5, r6, r7, r8, r9, sl, fp, lr}
    3324:	ebfffc76 	bl	2504 <vPortEnterCritical>
    3328:	e59f2110 	ldr	r2, [pc, #272]	; 3440 <xTaskResumeAll+0x120>
    332c:	e5923000 	ldr	r3, [r2]
    3330:	e2433001 	sub	r3, r3, #1	; 0x1
    3334:	e5823000 	str	r3, [r2]
    3338:	e5922000 	ldr	r2, [r2]
    333c:	e3520000 	cmp	r2, #0	; 0x0
    3340:	1a00003a 	bne	3430 <xTaskResumeAll+0x110>
    3344:	e59f30f8 	ldr	r3, [pc, #248]	; 3444 <xTaskResumeAll+0x124>
    3348:	e5933000 	ldr	r3, [r3]
    334c:	e3530000 	cmp	r3, #0	; 0x0
    3350:	0a000036 	beq	3430 <xTaskResumeAll+0x110>
    3354:	e1a06002 	mov	r6, r2
    3358:	e59f80e8 	ldr	r8, [pc, #232]	; 3448 <xTaskResumeAll+0x128>
    335c:	e59f70e8 	ldr	r7, [pc, #232]	; 344c <xTaskResumeAll+0x12c>
    3360:	e3a0b014 	mov	fp, #20	; 0x14
    3364:	e59f90e4 	ldr	r9, [pc, #228]	; 3450 <xTaskResumeAll+0x130>
    3368:	e59fa0e4 	ldr	sl, [pc, #228]	; 3454 <xTaskResumeAll+0x134>
    336c:	ea000012 	b	33bc <xTaskResumeAll+0x9c>
    3370:	e598300c 	ldr	r3, [r8, #12]
    3374:	e593500c 	ldr	r5, [r3, #12]
    3378:	e2850018 	add	r0, r5, #24	; 0x18
    337c:	e2854004 	add	r4, r5, #4	; 0x4
    3380:	ebfffb74 	bl	2158 <vListRemove>
    3384:	e1a00004 	mov	r0, r4
    3388:	ebfffb72 	bl	2158 <vListRemove>
    338c:	e595202c 	ldr	r2, [r5, #44]
    3390:	e5973000 	ldr	r3, [r7]
    3394:	e020929b 	mla	r0, fp, r2, r9
    3398:	e1520003 	cmp	r2, r3
    339c:	e1a01004 	mov	r1, r4
    33a0:	85872000 	strhi	r2, [r7]
    33a4:	ebfffb49 	bl	20d0 <vListInsertEnd>
    33a8:	e59a3000 	ldr	r3, [sl]
    33ac:	e595202c 	ldr	r2, [r5, #44]
    33b0:	e593302c 	ldr	r3, [r3, #44]
    33b4:	e1520003 	cmp	r2, r3
    33b8:	23a06001 	movcs	r6, #1	; 0x1
    33bc:	e5983000 	ldr	r3, [r8]
    33c0:	e3530000 	cmp	r3, #0	; 0x0
    33c4:	1affffe9 	bne	3370 <xTaskResumeAll+0x50>
    33c8:	e59f2088 	ldr	r2, [pc, #136]	; 3458 <xTaskResumeAll+0x138>
    33cc:	e5923000 	ldr	r3, [r2]
    33d0:	e3530000 	cmp	r3, #0	; 0x0
    33d4:	11a04002 	movne	r4, r2
    33d8:	1a000004 	bne	33f0 <xTaskResumeAll+0xd0>
    33dc:	ea000007 	b	3400 <xTaskResumeAll+0xe0>
    33e0:	ebffff16 	bl	3040 <vTaskIncrementTick>
    33e4:	e5943000 	ldr	r3, [r4]
    33e8:	e2433001 	sub	r3, r3, #1	; 0x1
    33ec:	e5843000 	str	r3, [r4]
    33f0:	e5943000 	ldr	r3, [r4]
    33f4:	e3530000 	cmp	r3, #0	; 0x0
    33f8:	1afffff8 	bne	33e0 <xTaskResumeAll+0xc0>
    33fc:	ea000005 	b	3418 <xTaskResumeAll+0xf8>
    3400:	e3560001 	cmp	r6, #1	; 0x1
    3404:	0a000003 	beq	3418 <xTaskResumeAll+0xf8>
    3408:	e59f304c 	ldr	r3, [pc, #76]	; 345c <xTaskResumeAll+0x13c>
    340c:	e5933000 	ldr	r3, [r3]
    3410:	e3530001 	cmp	r3, #1	; 0x1
    3414:	1a000005 	bne	3430 <xTaskResumeAll+0x110>
    3418:	e59f303c 	ldr	r3, [pc, #60]	; 345c <xTaskResumeAll+0x13c>
    341c:	e3a02000 	mov	r2, #0	; 0x0
    3420:	e5832000 	str	r2, [r3]
    3424:	ef000000 	svc	0x00000000
    3428:	e3a04001 	mov	r4, #1	; 0x1
    342c:	ea000000 	b	3434 <xTaskResumeAll+0x114>
    3430:	e3a04000 	mov	r4, #0	; 0x0
    3434:	ebfffc3d 	bl	2530 <vPortExitCritical>
    3438:	e1a00004 	mov	r0, r4
    343c:	e8bd8ff0 	pop	{r4, r5, r6, r7, r8, r9, sl, fp, pc}
    3440:	40000878 	.word	0x40000878
    3444:	40000894 	.word	0x40000894
    3448:	4000091c 	.word	0x4000091c
    344c:	40000870 	.word	0x40000870
    3450:	4000089c 	.word	0x4000089c
    3454:	40000868 	.word	0x40000868
    3458:	4000088c 	.word	0x4000088c
    345c:	4000087c 	.word	0x4000087c

00003460 <vTaskResume>:
    3460:	e92d4030 	push	{r4, r5, lr}
    3464:	e2504000 	subs	r4, r0, #0	; 0x0
    3468:	08bd8030 	popeq	{r4, r5, pc}
    346c:	e59f3094 	ldr	r3, [pc, #148]	; 3508 <vTaskResume+0xa8>
    3470:	e5933000 	ldr	r3, [r3]
    3474:	e1540003 	cmp	r4, r3
    3478:	08bd8030 	popeq	{r4, r5, pc}
    347c:	ebfffc20 	bl	2504 <vPortEnterCritical>
    3480:	e5942014 	ldr	r2, [r4, #20]
    3484:	e59f3080 	ldr	r3, [pc, #128]	; 350c <vTaskResume+0xac>
    3488:	e1520003 	cmp	r2, r3
    348c:	1a000007 	bne	34b0 <vTaskResume+0x50>
    3490:	e5942028 	ldr	r2, [r4, #40]
    3494:	e59f3074 	ldr	r3, [pc, #116]	; 3510 <vTaskResume+0xb0>
    3498:	e1520003 	cmp	r2, r3
    349c:	0a000003 	beq	34b0 <vTaskResume+0x50>
    34a0:	e3520000 	cmp	r2, #0	; 0x0
    34a4:	1a000001 	bne	34b0 <vTaskResume+0x50>
    34a8:	ea000002 	b	34b8 <vTaskResume+0x58>
    34ac:	ef000000 	svc	0x00000000
    34b0:	e8bd4030 	pop	{r4, r5, lr}
    34b4:	eafffc1d 	b	2530 <vPortExitCritical>
    34b8:	e2845004 	add	r5, r4, #4	; 0x4
    34bc:	e1a00005 	mov	r0, r5
    34c0:	ebfffb24 	bl	2158 <vListRemove>
    34c4:	e59f2048 	ldr	r2, [pc, #72]	; 3514 <vTaskResume+0xb4>
    34c8:	e594102c 	ldr	r1, [r4, #44]
    34cc:	e5923000 	ldr	r3, [r2]
    34d0:	e1510003 	cmp	r1, r3
    34d4:	85821000 	strhi	r1, [r2]
    34d8:	e59f2038 	ldr	r2, [pc, #56]	; 3518 <vTaskResume+0xb8>
    34dc:	e3a03014 	mov	r3, #20	; 0x14
    34e0:	e0202193 	mla	r0, r3, r1, r2
    34e4:	e1a01005 	mov	r1, r5
    34e8:	ebfffaf8 	bl	20d0 <vListInsertEnd>
    34ec:	e59f3014 	ldr	r3, [pc, #20]	; 3508 <vTaskResume+0xa8>
    34f0:	e5933000 	ldr	r3, [r3]
    34f4:	e594202c 	ldr	r2, [r4, #44]
    34f8:	e593302c 	ldr	r3, [r3, #44]
    34fc:	e1520003 	cmp	r2, r3
    3500:	3affffea 	bcc	34b0 <vTaskResume+0x50>
    3504:	eaffffe8 	b	34ac <vTaskResume+0x4c>
    3508:	40000868 	.word	0x40000868
    350c:	40000930 	.word	0x40000930
    3510:	4000091c 	.word	0x4000091c
    3514:	40000870 	.word	0x40000870
    3518:	4000089c 	.word	0x4000089c

0000351c <prvAddCurrentTaskToDelayedList>:
    351c:	e59f105c 	ldr	r1, [pc, #92]	; 3580 <prvAddCurrentTaskToDelayedList+0x64>
    3520:	e59f205c 	ldr	r2, [pc, #92]	; 3584 <prvAddCurrentTaskToDelayedList+0x68>
    3524:	e5913000 	ldr	r3, [r1]
    3528:	e5922000 	ldr	r2, [r2]
    352c:	e1500002 	cmp	r0, r2
    3530:	e92d4010 	push	{r4, lr}
    3534:	e5830004 	str	r0, [r3, #4]
    3538:	e1a04000 	mov	r4, r0
    353c:	2a000005 	bcs	3558 <prvAddCurrentTaskToDelayedList+0x3c>
    3540:	e59f3040 	ldr	r3, [pc, #64]	; 3588 <prvAddCurrentTaskToDelayedList+0x6c>
    3544:	e5930000 	ldr	r0, [r3]
    3548:	e5911000 	ldr	r1, [r1]
    354c:	e2811004 	add	r1, r1, #4	; 0x4
    3550:	e8bd4010 	pop	{r4, lr}
    3554:	eafffaea 	b	2104 <vListInsert>
    3558:	e59f302c 	ldr	r3, [pc, #44]	; 358c <prvAddCurrentTaskToDelayedList+0x70>
    355c:	e5930000 	ldr	r0, [r3]
    3560:	e5911000 	ldr	r1, [r1]
    3564:	e2811004 	add	r1, r1, #4	; 0x4
    3568:	ebfffae5 	bl	2104 <vListInsert>
    356c:	e59f201c 	ldr	r2, [pc, #28]	; 3590 <prvAddCurrentTaskToDelayedList+0x74>
    3570:	e5923000 	ldr	r3, [r2]
    3574:	e1540003 	cmp	r4, r3
    3578:	35824000 	strcc	r4, [r2]
    357c:	e8bd8010 	pop	{r4, pc}
    3580:	40000868 	.word	0x40000868
    3584:	40000884 	.word	0x40000884
    3588:	40000918 	.word	0x40000918
    358c:	40000914 	.word	0x40000914
    3590:	40000044 	.word	0x40000044

00003594 <vTaskPlaceOnEventListRestricted>:
    3594:	e92d4030 	push	{r4, r5, lr}
    3598:	e59f402c 	ldr	r4, [pc, #44]	; 35cc <vTaskPlaceOnEventListRestricted+0x38>
    359c:	e5943000 	ldr	r3, [r4]
    35a0:	e1a05001 	mov	r5, r1
    35a4:	e2831018 	add	r1, r3, #24	; 0x18
    35a8:	ebfffac8 	bl	20d0 <vListInsertEnd>
    35ac:	e5940000 	ldr	r0, [r4]
    35b0:	e2800004 	add	r0, r0, #4	; 0x4
    35b4:	ebfffae7 	bl	2158 <vListRemove>
    35b8:	e59f3010 	ldr	r3, [pc, #16]	; 35d0 <vTaskPlaceOnEventListRestricted+0x3c>
    35bc:	e5930000 	ldr	r0, [r3]
    35c0:	e0850000 	add	r0, r5, r0
    35c4:	e8bd4030 	pop	{r4, r5, lr}
    35c8:	eaffffd3 	b	351c <prvAddCurrentTaskToDelayedList>
    35cc:	40000868 	.word	0x40000868
    35d0:	40000884 	.word	0x40000884

000035d4 <vTaskDelay>:
    35d4:	e92d4030 	push	{r4, r5, lr}
    35d8:	e2505000 	subs	r5, r0, #0	; 0x0
    35dc:	0a00000e 	beq	361c <vTaskDelay+0x48>
    35e0:	e59f203c 	ldr	r2, [pc, #60]	; 3624 <vTaskDelay+0x50>
    35e4:	e5923000 	ldr	r3, [r2]
    35e8:	e2833001 	add	r3, r3, #1	; 0x1
    35ec:	e5823000 	str	r3, [r2]
    35f0:	e59f3030 	ldr	r3, [pc, #48]	; 3628 <vTaskDelay+0x54>
    35f4:	e5934000 	ldr	r4, [r3]
    35f8:	e59f302c 	ldr	r3, [pc, #44]	; 362c <vTaskDelay+0x58>
    35fc:	e5930000 	ldr	r0, [r3]
    3600:	e2800004 	add	r0, r0, #4	; 0x4
    3604:	ebfffad3 	bl	2158 <vListRemove>
    3608:	e0850004 	add	r0, r5, r4
    360c:	ebffffc2 	bl	351c <prvAddCurrentTaskToDelayedList>
    3610:	ebffff42 	bl	3320 <xTaskResumeAll>
    3614:	e3500000 	cmp	r0, #0	; 0x0
    3618:	18bd8030 	popne	{r4, r5, pc}
    361c:	ef000000 	svc	0x00000000
    3620:	e8bd8030 	pop	{r4, r5, pc}
    3624:	40000878 	.word	0x40000878
    3628:	40000884 	.word	0x40000884
    362c:	40000868 	.word	0x40000868

00003630 <vTaskDelayUntil>:
    3630:	e59f3088 	ldr	r3, [pc, #136]	; 36c0 <vTaskDelayUntil+0x90>
    3634:	e5932000 	ldr	r2, [r3]
    3638:	e2822001 	add	r2, r2, #1	; 0x1
    363c:	e5832000 	str	r2, [r3]
    3640:	e59fc07c 	ldr	ip, [pc, #124]	; 36c4 <vTaskDelayUntil+0x94>
    3644:	e5902000 	ldr	r2, [r0]
    3648:	e59c3000 	ldr	r3, [ip]
    364c:	e1530002 	cmp	r3, r2
    3650:	e92d4010 	push	{r4, lr}
    3654:	e0814002 	add	r4, r1, r2
    3658:	2a000003 	bcs	366c <vTaskDelayUntil+0x3c>
    365c:	e1540002 	cmp	r4, r2
    3660:	23a03000 	movcs	r3, #0	; 0x0
    3664:	2a000007 	bcs	3688 <vTaskDelayUntil+0x58>
    3668:	ea000002 	b	3678 <vTaskDelayUntil+0x48>
    366c:	e1540002 	cmp	r4, r2
    3670:	33a03001 	movcc	r3, #1	; 0x1
    3674:	3a000003 	bcc	3688 <vTaskDelayUntil+0x58>
    3678:	e59c3000 	ldr	r3, [ip]
    367c:	e1540003 	cmp	r4, r3
    3680:	93a03000 	movls	r3, #0	; 0x0
    3684:	83a03001 	movhi	r3, #1	; 0x1
    3688:	e3530000 	cmp	r3, #0	; 0x0
    368c:	e5804000 	str	r4, [r0]
    3690:	0a000005 	beq	36ac <vTaskDelayUntil+0x7c>
    3694:	e59f302c 	ldr	r3, [pc, #44]	; 36c8 <vTaskDelayUntil+0x98>
    3698:	e5930000 	ldr	r0, [r3]
    369c:	e2800004 	add	r0, r0, #4	; 0x4
    36a0:	ebfffaac 	bl	2158 <vListRemove>
    36a4:	e1a00004 	mov	r0, r4
    36a8:	ebffff9b 	bl	351c <prvAddCurrentTaskToDelayedList>
    36ac:	ebffff1b 	bl	3320 <xTaskResumeAll>
    36b0:	e3500000 	cmp	r0, #0	; 0x0
    36b4:	18bd8010 	popne	{r4, pc}
    36b8:	ef000000 	svc	0x00000000
    36bc:	e8bd8010 	pop	{r4, pc}
    36c0:	40000878 	.word	0x40000878
    36c4:	40000884 	.word	0x40000884
    36c8:	40000868 	.word	0x40000868

000036cc <vTaskPlaceOnEventList>:
    36cc:	e92d4030 	push	{r4, r5, lr}
    36d0:	e59f4048 	ldr	r4, [pc, #72]	; 3720 <vTaskPlaceOnEventList+0x54>
    36d4:	e5943000 	ldr	r3, [r4]
    36d8:	e1a05001 	mov	r5, r1
    36dc:	e2831018 	add	r1, r3, #24	; 0x18
    36e0:	ebfffa87 	bl	2104 <vListInsert>
    36e4:	e5940000 	ldr	r0, [r4]
    36e8:	e2800004 	add	r0, r0, #4	; 0x4
    36ec:	ebfffa99 	bl	2158 <vListRemove>
    36f0:	e3750001 	cmn	r5, #1	; 0x1
    36f4:	1a000004 	bne	370c <vTaskPlaceOnEventList+0x40>
    36f8:	e5941000 	ldr	r1, [r4]
    36fc:	e59f0020 	ldr	r0, [pc, #32]	; 3724 <vTaskPlaceOnEventList+0x58>
    3700:	e2811004 	add	r1, r1, #4	; 0x4
    3704:	e8bd4030 	pop	{r4, r5, lr}
    3708:	eafffa70 	b	20d0 <vListInsertEnd>
    370c:	e59f3014 	ldr	r3, [pc, #20]	; 3728 <vTaskPlaceOnEventList+0x5c>
    3710:	e5930000 	ldr	r0, [r3]
    3714:	e0850000 	add	r0, r5, r0
    3718:	e8bd4030 	pop	{r4, r5, lr}
    371c:	eaffff7e 	b	351c <prvAddCurrentTaskToDelayedList>
    3720:	40000868 	.word	0x40000868
    3724:	40000930 	.word	0x40000930
    3728:	40000884 	.word	0x40000884

0000372c <vTaskSwitchContext>:
    372c:	e59f310c 	ldr	r3, [pc, #268]	; 3840 <vTaskSwitchContext+0x114>
    3730:	e5933000 	ldr	r3, [r3]
    3734:	e3530000 	cmp	r3, #0	; 0x0
    3738:	e92d4030 	push	{r4, r5, lr}
    373c:	13a02001 	movne	r2, #1	; 0x1
    3740:	159f30fc 	ldrne	r3, [pc, #252]	; 3844 <vTaskSwitchContext+0x118>
    3744:	1a00003b 	bne	3838 <vTaskSwitchContext+0x10c>
    3748:	e59f50f8 	ldr	r5, [pc, #248]	; 3848 <vTaskSwitchContext+0x11c>
    374c:	e59f30f8 	ldr	r3, [pc, #248]	; 384c <vTaskSwitchContext+0x120>
    3750:	e5934008 	ldr	r4, [r3, #8]
    3754:	e595c000 	ldr	ip, [r5]
    3758:	e59fe0f0 	ldr	lr, [pc, #240]	; 3850 <vTaskSwitchContext+0x124>
    375c:	e5952000 	ldr	r2, [r5]
    3760:	e5951000 	ldr	r1, [r5]
    3764:	e59c3048 	ldr	r3, [ip, #72]
    3768:	e5920000 	ldr	r0, [r2]
    376c:	e5912030 	ldr	r2, [r1, #48]
    3770:	e59e1000 	ldr	r1, [lr]
    3774:	e0843003 	add	r3, r4, r3
    3778:	e0613003 	rsb	r3, r1, r3
    377c:	e1500002 	cmp	r0, r2
    3780:	e58c3048 	str	r3, [ip, #72]
    3784:	e58e4000 	str	r4, [lr]
    3788:	95950000 	ldrls	r0, [r5]
    378c:	95951000 	ldrls	r1, [r5]
    3790:	92811034 	addls	r1, r1, #52	; 0x34
    3794:	9b0003ba 	blls	4684 <vApplicationStackOverflowHook>
    3798:	e59f40a8 	ldr	r4, [pc, #168]	; 3848 <vTaskSwitchContext+0x11c>
    379c:	e5943000 	ldr	r3, [r4]
    37a0:	e59f10ac 	ldr	r1, [pc, #172]	; 3854 <vTaskSwitchContext+0x128>
    37a4:	e5930030 	ldr	r0, [r3, #48]
    37a8:	e3a02014 	mov	r2, #20	; 0x14
    37ac:	eb000611 	bl	4ff8 <memcmp>
    37b0:	e3500000 	cmp	r0, #0	; 0x0
    37b4:	0a000008 	beq	37dc <vTaskSwitchContext+0xb0>
    37b8:	e5940000 	ldr	r0, [r4]
    37bc:	e5941000 	ldr	r1, [r4]
    37c0:	e2811034 	add	r1, r1, #52	; 0x34
    37c4:	eb0003ae 	bl	4684 <vApplicationStackOverflowHook>
    37c8:	ea000003 	b	37dc <vTaskSwitchContext+0xb0>
    37cc:	e5923000 	ldr	r3, [r2]
    37d0:	e2433001 	sub	r3, r3, #1	; 0x1
    37d4:	e5823000 	str	r3, [r2]
    37d8:	ea000002 	b	37e8 <vTaskSwitchContext+0xbc>
    37dc:	e59f2074 	ldr	r2, [pc, #116]	; 3858 <vTaskSwitchContext+0x12c>
    37e0:	e59f0074 	ldr	r0, [pc, #116]	; 385c <vTaskSwitchContext+0x130>
    37e4:	e3a01014 	mov	r1, #20	; 0x14
    37e8:	e5923000 	ldr	r3, [r2]
    37ec:	e0030391 	mul	r3, r1, r3
    37f0:	e7903003 	ldr	r3, [r0, r3]
    37f4:	e3530000 	cmp	r3, #0	; 0x0
    37f8:	0afffff3 	beq	37cc <vTaskSwitchContext+0xa0>
    37fc:	e59f3054 	ldr	r3, [pc, #84]	; 3858 <vTaskSwitchContext+0x12c>
    3800:	e59f2054 	ldr	r2, [pc, #84]	; 385c <vTaskSwitchContext+0x130>
    3804:	e5931000 	ldr	r1, [r3]
    3808:	e3a03014 	mov	r3, #20	; 0x14
    380c:	e0202193 	mla	r0, r3, r1, r2
    3810:	e5903004 	ldr	r3, [r0, #4]
    3814:	e5932004 	ldr	r2, [r3, #4]
    3818:	e2803008 	add	r3, r0, #8	; 0x8
    381c:	e5802004 	str	r2, [r0, #4]
    3820:	e1520003 	cmp	r2, r3
    3824:	05923004 	ldreq	r3, [r2, #4]
    3828:	05803004 	streq	r3, [r0, #4]
    382c:	e5903004 	ldr	r3, [r0, #4]
    3830:	e593200c 	ldr	r2, [r3, #12]
    3834:	e59f300c 	ldr	r3, [pc, #12]	; 3848 <vTaskSwitchContext+0x11c>
    3838:	e5832000 	str	r2, [r3]
    383c:	e8bd8030 	pop	{r4, r5, pc}
    3840:	40000878 	.word	0x40000878
    3844:	4000087c 	.word	0x4000087c
    3848:	40000868 	.word	0x40000868
    384c:	e0008000 	.word	0xe0008000
    3850:	40000888 	.word	0x40000888
    3854:	0000916a 	.word	0x0000916a
    3858:	40000870 	.word	0x40000870
    385c:	4000089c 	.word	0x4000089c

00003860 <vTaskSuspend>:
    3860:	e92d4070 	push	{r4, r5, r6, lr}
    3864:	e1a05000 	mov	r5, r0
    3868:	ebfffb25 	bl	2504 <vPortEnterCritical>
    386c:	e59f3094 	ldr	r3, [pc, #148]	; 3908 <vTaskSuspend+0xa8>
    3870:	e5933000 	ldr	r3, [r3]
    3874:	e1550003 	cmp	r5, r3
    3878:	03a05000 	moveq	r5, #0	; 0x0
    387c:	0a000002 	beq	388c <vTaskSuspend+0x2c>
    3880:	e3550000 	cmp	r5, #0	; 0x0
    3884:	11a04005 	movne	r4, r5
    3888:	1a000001 	bne	3894 <vTaskSuspend+0x34>
    388c:	e59f3074 	ldr	r3, [pc, #116]	; 3908 <vTaskSuspend+0xa8>
    3890:	e5934000 	ldr	r4, [r3]
    3894:	e2846004 	add	r6, r4, #4	; 0x4
    3898:	e1a00006 	mov	r0, r6
    389c:	ebfffa2d 	bl	2158 <vListRemove>
    38a0:	e5943028 	ldr	r3, [r4, #40]
    38a4:	e3530000 	cmp	r3, #0	; 0x0
    38a8:	12840018 	addne	r0, r4, #24	; 0x18
    38ac:	1bfffa29 	blne	2158 <vListRemove>
    38b0:	e59f4054 	ldr	r4, [pc, #84]	; 390c <vTaskSuspend+0xac>
    38b4:	e1a01006 	mov	r1, r6
    38b8:	e1a00004 	mov	r0, r4
    38bc:	ebfffa03 	bl	20d0 <vListInsertEnd>
    38c0:	ebfffb1a 	bl	2530 <vPortExitCritical>
    38c4:	e3550000 	cmp	r5, #0	; 0x0
    38c8:	18bd8070 	popne	{r4, r5, r6, pc}
    38cc:	e59f303c 	ldr	r3, [pc, #60]	; 3910 <vTaskSuspend+0xb0>
    38d0:	e5933000 	ldr	r3, [r3]
    38d4:	e3530000 	cmp	r3, #0	; 0x0
    38d8:	0a000001 	beq	38e4 <vTaskSuspend+0x84>
    38dc:	ef000000 	svc	0x00000000
    38e0:	e8bd8070 	pop	{r4, r5, r6, pc}
    38e4:	e59f2028 	ldr	r2, [pc, #40]	; 3914 <vTaskSuspend+0xb4>
    38e8:	e5943000 	ldr	r3, [r4]
    38ec:	e5922000 	ldr	r2, [r2]
    38f0:	e1530002 	cmp	r3, r2
    38f4:	059f300c 	ldreq	r3, [pc, #12]	; 3908 <vTaskSuspend+0xa8>
    38f8:	05835000 	streq	r5, [r3]
    38fc:	08bd8070 	popeq	{r4, r5, r6, pc}
    3900:	e8bd4070 	pop	{r4, r5, r6, lr}
    3904:	eaffff88 	b	372c <vTaskSwitchContext>
    3908:	40000868 	.word	0x40000868
    390c:	40000930 	.word	0x40000930
    3910:	40000874 	.word	0x40000874
    3914:	40000894 	.word	0x40000894

00003918 <prvGenerateRunTimeStatsForTasksInList>:
    3918:	e92d4ff0 	push	{r4, r5, r6, r7, r8, r9, sl, fp, lr}
    391c:	e1a06001 	mov	r6, r1
    3920:	e5911004 	ldr	r1, [r1, #4]
    3924:	e591c004 	ldr	ip, [r1, #4]
    3928:	e2861008 	add	r1, r6, #8	; 0x8
    392c:	e586c004 	str	ip, [r6, #4]
    3930:	e20330ff 	and	r3, r3, #255	; 0xff
    3934:	e15c0001 	cmp	ip, r1
    3938:	e24dd008 	sub	sp, sp, #8	; 0x8
    393c:	e58d3004 	str	r3, [sp, #4]
    3940:	059c3004 	ldreq	r3, [ip, #4]
    3944:	05863004 	streq	r3, [r6, #4]
    3948:	e5963004 	ldr	r3, [r6, #4]
    394c:	e593b00c 	ldr	fp, [r3, #12]
    3950:	e1a07000 	mov	r7, r0
    3954:	e1a09002 	mov	r9, r2
    3958:	e286a008 	add	sl, r6, #8	; 0x8
    395c:	e5963004 	ldr	r3, [r6, #4]
    3960:	e5933004 	ldr	r3, [r3, #4]
    3964:	e5863004 	str	r3, [r6, #4]
    3968:	e153000a 	cmp	r3, sl
    396c:	059a3004 	ldreq	r3, [sl, #4]
    3970:	05863004 	streq	r3, [r6, #4]
    3974:	e5963004 	ldr	r3, [r6, #4]
    3978:	e3590000 	cmp	r9, #0	; 0x0
    397c:	e593400c 	ldr	r4, [r3, #12]
    3980:	0a000023 	beq	3a14 <prvGenerateRunTimeStatsForTasksInList+0xfc>
    3984:	e5945048 	ldr	r5, [r4, #72]
    3988:	e3550000 	cmp	r5, #0	; 0x0
    398c:	1a000006 	bne	39ac <prvGenerateRunTimeStatsForTasksInList+0x94>
    3990:	e1a00007 	mov	r0, r7
    3994:	eb0006d2 	bl	54e4 <strlen>
    3998:	e1a03005 	mov	r3, r5
    399c:	e0870000 	add	r0, r7, r0
    39a0:	e59f107c 	ldr	r1, [pc, #124]	; 3a24 <prvGenerateRunTimeStatsForTasksInList+0x10c>
    39a4:	e2842034 	add	r2, r4, #52	; 0x34
    39a8:	ea000014 	b	3a00 <prvGenerateRunTimeStatsForTasksInList+0xe8>
    39ac:	e5940048 	ldr	r0, [r4, #72]
    39b0:	e1a01009 	mov	r1, r9
    39b4:	eb00033a 	bl	46a4 <__aeabi_uidiv>
    39b8:	e2508000 	subs	r8, r0, #0	; 0x0
    39bc:	e2845034 	add	r5, r4, #52	; 0x34
    39c0:	0a000008 	beq	39e8 <prvGenerateRunTimeStatsForTasksInList+0xd0>
    39c4:	e1a00007 	mov	r0, r7
    39c8:	eb0006c5 	bl	54e4 <strlen>
    39cc:	e5943048 	ldr	r3, [r4, #72]
    39d0:	e0870000 	add	r0, r7, r0
    39d4:	e1a02005 	mov	r2, r5
    39d8:	e59f1048 	ldr	r1, [pc, #72]	; 3a28 <prvGenerateRunTimeStatsForTasksInList+0x110>
    39dc:	e58d8000 	str	r8, [sp]
    39e0:	eb000624 	bl	5278 <siprintf>
    39e4:	ea000006 	b	3a04 <prvGenerateRunTimeStatsForTasksInList+0xec>
    39e8:	e1a00007 	mov	r0, r7
    39ec:	eb0006bc 	bl	54e4 <strlen>
    39f0:	e5943048 	ldr	r3, [r4, #72]
    39f4:	e59f1030 	ldr	r1, [pc, #48]	; 3a2c <prvGenerateRunTimeStatsForTasksInList+0x114>
    39f8:	e0870000 	add	r0, r7, r0
    39fc:	e1a02005 	mov	r2, r5
    3a00:	eb00061c 	bl	5278 <siprintf>
    3a04:	e59d3004 	ldr	r3, [sp, #4]
    3a08:	e3530000 	cmp	r3, #0	; 0x0
    3a0c:	13a03000 	movne	r3, #0	; 0x0
    3a10:	15843048 	strne	r3, [r4, #72]
    3a14:	e154000b 	cmp	r4, fp
    3a18:	1affffcf 	bne	395c <prvGenerateRunTimeStatsForTasksInList+0x44>
    3a1c:	e28dd008 	add	sp, sp, #8	; 0x8
    3a20:	e8bd8ff0 	pop	{r4, r5, r6, r7, r8, r9, sl, fp, pc}
    3a24:	000090ea 	.word	0x000090ea
    3a28:	000090fd 	.word	0x000090fd
    3a2c:	00009110 	.word	0x00009110

00003a30 <vTaskGetRunTimeStats>:
    3a30:	e59f2174 	ldr	r2, [pc, #372]	; 3bac <vTaskGetRunTimeStats+0x17c>
    3a34:	e5923000 	ldr	r3, [r2]
    3a38:	e92d41f0 	push	{r4, r5, r6, r7, r8, lr}
    3a3c:	e2833001 	add	r3, r3, #1	; 0x1
    3a40:	e5823000 	str	r3, [r2]
    3a44:	e59f3164 	ldr	r3, [pc, #356]	; 3bb0 <vTaskGetRunTimeStats+0x180>
    3a48:	e5933008 	ldr	r3, [r3, #8]
    3a4c:	e1a02001 	mov	r2, r1
    3a50:	e1a06000 	mov	r6, r0
    3a54:	e24dd004 	sub	sp, sp, #4	; 0x4
    3a58:	e1a00003 	mov	r0, r3
    3a5c:	e3a01064 	mov	r1, #100	; 0x64
    3a60:	e20280ff 	and	r8, r2, #255	; 0xff
    3a64:	eb00030e 	bl	46a4 <__aeabi_uidiv>
    3a68:	e3a03000 	mov	r3, #0	; 0x0
    3a6c:	e5c63000 	strb	r3, [r6]
    3a70:	e59f313c 	ldr	r3, [pc, #316]	; 3bb4 <vTaskGetRunTimeStats+0x184>
    3a74:	e5933000 	ldr	r3, [r3]
    3a78:	e59f2138 	ldr	r2, [pc, #312]	; 3bb8 <vTaskGetRunTimeStats+0x188>
    3a7c:	e2835001 	add	r5, r3, #1	; 0x1
    3a80:	e3a03014 	mov	r3, #20	; 0x14
    3a84:	e0242593 	mla	r4, r3, r5, r2
    3a88:	e1a07000 	mov	r7, r0
    3a8c:	e5943000 	ldr	r3, [r4]
    3a90:	e3530000 	cmp	r3, #0	; 0x0
    3a94:	e2455001 	sub	r5, r5, #1	; 0x1
    3a98:	11a01004 	movne	r1, r4
    3a9c:	11a00006 	movne	r0, r6
    3aa0:	11a02007 	movne	r2, r7
    3aa4:	11a03008 	movne	r3, r8
    3aa8:	1bffff9a 	blne	3918 <prvGenerateRunTimeStatsForTasksInList>
    3aac:	e3550000 	cmp	r5, #0	; 0x0
    3ab0:	e2444014 	sub	r4, r4, #20	; 0x14
    3ab4:	1afffff4 	bne	3a8c <vTaskGetRunTimeStats+0x5c>
    3ab8:	e59f10fc 	ldr	r1, [pc, #252]	; 3bbc <vTaskGetRunTimeStats+0x18c>
    3abc:	e5913000 	ldr	r3, [r1]
    3ac0:	e5933000 	ldr	r3, [r3]
    3ac4:	e3530000 	cmp	r3, #0	; 0x0
    3ac8:	15911000 	ldrne	r1, [r1]
    3acc:	11a00006 	movne	r0, r6
    3ad0:	11a02007 	movne	r2, r7
    3ad4:	11a03008 	movne	r3, r8
    3ad8:	1bffff8e 	blne	3918 <prvGenerateRunTimeStatsForTasksInList>
    3adc:	e59f10dc 	ldr	r1, [pc, #220]	; 3bc0 <vTaskGetRunTimeStats+0x190>
    3ae0:	e5913000 	ldr	r3, [r1]
    3ae4:	e5933000 	ldr	r3, [r3]
    3ae8:	e3530000 	cmp	r3, #0	; 0x0
    3aec:	15911000 	ldrne	r1, [r1]
    3af0:	11a00006 	movne	r0, r6
    3af4:	11a02007 	movne	r2, r7
    3af8:	11a03008 	movne	r3, r8
    3afc:	1bffff85 	blne	3918 <prvGenerateRunTimeStatsForTasksInList>
    3b00:	e59f10bc 	ldr	r1, [pc, #188]	; 3bc4 <vTaskGetRunTimeStats+0x194>
    3b04:	e5913000 	ldr	r3, [r1]
    3b08:	e3530000 	cmp	r3, #0	; 0x0
    3b0c:	11a00006 	movne	r0, r6
    3b10:	11a02007 	movne	r2, r7
    3b14:	11a03008 	movne	r3, r8
    3b18:	1bffff7e 	blne	3918 <prvGenerateRunTimeStatsForTasksInList>
    3b1c:	e59f30a4 	ldr	r3, [pc, #164]	; 3bc8 <vTaskGetRunTimeStats+0x198>
    3b20:	e5934000 	ldr	r4, [r3]
    3b24:	e1a01007 	mov	r1, r7
    3b28:	e1a00004 	mov	r0, r4
    3b2c:	eb0002dc 	bl	46a4 <__aeabi_uidiv>
    3b30:	e2505000 	subs	r5, r0, #0	; 0x0
    3b34:	1a000007 	bne	3b58 <vTaskGetRunTimeStats+0x128>
    3b38:	e1a00006 	mov	r0, r6
    3b3c:	eb000668 	bl	54e4 <strlen>
    3b40:	e1a03004 	mov	r3, r4
    3b44:	e0860000 	add	r0, r6, r0
    3b48:	e59f107c 	ldr	r1, [pc, #124]	; 3bcc <vTaskGetRunTimeStats+0x19c>
    3b4c:	e59f207c 	ldr	r2, [pc, #124]	; 3bd0 <vTaskGetRunTimeStats+0x1a0>
    3b50:	eb0005c8 	bl	5278 <siprintf>
    3b54:	ea000007 	b	3b78 <vTaskGetRunTimeStats+0x148>
    3b58:	e1a00006 	mov	r0, r6
    3b5c:	eb000660 	bl	54e4 <strlen>
    3b60:	e1a03004 	mov	r3, r4
    3b64:	e0860000 	add	r0, r6, r0
    3b68:	e59f1064 	ldr	r1, [pc, #100]	; 3bd4 <vTaskGetRunTimeStats+0x1a4>
    3b6c:	e59f205c 	ldr	r2, [pc, #92]	; 3bd0 <vTaskGetRunTimeStats+0x1a0>
    3b70:	e58d5000 	str	r5, [sp]
    3b74:	eb0005bf 	bl	5278 <siprintf>
    3b78:	e3580000 	cmp	r8, #0	; 0x0
    3b7c:	0a000007 	beq	3ba0 <vTaskGetRunTimeStats+0x170>
    3b80:	e59f3040 	ldr	r3, [pc, #64]	; 3bc8 <vTaskGetRunTimeStats+0x198>
    3b84:	e3a02000 	mov	r2, #0	; 0x0
    3b88:	e5832000 	str	r2, [r3]
    3b8c:	e59f101c 	ldr	r1, [pc, #28]	; 3bb0 <vTaskGetRunTimeStats+0x180>
    3b90:	e59f3040 	ldr	r3, [pc, #64]	; 3bd8 <vTaskGetRunTimeStats+0x1a8>
    3b94:	e5832000 	str	r2, [r3]
    3b98:	e5812010 	str	r2, [r1, #16]
    3b9c:	e5812008 	str	r2, [r1, #8]
    3ba0:	e28dd004 	add	sp, sp, #4	; 0x4
    3ba4:	e8bd41f0 	pop	{r4, r5, r6, r7, r8, lr}
    3ba8:	eafffddc 	b	3320 <xTaskResumeAll>
    3bac:	40000878 	.word	0x40000878
    3bb0:	e0008000 	.word	0xe0008000
    3bb4:	40000890 	.word	0x40000890
    3bb8:	40000888 	.word	0x40000888
    3bbc:	40000914 	.word	0x40000914
    3bc0:	40000918 	.word	0x40000918
    3bc4:	40000930 	.word	0x40000930
    3bc8:	4000086c 	.word	0x4000086c
    3bcc:	00009110 	.word	0x00009110
    3bd0:	00009123 	.word	0x00009123
    3bd4:	000090fd 	.word	0x000090fd
    3bd8:	40000888 	.word	0x40000888

00003bdc <prvListTaskWithinSingleList>:
    3bdc:	e5913004 	ldr	r3, [r1, #4]
    3be0:	e92d4ff0 	push	{r4, r5, r6, r7, r8, r9, sl, fp, lr}
    3be4:	e1a05001 	mov	r5, r1
    3be8:	e5931004 	ldr	r1, [r3, #4]
    3bec:	e2853008 	add	r3, r5, #8	; 0x8
    3bf0:	e5851004 	str	r1, [r5, #4]
    3bf4:	e1510003 	cmp	r1, r3
    3bf8:	05913004 	ldreq	r3, [r1, #4]
    3bfc:	05853004 	streq	r3, [r5, #4]
    3c00:	e5953004 	ldr	r3, [r5, #4]
    3c04:	e593900c 	ldr	r9, [r3, #12]
    3c08:	e24dd00c 	sub	sp, sp, #12	; 0xc
    3c0c:	e1a0a000 	mov	sl, r0
    3c10:	e1a0b002 	mov	fp, r2
    3c14:	e2858008 	add	r8, r5, #8	; 0x8
    3c18:	e5953004 	ldr	r3, [r5, #4]
    3c1c:	e5933004 	ldr	r3, [r3, #4]
    3c20:	e5853004 	str	r3, [r5, #4]
    3c24:	e1530008 	cmp	r3, r8
    3c28:	05983004 	ldreq	r3, [r8, #4]
    3c2c:	05853004 	streq	r3, [r5, #4]
    3c30:	e5953004 	ldr	r3, [r5, #4]
    3c34:	e593600c 	ldr	r6, [r3, #12]
    3c38:	e5961030 	ldr	r1, [r6, #48]
    3c3c:	e3a02000 	mov	r2, #0	; 0x0
    3c40:	e7d13002 	ldrb	r3, [r1, r2]
    3c44:	e35300a5 	cmp	r3, #165	; 0xa5
    3c48:	e1a03802 	lsl	r3, r2, #16
    3c4c:	e1a07823 	lsr	r7, r3, #16
    3c50:	e2822001 	add	r2, r2, #1	; 0x1
    3c54:	0afffff9 	beq	3c40 <prvListTaskWithinSingleList+0x64>
    3c58:	e1a0000a 	mov	r0, sl
    3c5c:	eb000620 	bl	54e4 <strlen>
    3c60:	e596c02c 	ldr	ip, [r6, #44]
    3c64:	e596403c 	ldr	r4, [r6, #60]
    3c68:	e08a0000 	add	r0, sl, r0
    3c6c:	e59f1024 	ldr	r1, [pc, #36]	; 3c98 <prvListTaskWithinSingleList+0xbc>
    3c70:	e2862034 	add	r2, r6, #52	; 0x34
    3c74:	e1a0300b 	mov	r3, fp
    3c78:	e58dc000 	str	ip, [sp]
    3c7c:	e58d7004 	str	r7, [sp, #4]
    3c80:	e58d4008 	str	r4, [sp, #8]
    3c84:	eb00057b 	bl	5278 <siprintf>
    3c88:	e1560009 	cmp	r6, r9
    3c8c:	1affffe1 	bne	3c18 <prvListTaskWithinSingleList+0x3c>
    3c90:	e28dd00c 	add	sp, sp, #12	; 0xc
    3c94:	e8bd8ff0 	pop	{r4, r5, r6, r7, r8, r9, sl, fp, pc}
    3c98:	0000912e 	.word	0x0000912e

00003c9c <vTaskList>:
    3c9c:	e59f20b8 	ldr	r2, [pc, #184]	; 3d5c <vTaskList+0xc0>
    3ca0:	e5923000 	ldr	r3, [r2]
    3ca4:	e2833001 	add	r3, r3, #1	; 0x1
    3ca8:	e92d4070 	push	{r4, r5, r6, lr}
    3cac:	e5823000 	str	r3, [r2]
    3cb0:	e59f10a8 	ldr	r1, [pc, #168]	; 3d60 <vTaskList+0xc4>
    3cb4:	e1a06000 	mov	r6, r0
    3cb8:	eb0005db 	bl	542c <strcpy>
    3cbc:	e59f30a0 	ldr	r3, [pc, #160]	; 3d64 <vTaskList+0xc8>
    3cc0:	e5933000 	ldr	r3, [r3]
    3cc4:	e59f209c 	ldr	r2, [pc, #156]	; 3d68 <vTaskList+0xcc>
    3cc8:	e2835001 	add	r5, r3, #1	; 0x1
    3ccc:	e3a03014 	mov	r3, #20	; 0x14
    3cd0:	e0242593 	mla	r4, r3, r5, r2
    3cd4:	e5943000 	ldr	r3, [r4]
    3cd8:	e3530000 	cmp	r3, #0	; 0x0
    3cdc:	e2455001 	sub	r5, r5, #1	; 0x1
    3ce0:	11a01004 	movne	r1, r4
    3ce4:	11a00006 	movne	r0, r6
    3ce8:	13a02052 	movne	r2, #82	; 0x52
    3cec:	1bffffba 	blne	3bdc <prvListTaskWithinSingleList>
    3cf0:	e3550000 	cmp	r5, #0	; 0x0
    3cf4:	e2444014 	sub	r4, r4, #20	; 0x14
    3cf8:	1afffff5 	bne	3cd4 <vTaskList+0x38>
    3cfc:	e59f1068 	ldr	r1, [pc, #104]	; 3d6c <vTaskList+0xd0>
    3d00:	e5913000 	ldr	r3, [r1]
    3d04:	e5933000 	ldr	r3, [r3]
    3d08:	e3530000 	cmp	r3, #0	; 0x0
    3d0c:	15911000 	ldrne	r1, [r1]
    3d10:	11a00006 	movne	r0, r6
    3d14:	13a02042 	movne	r2, #66	; 0x42
    3d18:	1bffffaf 	blne	3bdc <prvListTaskWithinSingleList>
    3d1c:	e59f104c 	ldr	r1, [pc, #76]	; 3d70 <vTaskList+0xd4>
    3d20:	e5913000 	ldr	r3, [r1]
    3d24:	e5933000 	ldr	r3, [r3]
    3d28:	e3530000 	cmp	r3, #0	; 0x0
    3d2c:	15911000 	ldrne	r1, [r1]
    3d30:	11a00006 	movne	r0, r6
    3d34:	13a02042 	movne	r2, #66	; 0x42
    3d38:	1bffffa7 	blne	3bdc <prvListTaskWithinSingleList>
    3d3c:	e59f1030 	ldr	r1, [pc, #48]	; 3d74 <vTaskList+0xd8>
    3d40:	e5913000 	ldr	r3, [r1]
    3d44:	e3530000 	cmp	r3, #0	; 0x0
    3d48:	11a00006 	movne	r0, r6
    3d4c:	13a02053 	movne	r2, #83	; 0x53
    3d50:	1bffffa1 	blne	3bdc <prvListTaskWithinSingleList>
    3d54:	e8bd4070 	pop	{r4, r5, r6, lr}
    3d58:	eafffd70 	b	3320 <xTaskResumeAll>
    3d5c:	40000878 	.word	0x40000878
    3d60:	00009145 	.word	0x00009145
    3d64:	40000890 	.word	0x40000890
    3d68:	40000888 	.word	0x40000888
    3d6c:	40000914 	.word	0x40000914
    3d70:	40000918 	.word	0x40000918
    3d74:	40000930 	.word	0x40000930

00003d78 <vTaskEndScheduler>:
    3d78:	e92d0001 	push	{r0}
    3d7c:	e10f0000 	mrs	r0, CPSR
    3d80:	e38000c0 	orr	r0, r0, #192	; 0xc0
    3d84:	e129f000 	msr	CPSR_fc, r0
    3d88:	e8bd0001 	pop	{r0}
    3d8c:	e59f3008 	ldr	r3, [pc, #8]	; 3d9c <vTaskEndScheduler+0x24>
    3d90:	e3a02000 	mov	r2, #0	; 0x0
    3d94:	e5832000 	str	r2, [r3]
    3d98:	eafff951 	b	22e4 <vPortEndScheduler>
    3d9c:	40000874 	.word	0x40000874

00003da0 <prvIdleTask>:
    3da0:	e52de004 	push	{lr}		; (str lr, [sp, #-4]!)
    3da4:	eb00022b 	bl	4658 <vApplicationIdleHook>
    3da8:	eafffffd 	b	3da4 <prvIdleTask+0x4>

00003dac <xTaskGenericCreate>:
    3dac:	e92d4ff0 	push	{r4, r5, r6, r7, r8, r9, sl, fp, lr}
    3db0:	e1a02802 	lsl	r2, r2, #16
    3db4:	e1a0a000 	mov	sl, r0
    3db8:	e3a0004c 	mov	r0, #76	; 0x4c
    3dbc:	e1a06001 	mov	r6, r1
    3dc0:	e1a08003 	mov	r8, r3
    3dc4:	e1a05822 	lsr	r5, r2, #16
    3dc8:	e59db024 	ldr	fp, [sp, #36]
    3dcc:	e59d402c 	ldr	r4, [sp, #44]
    3dd0:	eb000215 	bl	462c <pvPortMalloc>
    3dd4:	e2507000 	subs	r7, r0, #0	; 0x0
    3dd8:	0a000009 	beq	3e04 <xTaskGenericCreate+0x58>
    3ddc:	e3540000 	cmp	r4, #0	; 0x0
    3de0:	1a000002 	bne	3df0 <xTaskGenericCreate+0x44>
    3de4:	e1a00105 	lsl	r0, r5, #2
    3de8:	eb00020f 	bl	462c <pvPortMalloc>
    3dec:	e1a04000 	mov	r4, r0
    3df0:	e3540000 	cmp	r4, #0	; 0x0
    3df4:	e5874030 	str	r4, [r7, #48]
    3df8:	1a000003 	bne	3e0c <xTaskGenericCreate+0x60>
    3dfc:	e1a00007 	mov	r0, r7
    3e00:	eb000201 	bl	460c <vPortFree>
    3e04:	e3e00000 	mvn	r0, #0	; 0x0
    3e08:	e8bd8ff0 	pop	{r4, r5, r6, r7, r8, r9, sl, fp, pc}
    3e0c:	e1a02105 	lsl	r2, r5, #2
    3e10:	e1a00004 	mov	r0, r4
    3e14:	e3a010a5 	mov	r1, #165	; 0xa5
    3e18:	eb0004e0 	bl	51a0 <memset>
    3e1c:	e5971030 	ldr	r1, [r7, #48]
    3e20:	e3e03003 	mvn	r3, #3	; 0x3
    3e24:	e2652001 	rsb	r2, r5, #1	; 0x1
    3e28:	e0251293 	mla	r5, r3, r2, r1
    3e2c:	e35b0003 	cmp	fp, #3	; 0x3
    3e30:	31a0400b 	movcc	r4, fp
    3e34:	23a04003 	movcs	r4, #3	; 0x3
    3e38:	e1a01006 	mov	r1, r6
    3e3c:	e3a02008 	mov	r2, #8	; 0x8
    3e40:	e3a06000 	mov	r6, #0	; 0x0
    3e44:	e2870034 	add	r0, r7, #52	; 0x34
    3e48:	e2879004 	add	r9, r7, #4	; 0x4
    3e4c:	eb0005cb 	bl	5580 <strncpy>
    3e50:	e587402c 	str	r4, [r7, #44]
    3e54:	e5874044 	str	r4, [r7, #68]
    3e58:	e1a00009 	mov	r0, r9
    3e5c:	e5c7603b 	strb	r6, [r7, #59]
    3e60:	ebfff897 	bl	20c4 <vListInitialiseItem>
    3e64:	e3c55007 	bic	r5, r5, #7	; 0x7
    3e68:	e2870018 	add	r0, r7, #24	; 0x18
    3e6c:	e2644004 	rsb	r4, r4, #4	; 0x4
    3e70:	ebfff893 	bl	20c4 <vListInitialiseItem>
    3e74:	e1a0100a 	mov	r1, sl
    3e78:	e1a02008 	mov	r2, r8
    3e7c:	e5874018 	str	r4, [r7, #24]
    3e80:	e5876048 	str	r6, [r7, #72]
    3e84:	e5877010 	str	r7, [r7, #16]
    3e88:	e5877024 	str	r7, [r7, #36]
    3e8c:	e1a00005 	mov	r0, r5
    3e90:	ebfff8bf 	bl	2194 <pxPortInitialiseStack>
    3e94:	e59d3028 	ldr	r3, [sp, #40]
    3e98:	e1530006 	cmp	r3, r6
    3e9c:	15837000 	strne	r7, [r3]
    3ea0:	e5870000 	str	r0, [r7]
    3ea4:	ebfff996 	bl	2504 <vPortEnterCritical>
    3ea8:	e59f2134 	ldr	r2, [pc, #308]	; 3fe4 <xTaskGenericCreate+0x238>
    3eac:	e5923000 	ldr	r3, [r2]
    3eb0:	e2833001 	add	r3, r3, #1	; 0x1
    3eb4:	e5823000 	str	r3, [r2]
    3eb8:	e59f1128 	ldr	r1, [pc, #296]	; 3fe8 <xTaskGenericCreate+0x23c>
    3ebc:	e5913000 	ldr	r3, [r1]
    3ec0:	e3530000 	cmp	r3, #0	; 0x0
    3ec4:	1a00001a 	bne	3f34 <xTaskGenericCreate+0x188>
    3ec8:	e5817000 	str	r7, [r1]
    3ecc:	e5923000 	ldr	r3, [r2]
    3ed0:	e3530001 	cmp	r3, #1	; 0x1
    3ed4:	1a00001e 	bne	3f54 <xTaskGenericCreate+0x1a8>
    3ed8:	e59f010c 	ldr	r0, [pc, #268]	; 3fec <xTaskGenericCreate+0x240>
    3edc:	ebfff86f 	bl	20a0 <vListInitialise>
    3ee0:	e59f0108 	ldr	r0, [pc, #264]	; 3ff0 <xTaskGenericCreate+0x244>
    3ee4:	ebfff86d 	bl	20a0 <vListInitialise>
    3ee8:	e59f5104 	ldr	r5, [pc, #260]	; 3ff4 <xTaskGenericCreate+0x248>
    3eec:	e59f0104 	ldr	r0, [pc, #260]	; 3ff8 <xTaskGenericCreate+0x24c>
    3ef0:	ebfff86a 	bl	20a0 <vListInitialise>
    3ef4:	e59f4100 	ldr	r4, [pc, #256]	; 3ffc <xTaskGenericCreate+0x250>
    3ef8:	e59f0100 	ldr	r0, [pc, #256]	; 4000 <xTaskGenericCreate+0x254>
    3efc:	ebfff867 	bl	20a0 <vListInitialise>
    3f00:	e1a00005 	mov	r0, r5
    3f04:	ebfff865 	bl	20a0 <vListInitialise>
    3f08:	e1a00004 	mov	r0, r4
    3f0c:	ebfff863 	bl	20a0 <vListInitialise>
    3f10:	e59f00ec 	ldr	r0, [pc, #236]	; 4004 <xTaskGenericCreate+0x258>
    3f14:	ebfff861 	bl	20a0 <vListInitialise>
    3f18:	e59f00e8 	ldr	r0, [pc, #232]	; 4008 <xTaskGenericCreate+0x25c>
    3f1c:	ebfff85f 	bl	20a0 <vListInitialise>
    3f20:	e59f30e4 	ldr	r3, [pc, #228]	; 400c <xTaskGenericCreate+0x260>
    3f24:	e5835000 	str	r5, [r3]
    3f28:	e59f30e0 	ldr	r3, [pc, #224]	; 4010 <xTaskGenericCreate+0x264>
    3f2c:	e5834000 	str	r4, [r3]
    3f30:	ea000007 	b	3f54 <xTaskGenericCreate+0x1a8>
    3f34:	e59f30d8 	ldr	r3, [pc, #216]	; 4014 <xTaskGenericCreate+0x268>
    3f38:	e5933000 	ldr	r3, [r3]
    3f3c:	e3530000 	cmp	r3, #0	; 0x0
    3f40:	1a000003 	bne	3f54 <xTaskGenericCreate+0x1a8>
    3f44:	e5913000 	ldr	r3, [r1]
    3f48:	e593302c 	ldr	r3, [r3, #44]
    3f4c:	e153000b 	cmp	r3, fp
    3f50:	95817000 	strls	r7, [r1]
    3f54:	e59f10bc 	ldr	r1, [pc, #188]	; 4018 <xTaskGenericCreate+0x26c>
    3f58:	e597202c 	ldr	r2, [r7, #44]
    3f5c:	e5913000 	ldr	r3, [r1]
    3f60:	e1520003 	cmp	r2, r3
    3f64:	85812000 	strhi	r2, [r1]
    3f68:	e59fc0ac 	ldr	ip, [pc, #172]	; 401c <xTaskGenericCreate+0x270>
    3f6c:	e59f10ac 	ldr	r1, [pc, #172]	; 4020 <xTaskGenericCreate+0x274>
    3f70:	e59c3000 	ldr	r3, [ip]
    3f74:	e5912000 	ldr	r2, [r1]
    3f78:	e597002c 	ldr	r0, [r7, #44]
    3f7c:	e1500003 	cmp	r0, r3
    3f80:	e2823001 	add	r3, r2, #1	; 0x1
    3f84:	e587203c 	str	r2, [r7, #60]
    3f88:	858c0000 	strhi	r0, [ip]
    3f8c:	e5813000 	str	r3, [r1]
    3f90:	e59f2054 	ldr	r2, [pc, #84]	; 3fec <xTaskGenericCreate+0x240>
    3f94:	e597102c 	ldr	r1, [r7, #44]
    3f98:	e3a03014 	mov	r3, #20	; 0x14
    3f9c:	e0202193 	mla	r0, r3, r1, r2
    3fa0:	e1a01009 	mov	r1, r9
    3fa4:	ebfff849 	bl	20d0 <vListInsertEnd>
    3fa8:	ebfff960 	bl	2530 <vPortExitCritical>
    3fac:	e59f3060 	ldr	r3, [pc, #96]	; 4014 <xTaskGenericCreate+0x268>
    3fb0:	e5933000 	ldr	r3, [r3]
    3fb4:	e3530000 	cmp	r3, #0	; 0x0
    3fb8:	0a000007 	beq	3fdc <xTaskGenericCreate+0x230>
    3fbc:	e59f3024 	ldr	r3, [pc, #36]	; 3fe8 <xTaskGenericCreate+0x23c>
    3fc0:	e5933000 	ldr	r3, [r3]
    3fc4:	e593302c 	ldr	r3, [r3, #44]
    3fc8:	e153000b 	cmp	r3, fp
    3fcc:	2a000002 	bcs	3fdc <xTaskGenericCreate+0x230>
    3fd0:	ef000000 	svc	0x00000000
    3fd4:	e3a00001 	mov	r0, #1	; 0x1
    3fd8:	e8bd8ff0 	pop	{r4, r5, r6, r7, r8, r9, sl, fp, pc}
    3fdc:	e3a00001 	mov	r0, #1	; 0x1
    3fe0:	e8bd8ff0 	pop	{r4, r5, r6, r7, r8, r9, sl, fp, pc}
    3fe4:	40000894 	.word	0x40000894
    3fe8:	40000868 	.word	0x40000868
    3fec:	4000089c 	.word	0x4000089c
    3ff0:	400008b0 	.word	0x400008b0
    3ff4:	400008ec 	.word	0x400008ec
    3ff8:	400008c4 	.word	0x400008c4
    3ffc:	40000900 	.word	0x40000900
    4000:	400008d8 	.word	0x400008d8
    4004:	4000091c 	.word	0x4000091c
    4008:	40000930 	.word	0x40000930
    400c:	40000914 	.word	0x40000914
    4010:	40000918 	.word	0x40000918
    4014:	40000874 	.word	0x40000874
    4018:	40000890 	.word	0x40000890
    401c:	40000870 	.word	0x40000870
    4020:	40000898 	.word	0x40000898

00004024 <vTaskStartScheduler>:
    4024:	e92d4010 	push	{r4, lr}
    4028:	e3a04000 	mov	r4, #0	; 0x0
    402c:	e24dd010 	sub	sp, sp, #16	; 0x10
    4030:	e59f0084 	ldr	r0, [pc, #132]	; 40bc <vTaskStartScheduler+0x98>
    4034:	e59f1084 	ldr	r1, [pc, #132]	; 40c0 <vTaskStartScheduler+0x9c>
    4038:	e3a02080 	mov	r2, #128	; 0x80
    403c:	e1a03004 	mov	r3, r4
    4040:	e58d4000 	str	r4, [sp]
    4044:	e58d4004 	str	r4, [sp, #4]
    4048:	e58d4008 	str	r4, [sp, #8]
    404c:	e58d400c 	str	r4, [sp, #12]
    4050:	ebffff55 	bl	3dac <xTaskGenericCreate>
    4054:	e3500001 	cmp	r0, #1	; 0x1
    4058:	1a000015 	bne	40b4 <vTaskStartScheduler+0x90>
    405c:	eb000078 	bl	4244 <xTimerCreateTimerTask>
    4060:	e3500001 	cmp	r0, #1	; 0x1
    4064:	1a000012 	bne	40b4 <vTaskStartScheduler+0x90>
    4068:	e92d0001 	push	{r0}
    406c:	e10f0000 	mrs	r0, CPSR
    4070:	e38000c0 	orr	r0, r0, #192	; 0xc0
    4074:	e129f000 	msr	CPSR_fc, r0
    4078:	e8bd0001 	pop	{r0}
    407c:	e59f3040 	ldr	r3, [pc, #64]	; 40c4 <vTaskStartScheduler+0xa0>
    4080:	e5830000 	str	r0, [r3]
    4084:	e59f303c 	ldr	r3, [pc, #60]	; 40c8 <vTaskStartScheduler+0xa4>
    4088:	e59f203c 	ldr	r2, [pc, #60]	; 40cc <vTaskStartScheduler+0xa8>
    408c:	e5834000 	str	r4, [r3]
    4090:	e3a03020 	mov	r3, #32	; 0x20
    4094:	e582300c 	str	r3, [r2, #12]
    4098:	e5824010 	str	r4, [r2, #16]
    409c:	e5824018 	str	r4, [r2, #24]
    40a0:	e5824014 	str	r4, [r2, #20]
    40a4:	e5820004 	str	r0, [r2, #4]
    40a8:	e28dd010 	add	sp, sp, #16	; 0x10
    40ac:	e8bd4010 	pop	{r4, lr}
    40b0:	eafff88c 	b	22e8 <xPortStartScheduler>
    40b4:	e28dd010 	add	sp, sp, #16	; 0x10
    40b8:	e8bd8010 	pop	{r4, pc}
    40bc:	00003da0 	.word	0x00003da0
    40c0:	00009165 	.word	0x00009165
    40c4:	40000874 	.word	0x40000874
    40c8:	40000884 	.word	0x40000884
    40cc:	e0008000 	.word	0xe0008000

000040d0 <pvTimerGetTimerID>:
    40d0:	e5900020 	ldr	r0, [r0, #32]
    40d4:	e12fff1e 	bx	lr

000040d8 <xTimerIsTimerActive>:
    40d8:	e92d4010 	push	{r4, lr}
    40dc:	e1a04000 	mov	r4, r0
    40e0:	ebfff907 	bl	2504 <vPortEnterCritical>
    40e4:	e5944014 	ldr	r4, [r4, #20]
    40e8:	e2544000 	subs	r4, r4, #0	; 0x0
    40ec:	13a04001 	movne	r4, #1	; 0x1
    40f0:	ebfff90e 	bl	2530 <vPortExitCritical>
    40f4:	e1a00004 	mov	r0, r4
    40f8:	e8bd8010 	pop	{r4, pc}

000040fc <xTimerGenericCommand>:
    40fc:	e92d4030 	push	{r4, r5, lr}
    4100:	e59f5070 	ldr	r5, [pc, #112]	; 4178 <xTimerGenericCommand+0x7c>
    4104:	e595c000 	ldr	ip, [r5]
    4108:	e35c0000 	cmp	ip, #0	; 0x0
    410c:	e24dd00c 	sub	sp, sp, #12	; 0xc
    4110:	e1a04003 	mov	r4, r3
    4114:	01a0000c 	moveq	r0, ip
    4118:	0a000014 	beq	4170 <xTimerGenericCommand+0x74>
    411c:	e3530000 	cmp	r3, #0	; 0x0
    4120:	e88d0006 	stm	sp, {r1, r2}
    4124:	e58d0008 	str	r0, [sp, #8]
    4128:	1a00000b 	bne	415c <xTimerGenericCommand+0x60>
    412c:	ebfffb4f 	bl	2e70 <xTaskGetSchedulerState>
    4130:	e3500001 	cmp	r0, #1	; 0x1
    4134:	11a02004 	movne	r2, r4
    4138:	e1a0100d 	mov	r1, sp
    413c:	05950000 	ldreq	r0, [r5]
    4140:	059d2018 	ldreq	r2, [sp, #24]
    4144:	01a03004 	moveq	r3, r4
    4148:	15950000 	ldrne	r0, [r5]
    414c:	11a0100d 	movne	r1, sp
    4150:	11a03002 	movne	r3, r2
    4154:	ebfffa4c 	bl	2a8c <xQueueGenericSend>
    4158:	ea000004 	b	4170 <xTimerGenericCommand+0x74>
    415c:	e1a02003 	mov	r2, r3
    4160:	e1a0000c 	mov	r0, ip
    4164:	e1a0100d 	mov	r1, sp
    4168:	e3a03000 	mov	r3, #0	; 0x0
    416c:	ebfffa2a 	bl	2a1c <xQueueGenericSendFromISR>
    4170:	e28dd00c 	add	sp, sp, #12	; 0xc
    4174:	e8bd8030 	pop	{r4, r5, pc}
    4178:	40000944 	.word	0x40000944

0000417c <prvCheckForValidListAndQueue>:
    417c:	e92d40f0 	push	{r4, r5, r6, r7, lr}
    4180:	e59f7050 	ldr	r7, [pc, #80]	; 41d8 <prvCheckForValidListAndQueue+0x5c>
    4184:	ebfff8de 	bl	2504 <vPortEnterCritical>
    4188:	e5976000 	ldr	r6, [r7]
    418c:	e3560000 	cmp	r6, #0	; 0x0
    4190:	1a00000e 	bne	41d0 <prvCheckForValidListAndQueue+0x54>
    4194:	e59f4040 	ldr	r4, [pc, #64]	; 41dc <prvCheckForValidListAndQueue+0x60>
    4198:	e59f5040 	ldr	r5, [pc, #64]	; 41e0 <prvCheckForValidListAndQueue+0x64>
    419c:	e1a00004 	mov	r0, r4
    41a0:	ebfff7be 	bl	20a0 <vListInitialise>
    41a4:	e1a00005 	mov	r0, r5
    41a8:	ebfff7bc 	bl	20a0 <vListInitialise>
    41ac:	e59f3030 	ldr	r3, [pc, #48]	; 41e4 <prvCheckForValidListAndQueue+0x68>
    41b0:	e5834000 	str	r4, [r3]
    41b4:	e59f302c 	ldr	r3, [pc, #44]	; 41e8 <prvCheckForValidListAndQueue+0x6c>
    41b8:	e1a02006 	mov	r2, r6
    41bc:	e3a00002 	mov	r0, #2	; 0x2
    41c0:	e3a0100c 	mov	r1, #12	; 0xc
    41c4:	e5835000 	str	r5, [r3]
    41c8:	ebfffaa0 	bl	2c50 <xQueueGenericCreate>
    41cc:	e5870000 	str	r0, [r7]
    41d0:	e8bd40f0 	pop	{r4, r5, r6, r7, lr}
    41d4:	eafff8d5 	b	2530 <vPortExitCritical>
    41d8:	40000944 	.word	0x40000944
    41dc:	4000094c 	.word	0x4000094c
    41e0:	40000960 	.word	0x40000960
    41e4:	40000974 	.word	0x40000974
    41e8:	40000978 	.word	0x40000978

000041ec <xTimerCreate>:
    41ec:	e92d41f0 	push	{r4, r5, r6, r7, r8, lr}
    41f0:	e2515000 	subs	r5, r1, #0	; 0x0
    41f4:	e1a06000 	mov	r6, r0
    41f8:	e1a07002 	mov	r7, r2
    41fc:	e1a08003 	mov	r8, r3
    4200:	01a04005 	moveq	r4, r5
    4204:	0a00000c 	beq	423c <xTimerCreate+0x50>
    4208:	e3a00028 	mov	r0, #40	; 0x28
    420c:	eb000106 	bl	462c <pvPortMalloc>
    4210:	e2504000 	subs	r4, r0, #0	; 0x0
    4214:	0a000008 	beq	423c <xTimerCreate+0x50>
    4218:	ebffffd7 	bl	417c <prvCheckForValidListAndQueue>
    421c:	e59d3018 	ldr	r3, [sp, #24]
    4220:	e5846000 	str	r6, [r4]
    4224:	e5845018 	str	r5, [r4, #24]
    4228:	e584701c 	str	r7, [r4, #28]
    422c:	e5848020 	str	r8, [r4, #32]
    4230:	e5843024 	str	r3, [r4, #36]
    4234:	e2840004 	add	r0, r4, #4	; 0x4
    4238:	ebfff7a1 	bl	20c4 <vListInitialiseItem>
    423c:	e1a00004 	mov	r0, r4
    4240:	e8bd81f0 	pop	{r4, r5, r6, r7, r8, pc}

00004244 <xTimerCreateTimerTask>:
    4244:	e52de004 	push	{lr}		; (str lr, [sp, #-4]!)
    4248:	e24dd010 	sub	sp, sp, #16	; 0x10
    424c:	ebffffca 	bl	417c <prvCheckForValidListAndQueue>
    4250:	e59f3038 	ldr	r3, [pc, #56]	; 4290 <xTimerCreateTimerTask+0x4c>
    4254:	e5930000 	ldr	r0, [r3]
    4258:	e3500000 	cmp	r0, #0	; 0x0
    425c:	0a000009 	beq	4288 <xTimerCreateTimerTask+0x44>
    4260:	e3a0e000 	mov	lr, #0	; 0x0
    4264:	e3a0c003 	mov	ip, #3	; 0x3
    4268:	e1a0300e 	mov	r3, lr
    426c:	e59f0020 	ldr	r0, [pc, #32]	; 4294 <xTimerCreateTimerTask+0x50>
    4270:	e59f1020 	ldr	r1, [pc, #32]	; 4298 <xTimerCreateTimerTask+0x54>
    4274:	e3a02c01 	mov	r2, #256	; 0x100
    4278:	e88d5000 	stm	sp, {ip, lr}
    427c:	e58de008 	str	lr, [sp, #8]
    4280:	e58de00c 	str	lr, [sp, #12]
    4284:	ebfffec8 	bl	3dac <xTaskGenericCreate>
    4288:	e28dd010 	add	sp, sp, #16	; 0x10
    428c:	e8bd8000 	pop	{pc}
    4290:	40000944 	.word	0x40000944
    4294:	00004418 	.word	0x00004418
    4298:	0000917e 	.word	0x0000917e

0000429c <prvSampleTimeNow>:
    429c:	e92d47f0 	push	{r4, r5, r6, r7, r8, r9, sl, lr}
    42a0:	e24dd004 	sub	sp, sp, #4	; 0x4
    42a4:	e1a0a000 	mov	sl, r0
    42a8:	ebfffc14 	bl	3300 <xTaskGetTickCount>
    42ac:	e59f30d4 	ldr	r3, [pc, #212]	; 4388 <prvSampleTimeNow+0xec>
    42b0:	e5933000 	ldr	r3, [r3]
    42b4:	e1500003 	cmp	r0, r3
    42b8:	e1a07000 	mov	r7, r0
    42bc:	359f90c8 	ldrcc	r9, [pc, #200]	; 438c <prvSampleTimeNow+0xf0>
    42c0:	33a08000 	movcc	r8, #0	; 0x0
    42c4:	3a00001d 	bcc	4340 <prvSampleTimeNow+0xa4>
    42c8:	ea000027 	b	436c <prvSampleTimeNow+0xd0>
    42cc:	e590300c 	ldr	r3, [r0, #12]
    42d0:	e5935000 	ldr	r5, [r3]
    42d4:	e590300c 	ldr	r3, [r0, #12]
    42d8:	e593400c 	ldr	r4, [r3, #12]
    42dc:	e2846004 	add	r6, r4, #4	; 0x4
    42e0:	e1a00006 	mov	r0, r6
    42e4:	ebfff79b 	bl	2158 <vListRemove>
    42e8:	e1a00004 	mov	r0, r4
    42ec:	e1a0e00f 	mov	lr, pc
    42f0:	e594f024 	ldr	pc, [r4, #36]
    42f4:	e594301c 	ldr	r3, [r4, #28]
    42f8:	e3530001 	cmp	r3, #1	; 0x1
    42fc:	1a00000f 	bne	4340 <prvSampleTimeNow+0xa4>
    4300:	e5943018 	ldr	r3, [r4, #24]
    4304:	e085c003 	add	ip, r5, r3
    4308:	e15c0005 	cmp	ip, r5
    430c:	e1a01006 	mov	r1, r6
    4310:	e1a00004 	mov	r0, r4
    4314:	e1a02005 	mov	r2, r5
    4318:	e1a03008 	mov	r3, r8
    431c:	9a000004 	bls	4334 <prvSampleTimeNow+0x98>
    4320:	e584c004 	str	ip, [r4, #4]
    4324:	e5844010 	str	r4, [r4, #16]
    4328:	e5990000 	ldr	r0, [r9]
    432c:	ebfff774 	bl	2104 <vListInsert>
    4330:	ea000002 	b	4340 <prvSampleTimeNow+0xa4>
    4334:	e1a01008 	mov	r1, r8
    4338:	e58d8000 	str	r8, [sp]
    433c:	ebffff6e 	bl	40fc <xTimerGenericCommand>
    4340:	e5990000 	ldr	r0, [r9]
    4344:	e5903000 	ldr	r3, [r0]
    4348:	e3530000 	cmp	r3, #0	; 0x0
    434c:	1affffde 	bne	42cc <prvSampleTimeNow+0x30>
    4350:	e59f1038 	ldr	r1, [pc, #56]	; 4390 <prvSampleTimeNow+0xf4>
    4354:	e59f3030 	ldr	r3, [pc, #48]	; 438c <prvSampleTimeNow+0xf0>
    4358:	e5912000 	ldr	r2, [r1]
    435c:	e5810000 	str	r0, [r1]
    4360:	e5832000 	str	r2, [r3]
    4364:	e3a03001 	mov	r3, #1	; 0x1
    4368:	ea000000 	b	4370 <prvSampleTimeNow+0xd4>
    436c:	e3a03000 	mov	r3, #0	; 0x0
    4370:	e58a3000 	str	r3, [sl]
    4374:	e59f300c 	ldr	r3, [pc, #12]	; 4388 <prvSampleTimeNow+0xec>
    4378:	e1a00007 	mov	r0, r7
    437c:	e5837000 	str	r7, [r3]
    4380:	e28dd004 	add	sp, sp, #4	; 0x4
    4384:	e8bd87f0 	pop	{r4, r5, r6, r7, r8, r9, sl, pc}
    4388:	40000948 	.word	0x40000948
    438c:	40000974 	.word	0x40000974
    4390:	40000978 	.word	0x40000978

00004394 <prvInsertTimerInActiveList>:
    4394:	e1510002 	cmp	r1, r2
    4398:	e92d4010 	push	{r4, lr}
    439c:	e1a0c002 	mov	ip, r2
    43a0:	e5801004 	str	r1, [r0, #4]
    43a4:	e5800010 	str	r0, [r0, #16]
    43a8:	8a000009 	bhi	43d4 <prvInsertTimerInActiveList+0x40>
    43ac:	e5902018 	ldr	r2, [r0, #24]
    43b0:	e063300c 	rsb	r3, r3, ip
    43b4:	e1530002 	cmp	r3, r2
    43b8:	2a000012 	bcs	4408 <prvInsertTimerInActiveList+0x74>
    43bc:	e59f304c 	ldr	r3, [pc, #76]	; 4410 <prvInsertTimerInActiveList+0x7c>
    43c0:	e2801004 	add	r1, r0, #4	; 0x4
    43c4:	e5930000 	ldr	r0, [r3]
    43c8:	ebfff74d 	bl	2104 <vListInsert>
    43cc:	e3a00000 	mov	r0, #0	; 0x0
    43d0:	e8bd8010 	pop	{r4, pc}
    43d4:	e1520003 	cmp	r2, r3
    43d8:	23a04000 	movcs	r4, #0	; 0x0
    43dc:	33a04001 	movcc	r4, #1	; 0x1
    43e0:	e1510003 	cmp	r1, r3
    43e4:	33a04000 	movcc	r4, #0	; 0x0
    43e8:	e3540000 	cmp	r4, #0	; 0x0
    43ec:	1a000005 	bne	4408 <prvInsertTimerInActiveList+0x74>
    43f0:	e59f301c 	ldr	r3, [pc, #28]	; 4414 <prvInsertTimerInActiveList+0x80>
    43f4:	e2801004 	add	r1, r0, #4	; 0x4
    43f8:	e5930000 	ldr	r0, [r3]
    43fc:	ebfff740 	bl	2104 <vListInsert>
    4400:	e1a00004 	mov	r0, r4
    4404:	e8bd8010 	pop	{r4, pc}
    4408:	e3a00001 	mov	r0, #1	; 0x1
    440c:	e8bd8010 	pop	{r4, pc}
    4410:	40000978 	.word	0x40000978
    4414:	40000974 	.word	0x40000974

00004418 <prvTimerTask>:
    4418:	e92d4ff0 	push	{r4, r5, r6, r7, r8, r9, sl, fp, lr}
    441c:	e59f91e0 	ldr	r9, [pc, #480]	; 4604 <prvTimerTask+0x1ec>
    4420:	e24dd014 	sub	sp, sp, #20	; 0x14
    4424:	e59fa1dc 	ldr	sl, [pc, #476]	; 4608 <prvTimerTask+0x1f0>
    4428:	e28d8010 	add	r8, sp, #16	; 0x10
    442c:	e28db004 	add	fp, sp, #4	; 0x4
    4430:	e5992000 	ldr	r2, [r9]
    4434:	e5923000 	ldr	r3, [r2]
    4438:	e2734001 	rsbs	r4, r3, #1	; 0x1
    443c:	33a04000 	movcc	r4, #0	; 0x0
    4440:	e3540000 	cmp	r4, #0	; 0x0
    4444:	0592300c 	ldreq	r3, [r2, #12]
    4448:	13a05000 	movne	r5, #0	; 0x0
    444c:	05935000 	ldreq	r5, [r3]
    4450:	ebfffa37 	bl	2d34 <vTaskSuspendAll>
    4454:	e1a00008 	mov	r0, r8
    4458:	ebffff8f 	bl	429c <prvSampleTimeNow>
    445c:	e59d7010 	ldr	r7, [sp, #16]
    4460:	e3570000 	cmp	r7, #0	; 0x0
    4464:	e1a06000 	mov	r6, r0
    4468:	1a000028 	bne	4510 <prvTimerTask+0xf8>
    446c:	e2243001 	eor	r3, r4, #1	; 0x1
    4470:	e1550000 	cmp	r5, r0
    4474:	83a03000 	movhi	r3, #0	; 0x0
    4478:	92033001 	andls	r3, r3, #1	; 0x1
    447c:	e3530000 	cmp	r3, #0	; 0x0
    4480:	0a00001a 	beq	44f0 <prvTimerTask+0xd8>
    4484:	ebfffba5 	bl	3320 <xTaskResumeAll>
    4488:	e5993000 	ldr	r3, [r9]
    448c:	e593300c 	ldr	r3, [r3, #12]
    4490:	e593400c 	ldr	r4, [r3, #12]
    4494:	e2840004 	add	r0, r4, #4	; 0x4
    4498:	ebfff72e 	bl	2158 <vListRemove>
    449c:	e594301c 	ldr	r3, [r4, #28]
    44a0:	e3530001 	cmp	r3, #1	; 0x1
    44a4:	1a00000d 	bne	44e0 <prvTimerTask+0xc8>
    44a8:	e5941018 	ldr	r1, [r4, #24]
    44ac:	e1a02006 	mov	r2, r6
    44b0:	e0851001 	add	r1, r5, r1
    44b4:	e1a00004 	mov	r0, r4
    44b8:	e1a03005 	mov	r3, r5
    44bc:	ebffffb4 	bl	4394 <prvInsertTimerInActiveList>
    44c0:	e3500001 	cmp	r0, #1	; 0x1
    44c4:	1a000005 	bne	44e0 <prvTimerTask+0xc8>
    44c8:	e1a01007 	mov	r1, r7
    44cc:	e1a02005 	mov	r2, r5
    44d0:	e1a00004 	mov	r0, r4
    44d4:	e1a03007 	mov	r3, r7
    44d8:	e58d7000 	str	r7, [sp]
    44dc:	ebffff06 	bl	40fc <xTimerGenericCommand>
    44e0:	e1a00004 	mov	r0, r4
    44e4:	e1a0e00f 	mov	lr, pc
    44e8:	e594f024 	ldr	pc, [r4, #36]
    44ec:	ea000008 	b	4514 <prvTimerTask+0xfc>
    44f0:	e0601005 	rsb	r1, r0, r5
    44f4:	e59a0000 	ldr	r0, [sl]
    44f8:	ebfff861 	bl	2684 <vQueueWaitForMessageRestricted>
    44fc:	ebfffb87 	bl	3320 <xTaskResumeAll>
    4500:	e3500000 	cmp	r0, #0	; 0x0
    4504:	1a000002 	bne	4514 <prvTimerTask+0xfc>
    4508:	ef000000 	svc	0x00000000
    450c:	ea000000 	b	4514 <prvTimerTask+0xfc>
    4510:	ebfffb82 	bl	3320 <xTaskResumeAll>
    4514:	e1a00008 	mov	r0, r8
    4518:	ebffff5f 	bl	429c <prvSampleTimeNow>
    451c:	e1a06000 	mov	r6, r0
    4520:	ea00002f 	b	45e4 <prvTimerTask+0x1cc>
    4524:	e59d400c 	ldr	r4, [sp, #12]
    4528:	e3540000 	cmp	r4, #0	; 0x0
    452c:	0a000003 	beq	4540 <prvTimerTask+0x128>
    4530:	e5943014 	ldr	r3, [r4, #20]
    4534:	e3530000 	cmp	r3, #0	; 0x0
    4538:	12840004 	addne	r0, r4, #4	; 0x4
    453c:	1bfff705 	blne	2158 <vListRemove>
    4540:	e59d5004 	ldr	r5, [sp, #4]
    4544:	e3550002 	cmp	r5, #2	; 0x2
    4548:	0a00001b 	beq	45bc <prvTimerTask+0x1a4>
    454c:	e3550003 	cmp	r5, #3	; 0x3
    4550:	0a000021 	beq	45dc <prvTimerTask+0x1c4>
    4554:	e3550000 	cmp	r5, #0	; 0x0
    4558:	1a000021 	bne	45e4 <prvTimerTask+0x1cc>
    455c:	e59d2008 	ldr	r2, [sp, #8]
    4560:	e5941018 	ldr	r1, [r4, #24]
    4564:	e1a03002 	mov	r3, r2
    4568:	e0821001 	add	r1, r2, r1
    456c:	e1a00004 	mov	r0, r4
    4570:	e1a02006 	mov	r2, r6
    4574:	ebffff86 	bl	4394 <prvInsertTimerInActiveList>
    4578:	e3500001 	cmp	r0, #1	; 0x1
    457c:	1a000018 	bne	45e4 <prvTimerTask+0x1cc>
    4580:	e1a00004 	mov	r0, r4
    4584:	e1a0e00f 	mov	lr, pc
    4588:	e594f024 	ldr	pc, [r4, #36]
    458c:	e594301c 	ldr	r3, [r4, #28]
    4590:	e3530001 	cmp	r3, #1	; 0x1
    4594:	1a000012 	bne	45e4 <prvTimerTask+0x1cc>
    4598:	e5943018 	ldr	r3, [r4, #24]
    459c:	e59d2008 	ldr	r2, [sp, #8]
    45a0:	e1a01005 	mov	r1, r5
    45a4:	e0832002 	add	r2, r3, r2
    45a8:	e1a00004 	mov	r0, r4
    45ac:	e1a03005 	mov	r3, r5
    45b0:	e58d5000 	str	r5, [sp]
    45b4:	ebfffed0 	bl	40fc <xTimerGenericCommand>
    45b8:	ea000009 	b	45e4 <prvTimerTask+0x1cc>
    45bc:	e59d1008 	ldr	r1, [sp, #8]
    45c0:	e1a00004 	mov	r0, r4
    45c4:	e5841018 	str	r1, [r4, #24]
    45c8:	e1a02006 	mov	r2, r6
    45cc:	e0861001 	add	r1, r6, r1
    45d0:	e1a03006 	mov	r3, r6
    45d4:	ebffff6e 	bl	4394 <prvInsertTimerInActiveList>
    45d8:	ea000001 	b	45e4 <prvTimerTask+0x1cc>
    45dc:	e1a00004 	mov	r0, r4
    45e0:	eb000009 	bl	460c <vPortFree>
    45e4:	e3a02000 	mov	r2, #0	; 0x0
    45e8:	e59a0000 	ldr	r0, [sl]
    45ec:	e1a0100b 	mov	r1, fp
    45f0:	e1a03002 	mov	r3, r2
    45f4:	ebfff868 	bl	279c <xQueueGenericReceive>
    45f8:	e3500000 	cmp	r0, #0	; 0x0
    45fc:	1affffc8 	bne	4524 <prvTimerTask+0x10c>
    4600:	eaffff8a 	b	4430 <prvTimerTask+0x18>
    4604:	40000974 	.word	0x40000974
    4608:	40000944 	.word	0x40000944

0000460c <vPortFree>:
    460c:	e92d4010 	push	{r4, lr}
    4610:	e2504000 	subs	r4, r0, #0	; 0x0
    4614:	08bd8010 	popeq	{r4, pc}
    4618:	ebfff9c5 	bl	2d34 <vTaskSuspendAll>
    461c:	e1a00004 	mov	r0, r4
    4620:	eb00009d 	bl	489c <free>
    4624:	e8bd4010 	pop	{r4, lr}
    4628:	eafffb3c 	b	3320 <xTaskResumeAll>

0000462c <pvPortMalloc>:
    462c:	e92d4010 	push	{r4, lr}
    4630:	e1a04000 	mov	r4, r0
    4634:	ebfff9be 	bl	2d34 <vTaskSuspendAll>
    4638:	e1a00004 	mov	r0, r4
    463c:	eb00009b 	bl	48b0 <malloc>
    4640:	e1a04000 	mov	r4, r0
    4644:	ebfffb35 	bl	3320 <xTaskResumeAll>
    4648:	e3540000 	cmp	r4, #0	; 0x0
    464c:	0b000007 	bleq	4670 <vApplicationMallocFailedHook>
    4650:	e1a00004 	mov	r0, r4
    4654:	e8bd8010 	pop	{r4, pc}

00004658 <vApplicationIdleHook>:
    4658:	e59f200c 	ldr	r2, [pc, #12]	; 466c <vApplicationIdleHook+0x14>
    465c:	e59230c0 	ldr	r3, [r2, #192]
    4660:	e3833001 	orr	r3, r3, #1	; 0x1
    4664:	e58230c0 	str	r3, [r2, #192]
    4668:	e12fff1e 	bx	lr
    466c:	e01fc000 	.word	0xe01fc000

00004670 <vApplicationMallocFailedHook>:
    4670:	e52de004 	push	{lr}		; (str lr, [sp, #-4]!)
    4674:	e59f0004 	ldr	r0, [pc, #4]	; 4680 <vApplicationMallocFailedHook+0x10>
    4678:	ebfff37e 	bl	1478 <rprintf>
    467c:	eafffffe 	b	467c <vApplicationMallocFailedHook+0xc>
    4680:	00009186 	.word	0x00009186

00004684 <vApplicationStackOverflowHook>:
    4684:	e59f0010 	ldr	r0, [pc, #16]	; 469c <vApplicationStackOverflowHook+0x18>
    4688:	e52de004 	push	{lr}		; (str lr, [sp, #-4]!)
    468c:	ebfff379 	bl	1478 <rprintf>
    4690:	e59f0008 	ldr	r0, [pc, #8]	; 46a0 <vApplicationStackOverflowHook+0x1c>
    4694:	ebfff377 	bl	1478 <rprintf>
    4698:	eafffffe 	b	4698 <vApplicationStackOverflowHook+0x14>
    469c:	000091bc 	.word	0x000091bc
    46a0:	000091e8 	.word	0x000091e8

000046a4 <__aeabi_uidiv>:
    46a4:	e2512001 	subs	r2, r1, #1	; 0x1
    46a8:	012fff1e 	bxeq	lr
    46ac:	3a000036 	bcc	478c <__aeabi_uidiv+0xe8>
    46b0:	e1500001 	cmp	r0, r1
    46b4:	9a000022 	bls	4744 <__aeabi_uidiv+0xa0>
    46b8:	e1110002 	tst	r1, r2
    46bc:	0a000023 	beq	4750 <__aeabi_uidiv+0xac>
    46c0:	e311020e 	tst	r1, #-536870912	; 0xe0000000
    46c4:	01a01181 	lsleq	r1, r1, #3
    46c8:	03a03008 	moveq	r3, #8	; 0x8
    46cc:	13a03001 	movne	r3, #1	; 0x1
    46d0:	e3510201 	cmp	r1, #268435456	; 0x10000000
    46d4:	31510000 	cmpcc	r1, r0
    46d8:	31a01201 	lslcc	r1, r1, #4
    46dc:	31a03203 	lslcc	r3, r3, #4
    46e0:	3afffffa 	bcc	46d0 <__aeabi_uidiv+0x2c>
    46e4:	e3510102 	cmp	r1, #-2147483648	; 0x80000000
    46e8:	31510000 	cmpcc	r1, r0
    46ec:	31a01081 	lslcc	r1, r1, #1
    46f0:	31a03083 	lslcc	r3, r3, #1
    46f4:	3afffffa 	bcc	46e4 <__aeabi_uidiv+0x40>
    46f8:	e3a02000 	mov	r2, #0	; 0x0
    46fc:	e1500001 	cmp	r0, r1
    4700:	20400001 	subcs	r0, r0, r1
    4704:	21822003 	orrcs	r2, r2, r3
    4708:	e15000a1 	cmp	r0, r1, lsr #1
    470c:	204000a1 	subcs	r0, r0, r1, lsr #1
    4710:	218220a3 	orrcs	r2, r2, r3, lsr #1
    4714:	e1500121 	cmp	r0, r1, lsr #2
    4718:	20400121 	subcs	r0, r0, r1, lsr #2
    471c:	21822123 	orrcs	r2, r2, r3, lsr #2
    4720:	e15001a1 	cmp	r0, r1, lsr #3
    4724:	204001a1 	subcs	r0, r0, r1, lsr #3
    4728:	218221a3 	orrcs	r2, r2, r3, lsr #3
    472c:	e3500000 	cmp	r0, #0	; 0x0
    4730:	11b03223 	lsrsne	r3, r3, #4
    4734:	11a01221 	lsrne	r1, r1, #4
    4738:	1affffef 	bne	46fc <__aeabi_uidiv+0x58>
    473c:	e1a00002 	mov	r0, r2
    4740:	e12fff1e 	bx	lr
    4744:	03a00001 	moveq	r0, #1	; 0x1
    4748:	13a00000 	movne	r0, #0	; 0x0
    474c:	e12fff1e 	bx	lr
    4750:	e3510801 	cmp	r1, #65536	; 0x10000
    4754:	21a01821 	lsrcs	r1, r1, #16
    4758:	23a02010 	movcs	r2, #16	; 0x10
    475c:	33a02000 	movcc	r2, #0	; 0x0
    4760:	e3510c01 	cmp	r1, #256	; 0x100
    4764:	21a01421 	lsrcs	r1, r1, #8
    4768:	22822008 	addcs	r2, r2, #8	; 0x8
    476c:	e3510010 	cmp	r1, #16	; 0x10
    4770:	21a01221 	lsrcs	r1, r1, #4
    4774:	22822004 	addcs	r2, r2, #4	; 0x4
    4778:	e3510004 	cmp	r1, #4	; 0x4
    477c:	82822003 	addhi	r2, r2, #3	; 0x3
    4780:	908220a1 	addls	r2, r2, r1, lsr #1
    4784:	e1a00230 	lsr	r0, r0, r2
    4788:	e12fff1e 	bx	lr
    478c:	e52de008 	str	lr, [sp, #-8]!
    4790:	eb00003a 	bl	4880 <__aeabi_idiv0>
    4794:	e3a00000 	mov	r0, #0	; 0x0
    4798:	e49df008 	ldr	pc, [sp], #8

0000479c <__aeabi_uidivmod>:
    479c:	e92d4003 	push	{r0, r1, lr}
    47a0:	ebffffbf 	bl	46a4 <__aeabi_uidiv>
    47a4:	e8bd4006 	pop	{r1, r2, lr}
    47a8:	e0030092 	mul	r3, r2, r0
    47ac:	e0411003 	sub	r1, r1, r3
    47b0:	e12fff1e 	bx	lr

000047b4 <__umodsi3>:
    47b4:	e2512001 	subs	r2, r1, #1	; 0x1
    47b8:	3a00002c 	bcc	4870 <__umodsi3+0xbc>
    47bc:	11500001 	cmpne	r0, r1
    47c0:	03a00000 	moveq	r0, #0	; 0x0
    47c4:	81110002 	tsthi	r1, r2
    47c8:	00000002 	andeq	r0, r0, r2
    47cc:	912fff1e 	bxls	lr
    47d0:	e3a02000 	mov	r2, #0	; 0x0
    47d4:	e3510201 	cmp	r1, #268435456	; 0x10000000
    47d8:	31510000 	cmpcc	r1, r0
    47dc:	31a01201 	lslcc	r1, r1, #4
    47e0:	32822004 	addcc	r2, r2, #4	; 0x4
    47e4:	3afffffa 	bcc	47d4 <__umodsi3+0x20>
    47e8:	e3510102 	cmp	r1, #-2147483648	; 0x80000000
    47ec:	31510000 	cmpcc	r1, r0
    47f0:	31a01081 	lslcc	r1, r1, #1
    47f4:	32822001 	addcc	r2, r2, #1	; 0x1
    47f8:	3afffffa 	bcc	47e8 <__umodsi3+0x34>
    47fc:	e2522003 	subs	r2, r2, #3	; 0x3
    4800:	ba00000e 	blt	4840 <__umodsi3+0x8c>
    4804:	e1500001 	cmp	r0, r1
    4808:	20400001 	subcs	r0, r0, r1
    480c:	e15000a1 	cmp	r0, r1, lsr #1
    4810:	204000a1 	subcs	r0, r0, r1, lsr #1
    4814:	e1500121 	cmp	r0, r1, lsr #2
    4818:	20400121 	subcs	r0, r0, r1, lsr #2
    481c:	e15001a1 	cmp	r0, r1, lsr #3
    4820:	204001a1 	subcs	r0, r0, r1, lsr #3
    4824:	e3500001 	cmp	r0, #1	; 0x1
    4828:	e1a01221 	lsr	r1, r1, #4
    482c:	a2522004 	subsge	r2, r2, #4	; 0x4
    4830:	aafffff3 	bge	4804 <__umodsi3+0x50>
    4834:	e3120003 	tst	r2, #3	; 0x3
    4838:	13300000 	teqne	r0, #0	; 0x0
    483c:	0a00000a 	beq	486c <__umodsi3+0xb8>
    4840:	e3720002 	cmn	r2, #2	; 0x2
    4844:	ba000006 	blt	4864 <__umodsi3+0xb0>
    4848:	0a000002 	beq	4858 <__umodsi3+0xa4>
    484c:	e1500001 	cmp	r0, r1
    4850:	20400001 	subcs	r0, r0, r1
    4854:	e1a010a1 	lsr	r1, r1, #1
    4858:	e1500001 	cmp	r0, r1
    485c:	20400001 	subcs	r0, r0, r1
    4860:	e1a010a1 	lsr	r1, r1, #1
    4864:	e1500001 	cmp	r0, r1
    4868:	20400001 	subcs	r0, r0, r1
    486c:	e12fff1e 	bx	lr
    4870:	e52de008 	str	lr, [sp, #-8]!
    4874:	eb000001 	bl	4880 <__aeabi_idiv0>
    4878:	e3a00000 	mov	r0, #0	; 0x0
    487c:	e49df008 	ldr	pc, [sp], #8

00004880 <__aeabi_idiv0>:
    4880:	e12fff1e 	bx	lr

00004884 <_atoi_r>:
    4884:	e3a02000 	mov	r2, #0	; 0x0
    4888:	e3a0300a 	mov	r3, #10	; 0xa
    488c:	ea0003b8 	b	5774 <_strtol_r>

00004890 <atoi>:
    4890:	e3a01000 	mov	r1, #0	; 0x0
    4894:	e3a0200a 	mov	r2, #10	; 0xa
    4898:	ea000422 	b	5928 <strtol>

0000489c <free>:
    489c:	e59f3008 	ldr	r3, [pc, #8]	; 48ac <free+0x10>
    48a0:	e1a01000 	mov	r1, r0
    48a4:	e5930000 	ldr	r0, [r3]
    48a8:	ea0009d6 	b	7008 <_free_r>
    48ac:	4000045c 	.word	0x4000045c

000048b0 <malloc>:
    48b0:	e59f3008 	ldr	r3, [pc, #8]	; 48c0 <malloc+0x10>
    48b4:	e1a01000 	mov	r1, r0
    48b8:	e5930000 	ldr	r0, [r3]
    48bc:	ea000000 	b	48c4 <_malloc_r>
    48c0:	4000045c 	.word	0x4000045c

000048c4 <_malloc_r>:
    48c4:	e1a03001 	mov	r3, r1
    48c8:	e281100b 	add	r1, r1, #11	; 0xb
    48cc:	e3510016 	cmp	r1, #22	; 0x16
    48d0:	e92d4ff0 	push	{r4, r5, r6, r7, r8, r9, sl, fp, lr}
    48d4:	83c16007 	bichi	r6, r1, #7	; 0x7
    48d8:	93a06010 	movls	r6, #16	; 0x10
    48dc:	93a01000 	movls	r1, #0	; 0x0
    48e0:	81a01fa6 	lsrhi	r1, r6, #31
    48e4:	e1560003 	cmp	r6, r3
    48e8:	21a03001 	movcs	r3, r1
    48ec:	33813001 	orrcc	r3, r1, #1	; 0x1
    48f0:	e3530000 	cmp	r3, #0	; 0x0
    48f4:	13a0300c 	movne	r3, #12	; 0xc
    48f8:	e1a08000 	mov	r8, r0
    48fc:	15803000 	strne	r3, [r0]
    4900:	13a05000 	movne	r5, #0	; 0x0
    4904:	1a000015 	bne	4960 <_malloc_r+0x9c>
    4908:	eb000258 	bl	5270 <__malloc_lock>
    490c:	e3560f7e 	cmp	r6, #504	; 0x1f8
    4910:	2a000014 	bcs	4968 <_malloc_r+0xa4>
    4914:	e59fe6c0 	ldr	lr, [pc, #1728]	; 4fdc <_malloc_r+0x718>
    4918:	e08e3006 	add	r3, lr, r6
    491c:	e593400c 	ldr	r4, [r3, #12]
    4920:	e1540003 	cmp	r4, r3
    4924:	e1a021a6 	lsr	r2, r6, #3
    4928:	0a00015a 	beq	4e98 <_malloc_r+0x5d4>
    492c:	e5943004 	ldr	r3, [r4, #4]
    4930:	e3c33003 	bic	r3, r3, #3	; 0x3
    4934:	e0843003 	add	r3, r4, r3
    4938:	e5932004 	ldr	r2, [r3, #4]
    493c:	e594000c 	ldr	r0, [r4, #12]
    4940:	e5941008 	ldr	r1, [r4, #8]
    4944:	e3822001 	orr	r2, r2, #1	; 0x1
    4948:	e5801008 	str	r1, [r0, #8]
    494c:	e581000c 	str	r0, [r1, #12]
    4950:	e5832004 	str	r2, [r3, #4]
    4954:	e1a00008 	mov	r0, r8
    4958:	eb000245 	bl	5274 <__malloc_unlock>
    495c:	e2845008 	add	r5, r4, #8	; 0x8
    4960:	e1a00005 	mov	r0, r5
    4964:	e8bd8ff0 	pop	{r4, r5, r6, r7, r8, r9, sl, fp, pc}
    4968:	e1b024a6 	lsrs	r2, r6, #9
    496c:	01a021a6 	lsreq	r2, r6, #3
    4970:	01a03182 	lsleq	r3, r2, #3
    4974:	0a000004 	beq	498c <_malloc_r+0xc8>
    4978:	e3520004 	cmp	r2, #4	; 0x4
    497c:	91a03326 	lsrls	r3, r6, #6
    4980:	92832038 	addls	r2, r3, #56	; 0x38
    4984:	91a03182 	lslls	r3, r2, #3
    4988:	8a00006b 	bhi	4b3c <_malloc_r+0x278>
    498c:	e59fe648 	ldr	lr, [pc, #1608]	; 4fdc <_malloc_r+0x718>
    4990:	e08e0003 	add	r0, lr, r3
    4994:	e590400c 	ldr	r4, [r0, #12]
    4998:	e1500004 	cmp	r0, r4
    499c:	1a000005 	bne	49b8 <_malloc_r+0xf4>
    49a0:	ea00000a 	b	49d0 <_malloc_r+0x10c>
    49a4:	e3510000 	cmp	r1, #0	; 0x0
    49a8:	aa00007a 	bge	4b98 <_malloc_r+0x2d4>
    49ac:	e594400c 	ldr	r4, [r4, #12]
    49b0:	e1500004 	cmp	r0, r4
    49b4:	0a000005 	beq	49d0 <_malloc_r+0x10c>
    49b8:	e5943004 	ldr	r3, [r4, #4]
    49bc:	e3c33003 	bic	r3, r3, #3	; 0x3
    49c0:	e0661003 	rsb	r1, r6, r3
    49c4:	e351000f 	cmp	r1, #15	; 0xf
    49c8:	dafffff5 	ble	49a4 <_malloc_r+0xe0>
    49cc:	e2422001 	sub	r2, r2, #1	; 0x1
    49d0:	e2825001 	add	r5, r2, #1	; 0x1
    49d4:	e59f7604 	ldr	r7, [pc, #1540]	; 4fe0 <_malloc_r+0x71c>
    49d8:	e5974008 	ldr	r4, [r7, #8]
    49dc:	e1570004 	cmp	r7, r4
    49e0:	0a000017 	beq	4a44 <_malloc_r+0x180>
    49e4:	e5943004 	ldr	r3, [r4, #4]
    49e8:	e3c3c003 	bic	ip, r3, #3	; 0x3
    49ec:	e066000c 	rsb	r0, r6, ip
    49f0:	e350000f 	cmp	r0, #15	; 0xf
    49f4:	ca0000e9 	bgt	4da0 <_malloc_r+0x4dc>
    49f8:	e3500000 	cmp	r0, #0	; 0x0
    49fc:	e587700c 	str	r7, [r7, #12]
    4a00:	e5877008 	str	r7, [r7, #8]
    4a04:	aa000043 	bge	4b18 <_malloc_r+0x254>
    4a08:	e35c0c02 	cmp	ip, #512	; 0x200
    4a0c:	2a0000f1 	bcs	4dd8 <_malloc_r+0x514>
    4a10:	e1a031ac 	lsr	r3, ip, #3
    4a14:	e59e1004 	ldr	r1, [lr, #4]
    4a18:	e1a00143 	asr	r0, r3, #2
    4a1c:	e3a02001 	mov	r2, #1	; 0x1
    4a20:	e1811012 	orr	r1, r1, r2, lsl r0
    4a24:	e1a03183 	lsl	r3, r3, #3
    4a28:	e08e3003 	add	r3, lr, r3
    4a2c:	e5932008 	ldr	r2, [r3, #8]
    4a30:	e584300c 	str	r3, [r4, #12]
    4a34:	e5842008 	str	r2, [r4, #8]
    4a38:	e58e1004 	str	r1, [lr, #4]
    4a3c:	e582400c 	str	r4, [r2, #12]
    4a40:	e5834008 	str	r4, [r3, #8]
    4a44:	e247a008 	sub	sl, r7, #8	; 0x8
    4a48:	e1a02145 	asr	r2, r5, #2
    4a4c:	e3a03001 	mov	r3, #1	; 0x1
    4a50:	e1a00213 	lsl	r0, r3, r2
    4a54:	e59a1004 	ldr	r1, [sl, #4]
    4a58:	e1500001 	cmp	r0, r1
    4a5c:	8a00005a 	bhi	4bcc <_malloc_r+0x308>
    4a60:	e1100001 	tst	r0, r1
    4a64:	1a000008 	bne	4a8c <_malloc_r+0x1c8>
    4a68:	e1a00310 	lsl	r0, r0, r3
    4a6c:	e3c53003 	bic	r3, r5, #3	; 0x3
    4a70:	e1100001 	tst	r0, r1
    4a74:	e2835004 	add	r5, r3, #4	; 0x4
    4a78:	1a000003 	bne	4a8c <_malloc_r+0x1c8>
    4a7c:	e1a00080 	lsl	r0, r0, #1
    4a80:	e1100001 	tst	r0, r1
    4a84:	e2855004 	add	r5, r5, #4	; 0x4
    4a88:	0afffffb 	beq	4a7c <_malloc_r+0x1b8>
    4a8c:	e1a03185 	lsl	r3, r5, #3
    4a90:	e08a1003 	add	r1, sl, r3
    4a94:	e1a09005 	mov	r9, r5
    4a98:	e1a02001 	mov	r2, r1
    4a9c:	e592400c 	ldr	r4, [r2, #12]
    4aa0:	e1520004 	cmp	r2, r4
    4aa4:	1a000005 	bne	4ac0 <_malloc_r+0x1fc>
    4aa8:	ea000100 	b	4eb0 <_malloc_r+0x5ec>
    4aac:	e35e0000 	cmp	lr, #0	; 0x0
    4ab0:	aa000103 	bge	4ec4 <_malloc_r+0x600>
    4ab4:	e594400c 	ldr	r4, [r4, #12]
    4ab8:	e1520004 	cmp	r2, r4
    4abc:	0a0000fb 	beq	4eb0 <_malloc_r+0x5ec>
    4ac0:	e5943004 	ldr	r3, [r4, #4]
    4ac4:	e3c33003 	bic	r3, r3, #3	; 0x3
    4ac8:	e066e003 	rsb	lr, r6, r3
    4acc:	e35e000f 	cmp	lr, #15	; 0xf
    4ad0:	dafffff5 	ble	4aac <_malloc_r+0x1e8>
    4ad4:	e1a05004 	mov	r5, r4
    4ad8:	e5b50008 	ldr	r0, [r5, #8]!
    4adc:	e594c00c 	ldr	ip, [r4, #12]
    4ae0:	e0843006 	add	r3, r4, r6
    4ae4:	e3861001 	orr	r1, r6, #1	; 0x1
    4ae8:	e38e2001 	orr	r2, lr, #1	; 0x1
    4aec:	e58c0008 	str	r0, [ip, #8]
    4af0:	e580c00c 	str	ip, [r0, #12]
    4af4:	e5841004 	str	r1, [r4, #4]
    4af8:	e5873008 	str	r3, [r7, #8]
    4afc:	e587300c 	str	r3, [r7, #12]
    4b00:	e783e00e 	str	lr, [r3, lr]
    4b04:	e9830084 	stmib	r3, {r2, r7}
    4b08:	e1a00008 	mov	r0, r8
    4b0c:	e583700c 	str	r7, [r3, #12]
    4b10:	eb0001d7 	bl	5274 <__malloc_unlock>
    4b14:	eaffff91 	b	4960 <_malloc_r+0x9c>
    4b18:	e084200c 	add	r2, r4, ip
    4b1c:	e5923004 	ldr	r3, [r2, #4]
    4b20:	e3833001 	orr	r3, r3, #1	; 0x1
    4b24:	e1a00008 	mov	r0, r8
    4b28:	e5823004 	str	r3, [r2, #4]
    4b2c:	e2845008 	add	r5, r4, #8	; 0x8
    4b30:	eb0001cf 	bl	5274 <__malloc_unlock>
    4b34:	e1a00005 	mov	r0, r5
    4b38:	e8bd8ff0 	pop	{r4, r5, r6, r7, r8, r9, sl, fp, pc}
    4b3c:	e3520014 	cmp	r2, #20	; 0x14
    4b40:	9282205b 	addls	r2, r2, #91	; 0x5b
    4b44:	91a03182 	lslls	r3, r2, #3
    4b48:	9affff8f 	bls	498c <_malloc_r+0xc8>
    4b4c:	e3520054 	cmp	r2, #84	; 0x54
    4b50:	91a03626 	lsrls	r3, r6, #12
    4b54:	9283206e 	addls	r2, r3, #110	; 0x6e
    4b58:	91a03182 	lslls	r3, r2, #3
    4b5c:	9affff8a 	bls	498c <_malloc_r+0xc8>
    4b60:	e3520f55 	cmp	r2, #340	; 0x154
    4b64:	91a037a6 	lsrls	r3, r6, #15
    4b68:	92832077 	addls	r2, r3, #119	; 0x77
    4b6c:	91a03182 	lslls	r3, r2, #3
    4b70:	9affff85 	bls	498c <_malloc_r+0xc8>
    4b74:	e3a03e55 	mov	r3, #1360	; 0x550
    4b78:	e2833004 	add	r3, r3, #4	; 0x4
    4b7c:	e1520003 	cmp	r2, r3
    4b80:	91a03926 	lsrls	r3, r6, #18
    4b84:	9283207c 	addls	r2, r3, #124	; 0x7c
    4b88:	83a0207e 	movhi	r2, #126	; 0x7e
    4b8c:	82433f59 	subhi	r3, r3, #356	; 0x164
    4b90:	91a03182 	lslls	r3, r2, #3
    4b94:	eaffff7c 	b	498c <_malloc_r+0xc8>
    4b98:	e0840003 	add	r0, r4, r3
    4b9c:	e5903004 	ldr	r3, [r0, #4]
    4ba0:	e594100c 	ldr	r1, [r4, #12]
    4ba4:	e5942008 	ldr	r2, [r4, #8]
    4ba8:	e3833001 	orr	r3, r3, #1	; 0x1
    4bac:	e5803004 	str	r3, [r0, #4]
    4bb0:	e5812008 	str	r2, [r1, #8]
    4bb4:	e1a00008 	mov	r0, r8
    4bb8:	e582100c 	str	r1, [r2, #12]
    4bbc:	e2845008 	add	r5, r4, #8	; 0x8
    4bc0:	eb0001ab 	bl	5274 <__malloc_unlock>
    4bc4:	e1a00005 	mov	r0, r5
    4bc8:	e8bd8ff0 	pop	{r4, r5, r6, r7, r8, r9, sl, fp, pc}
    4bcc:	e59a5008 	ldr	r5, [sl, #8]
    4bd0:	e5953004 	ldr	r3, [r5, #4]
    4bd4:	e3c39003 	bic	r9, r3, #3	; 0x3
    4bd8:	e0660009 	rsb	r0, r6, r9
    4bdc:	e350000f 	cmp	r0, #15	; 0xf
    4be0:	c3a03000 	movgt	r3, #0	; 0x0
    4be4:	d3a03001 	movle	r3, #1	; 0x1
    4be8:	e1560009 	cmp	r6, r9
    4bec:	83833001 	orrhi	r3, r3, #1	; 0x1
    4bf0:	e3530000 	cmp	r3, #0	; 0x0
    4bf4:	0a00005e 	beq	4d74 <_malloc_r+0x4b0>
    4bf8:	e59f33e4 	ldr	r3, [pc, #996]	; 4fe4 <_malloc_r+0x720>
    4bfc:	e59f03e4 	ldr	r0, [pc, #996]	; 4fe8 <_malloc_r+0x724>
    4c00:	e5932000 	ldr	r2, [r3]
    4c04:	e5901000 	ldr	r1, [r0]
    4c08:	e2822010 	add	r2, r2, #16	; 0x10
    4c0c:	e3710001 	cmn	r1, #1	; 0x1
    4c10:	e0824006 	add	r4, r2, r6
    4c14:	12843eff 	addne	r3, r4, #4080	; 0xff0
    4c18:	1283300f 	addne	r3, r3, #15	; 0xf
    4c1c:	13c34eff 	bicne	r4, r3, #4080	; 0xff0
    4c20:	13c4400f 	bicne	r4, r4, #15	; 0xf
    4c24:	e1a00008 	mov	r0, r8
    4c28:	e1a01004 	mov	r1, r4
    4c2c:	ebfff4c2 	bl	1f3c <_sbrk_r>
    4c30:	e3700001 	cmn	r0, #1	; 0x1
    4c34:	e1a07000 	mov	r7, r0
    4c38:	0a000042 	beq	4d48 <_malloc_r+0x484>
    4c3c:	e0852009 	add	r2, r5, r9
    4c40:	e1520000 	cmp	r2, r0
    4c44:	9a0000c2 	bls	4f54 <_malloc_r+0x690>
    4c48:	e155000a 	cmp	r5, sl
    4c4c:	1a00003d 	bne	4d48 <_malloc_r+0x484>
    4c50:	e59fb394 	ldr	fp, [pc, #916]	; 4fec <_malloc_r+0x728>
    4c54:	e59b3000 	ldr	r3, [fp]
    4c58:	e0841003 	add	r1, r4, r3
    4c5c:	e58b1000 	str	r1, [fp]
    4c60:	e59f0380 	ldr	r0, [pc, #896]	; 4fe8 <_malloc_r+0x724>
    4c64:	e5903000 	ldr	r3, [r0]
    4c68:	e3730001 	cmn	r3, #1	; 0x1
    4c6c:	10623007 	rsbne	r3, r2, r7
    4c70:	10833001 	addne	r3, r3, r1
    4c74:	01a03000 	moveq	r3, r0
    4c78:	05837000 	streq	r7, [r3]
    4c7c:	158b3000 	strne	r3, [fp]
    4c80:	e2173007 	ands	r3, r7, #7	; 0x7
    4c84:	12633008 	rsbne	r3, r3, #8	; 0x8
    4c88:	10877003 	addne	r7, r7, r3
    4c8c:	12831a01 	addne	r1, r3, #4096	; 0x1000
    4c90:	e0873004 	add	r3, r7, r4
    4c94:	e1a03a03 	lsl	r3, r3, #20
    4c98:	e1a03a23 	lsr	r3, r3, #20
    4c9c:	03a01a01 	moveq	r1, #4096	; 0x1000
    4ca0:	e0634001 	rsb	r4, r3, r1
    4ca4:	e1a01004 	mov	r1, r4
    4ca8:	e1a00008 	mov	r0, r8
    4cac:	ebfff4a2 	bl	1f3c <_sbrk_r>
    4cb0:	e3700001 	cmn	r0, #1	; 0x1
    4cb4:	10673000 	rsbne	r3, r7, r0
    4cb8:	10833004 	addne	r3, r3, r4
    4cbc:	13830001 	orrne	r0, r3, #1	; 0x1
    4cc0:	e59b3000 	ldr	r3, [fp]
    4cc4:	03a04000 	moveq	r4, #0	; 0x0
    4cc8:	02800002 	addeq	r0, r0, #2	; 0x2
    4ccc:	e0843003 	add	r3, r4, r3
    4cd0:	e155000a 	cmp	r5, sl
    4cd4:	e58b3000 	str	r3, [fp]
    4cd8:	e5870004 	str	r0, [r7, #4]
    4cdc:	e58a7008 	str	r7, [sl, #8]
    4ce0:	0a00000f 	beq	4d24 <_malloc_r+0x460>
    4ce4:	e359000f 	cmp	r9, #15	; 0xf
    4ce8:	93a03001 	movls	r3, #1	; 0x1
    4cec:	95873004 	strls	r3, [r7, #4]
    4cf0:	9a000014 	bls	4d48 <_malloc_r+0x484>
    4cf4:	e249200c 	sub	r2, r9, #12	; 0xc
    4cf8:	e3c22007 	bic	r2, r2, #7	; 0x7
    4cfc:	e0850002 	add	r0, r5, r2
    4d00:	e3a01005 	mov	r1, #5	; 0x5
    4d04:	e5801008 	str	r1, [r0, #8]
    4d08:	e5801004 	str	r1, [r0, #4]
    4d0c:	e5953004 	ldr	r3, [r5, #4]
    4d10:	e2033001 	and	r3, r3, #1	; 0x1
    4d14:	e352000f 	cmp	r2, #15	; 0xf
    4d18:	e1822003 	orr	r2, r2, r3
    4d1c:	e5852004 	str	r2, [r5, #4]
    4d20:	8a0000a0 	bhi	4fa8 <_malloc_r+0x6e4>
    4d24:	e59f12c4 	ldr	r1, [pc, #708]	; 4ff0 <_malloc_r+0x72c>
    4d28:	e59b2000 	ldr	r2, [fp]
    4d2c:	e5913000 	ldr	r3, [r1]
    4d30:	e1520003 	cmp	r2, r3
    4d34:	85812000 	strhi	r2, [r1]
    4d38:	e59f12b4 	ldr	r1, [pc, #692]	; 4ff4 <_malloc_r+0x730>
    4d3c:	e5913000 	ldr	r3, [r1]
    4d40:	e1520003 	cmp	r2, r3
    4d44:	85812000 	strhi	r2, [r1]
    4d48:	e59a5008 	ldr	r5, [sl, #8]
    4d4c:	e5952004 	ldr	r2, [r5, #4]
    4d50:	e3c22003 	bic	r2, r2, #3	; 0x3
    4d54:	e0660002 	rsb	r0, r6, r2
    4d58:	e350000f 	cmp	r0, #15	; 0xf
    4d5c:	c3a03000 	movgt	r3, #0	; 0x0
    4d60:	d3a03001 	movle	r3, #1	; 0x1
    4d64:	e1560002 	cmp	r6, r2
    4d68:	83833001 	orrhi	r3, r3, #1	; 0x1
    4d6c:	e3530000 	cmp	r3, #0	; 0x0
    4d70:	1a000095 	bne	4fcc <_malloc_r+0x708>
    4d74:	e0851006 	add	r1, r5, r6
    4d78:	e3802001 	orr	r2, r0, #1	; 0x1
    4d7c:	e3863001 	orr	r3, r6, #1	; 0x1
    4d80:	e5853004 	str	r3, [r5, #4]
    4d84:	e1a00008 	mov	r0, r8
    4d88:	e5812004 	str	r2, [r1, #4]
    4d8c:	e58a1008 	str	r1, [sl, #8]
    4d90:	e2855008 	add	r5, r5, #8	; 0x8
    4d94:	eb000136 	bl	5274 <__malloc_unlock>
    4d98:	e1a00005 	mov	r0, r5
    4d9c:	e8bd8ff0 	pop	{r4, r5, r6, r7, r8, r9, sl, fp, pc}
    4da0:	e0842006 	add	r2, r4, r6
    4da4:	e3801001 	orr	r1, r0, #1	; 0x1
    4da8:	e3863001 	orr	r3, r6, #1	; 0x1
    4dac:	e7820000 	str	r0, [r2, r0]
    4db0:	e5843004 	str	r3, [r4, #4]
    4db4:	e587200c 	str	r2, [r7, #12]
    4db8:	e5872008 	str	r2, [r7, #8]
    4dbc:	e1a00008 	mov	r0, r8
    4dc0:	e9820082 	stmib	r2, {r1, r7}
    4dc4:	e582700c 	str	r7, [r2, #12]
    4dc8:	e2845008 	add	r5, r4, #8	; 0x8
    4dcc:	eb000128 	bl	5274 <__malloc_unlock>
    4dd0:	e1a00005 	mov	r0, r5
    4dd4:	e8bd8ff0 	pop	{r4, r5, r6, r7, r8, r9, sl, fp, pc}
    4dd8:	e1a014ac 	lsr	r1, ip, #9
    4ddc:	e3510004 	cmp	r1, #4	; 0x4
    4de0:	91a0332c 	lsrls	r3, ip, #6
    4de4:	92831038 	addls	r1, r3, #56	; 0x38
    4de8:	91a03181 	lslls	r3, r1, #3
    4dec:	9a000015 	bls	4e48 <_malloc_r+0x584>
    4df0:	e3510014 	cmp	r1, #20	; 0x14
    4df4:	9281105b 	addls	r1, r1, #91	; 0x5b
    4df8:	91a03181 	lslls	r3, r1, #3
    4dfc:	9a000011 	bls	4e48 <_malloc_r+0x584>
    4e00:	e3510054 	cmp	r1, #84	; 0x54
    4e04:	91a0362c 	lsrls	r3, ip, #12
    4e08:	9283106e 	addls	r1, r3, #110	; 0x6e
    4e0c:	91a03181 	lslls	r3, r1, #3
    4e10:	9a00000c 	bls	4e48 <_malloc_r+0x584>
    4e14:	e3510f55 	cmp	r1, #340	; 0x154
    4e18:	91a037ac 	lsrls	r3, ip, #15
    4e1c:	92831077 	addls	r1, r3, #119	; 0x77
    4e20:	91a03181 	lslls	r3, r1, #3
    4e24:	9a000007 	bls	4e48 <_malloc_r+0x584>
    4e28:	e3a03e55 	mov	r3, #1360	; 0x550
    4e2c:	e2833004 	add	r3, r3, #4	; 0x4
    4e30:	e1510003 	cmp	r1, r3
    4e34:	91a0392c 	lsrls	r3, ip, #18
    4e38:	9283107c 	addls	r1, r3, #124	; 0x7c
    4e3c:	83a0107e 	movhi	r1, #126	; 0x7e
    4e40:	82433f59 	subhi	r3, r3, #356	; 0x164
    4e44:	91a03181 	lslls	r3, r1, #3
    4e48:	e08e0003 	add	r0, lr, r3
    4e4c:	e590e008 	ldr	lr, [r0, #8]
    4e50:	e15e0000 	cmp	lr, r0
    4e54:	e59fa180 	ldr	sl, [pc, #384]	; 4fdc <_malloc_r+0x718>
    4e58:	11a0200e 	movne	r2, lr
    4e5c:	0a00004a 	beq	4f8c <_malloc_r+0x6c8>
    4e60:	e5923004 	ldr	r3, [r2, #4]
    4e64:	e3c33003 	bic	r3, r3, #3	; 0x3
    4e68:	e15c0003 	cmp	ip, r3
    4e6c:	2a000002 	bcs	4e7c <_malloc_r+0x5b8>
    4e70:	e5922008 	ldr	r2, [r2, #8]
    4e74:	e1500002 	cmp	r0, r2
    4e78:	1afffff8 	bne	4e60 <_malloc_r+0x59c>
    4e7c:	e592300c 	ldr	r3, [r2, #12]
    4e80:	e1a0e002 	mov	lr, r2
    4e84:	e584300c 	str	r3, [r4, #12]
    4e88:	e584e008 	str	lr, [r4, #8]
    4e8c:	e58e400c 	str	r4, [lr, #12]
    4e90:	e5834008 	str	r4, [r3, #8]
    4e94:	eafffeeb 	b	4a48 <_malloc_r+0x184>
    4e98:	e2843008 	add	r3, r4, #8	; 0x8
    4e9c:	e593400c 	ldr	r4, [r3, #12]
    4ea0:	e1530004 	cmp	r3, r4
    4ea4:	02825002 	addeq	r5, r2, #2	; 0x2
    4ea8:	0afffec9 	beq	49d4 <_malloc_r+0x110>
    4eac:	eafffe9e 	b	492c <_malloc_r+0x68>
    4eb0:	e2899001 	add	r9, r9, #1	; 0x1
    4eb4:	e3190003 	tst	r9, #3	; 0x3
    4eb8:	0a00000d 	beq	4ef4 <_malloc_r+0x630>
    4ebc:	e2822008 	add	r2, r2, #8	; 0x8
    4ec0:	eafffef5 	b	4a9c <_malloc_r+0x1d8>
    4ec4:	e0840003 	add	r0, r4, r3
    4ec8:	e5903004 	ldr	r3, [r0, #4]
    4ecc:	e1a05004 	mov	r5, r4
    4ed0:	e594100c 	ldr	r1, [r4, #12]
    4ed4:	e5b52008 	ldr	r2, [r5, #8]!
    4ed8:	e3833001 	orr	r3, r3, #1	; 0x1
    4edc:	e5803004 	str	r3, [r0, #4]
    4ee0:	e5812008 	str	r2, [r1, #8]
    4ee4:	e582100c 	str	r1, [r2, #12]
    4ee8:	e1a00008 	mov	r0, r8
    4eec:	eb0000e0 	bl	5274 <__malloc_unlock>
    4ef0:	eafffe9a 	b	4960 <_malloc_r+0x9c>
    4ef4:	e1a02005 	mov	r2, r5
    4ef8:	e1a0c001 	mov	ip, r1
    4efc:	e3120003 	tst	r2, #3	; 0x3
    4f00:	e1a0100c 	mov	r1, ip
    4f04:	e2422001 	sub	r2, r2, #1	; 0x1
    4f08:	0a00002a 	beq	4fb8 <_malloc_r+0x6f4>
    4f0c:	e411c008 	ldr	ip, [r1], #-8
    4f10:	e15c0001 	cmp	ip, r1
    4f14:	0afffff8 	beq	4efc <_malloc_r+0x638>
    4f18:	e59a3004 	ldr	r3, [sl, #4]
    4f1c:	e1a00080 	lsl	r0, r0, #1
    4f20:	e1500003 	cmp	r0, r3
    4f24:	8affff28 	bhi	4bcc <_malloc_r+0x308>
    4f28:	e3500000 	cmp	r0, #0	; 0x0
    4f2c:	0affff26 	beq	4bcc <_malloc_r+0x308>
    4f30:	e1100003 	tst	r0, r3
    4f34:	11a05009 	movne	r5, r9
    4f38:	1afffed3 	bne	4a8c <_malloc_r+0x1c8>
    4f3c:	e1a00080 	lsl	r0, r0, #1
    4f40:	e1100003 	tst	r0, r3
    4f44:	e2899004 	add	r9, r9, #4	; 0x4
    4f48:	0afffffb 	beq	4f3c <_malloc_r+0x678>
    4f4c:	e1a05009 	mov	r5, r9
    4f50:	eafffecd 	b	4a8c <_malloc_r+0x1c8>
    4f54:	e59fb090 	ldr	fp, [pc, #144]	; 4fec <_malloc_r+0x728>
    4f58:	e59b3000 	ldr	r3, [fp]
    4f5c:	e0841003 	add	r1, r4, r3
    4f60:	e58b1000 	str	r1, [fp]
    4f64:	1affff3d 	bne	4c60 <_malloc_r+0x39c>
    4f68:	e1a03a02 	lsl	r3, r2, #20
    4f6c:	e1a03a23 	lsr	r3, r3, #20
    4f70:	e3530000 	cmp	r3, #0	; 0x0
    4f74:	1affff39 	bne	4c60 <_malloc_r+0x39c>
    4f78:	e0843009 	add	r3, r4, r9
    4f7c:	e59a2008 	ldr	r2, [sl, #8]
    4f80:	e3833001 	orr	r3, r3, #1	; 0x1
    4f84:	e5823004 	str	r3, [r2, #4]
    4f88:	eaffff65 	b	4d24 <_malloc_r+0x460>
    4f8c:	e59a3004 	ldr	r3, [sl, #4]
    4f90:	e1a01141 	asr	r1, r1, #2
    4f94:	e3a02001 	mov	r2, #1	; 0x1
    4f98:	e1833112 	orr	r3, r3, r2, lsl r1
    4f9c:	e58a3004 	str	r3, [sl, #4]
    4fa0:	e1a0300e 	mov	r3, lr
    4fa4:	eaffffb6 	b	4e84 <_malloc_r+0x5c0>
    4fa8:	e2851008 	add	r1, r5, #8	; 0x8
    4fac:	e1a00008 	mov	r0, r8
    4fb0:	eb000814 	bl	7008 <_free_r>
    4fb4:	eaffff5a 	b	4d24 <_malloc_r+0x460>
    4fb8:	e59a3004 	ldr	r3, [sl, #4]
    4fbc:	e1e02000 	mvn	r2, r0
    4fc0:	e0033002 	and	r3, r3, r2
    4fc4:	e58a3004 	str	r3, [sl, #4]
    4fc8:	eaffffd2 	b	4f18 <_malloc_r+0x654>
    4fcc:	e1a00008 	mov	r0, r8
    4fd0:	eb0000a7 	bl	5274 <__malloc_unlock>
    4fd4:	e3a05000 	mov	r5, #0	; 0x0
    4fd8:	eafffe60 	b	4960 <_malloc_r+0x9c>
    4fdc:	40000048 	.word	0x40000048
    4fe0:	40000050 	.word	0x40000050
    4fe4:	4000097c 	.word	0x4000097c
    4fe8:	40000454 	.word	0x40000454
    4fec:	40000988 	.word	0x40000988
    4ff0:	40000980 	.word	0x40000980
    4ff4:	40000984 	.word	0x40000984

00004ff8 <memcmp>:
    4ff8:	e3520003 	cmp	r2, #3	; 0x3
    4ffc:	e92d0070 	push	{r4, r5, r6}
    5000:	e1a04002 	mov	r4, r2
    5004:	e1a06000 	mov	r6, r0
    5008:	e1a05001 	mov	r5, r1
    500c:	9a00001f 	bls	5090 <memcmp+0x98>
    5010:	e1813000 	orr	r3, r1, r0
    5014:	e3130003 	tst	r3, #3	; 0x3
    5018:	0a000011 	beq	5064 <memcmp+0x6c>
    501c:	e5d6c000 	ldrb	ip, [r6]
    5020:	e5d50000 	ldrb	r0, [r5]
    5024:	e15c0000 	cmp	ip, r0
    5028:	02442001 	subeq	r2, r4, #1	; 0x1
    502c:	01a03006 	moveq	r3, r6
    5030:	01a01005 	moveq	r1, r5
    5034:	0a000004 	beq	504c <memcmp+0x54>
    5038:	ea000017 	b	509c <memcmp+0xa4>
    503c:	e5f3c001 	ldrb	ip, [r3, #1]!
    5040:	e5f10001 	ldrb	r0, [r1, #1]!
    5044:	e15c0000 	cmp	ip, r0
    5048:	1a000013 	bne	509c <memcmp+0xa4>
    504c:	e3520000 	cmp	r2, #0	; 0x0
    5050:	e2422001 	sub	r2, r2, #1	; 0x1
    5054:	1afffff8 	bne	503c <memcmp+0x44>
    5058:	e3a00000 	mov	r0, #0	; 0x0
    505c:	e8bd0070 	pop	{r4, r5, r6}
    5060:	e12fff1e 	bx	lr
    5064:	e5902000 	ldr	r2, [r0]
    5068:	e5913000 	ldr	r3, [r1]
    506c:	e1520003 	cmp	r2, r3
    5070:	1a000004 	bne	5088 <memcmp+0x90>
    5074:	e2444004 	sub	r4, r4, #4	; 0x4
    5078:	e3540003 	cmp	r4, #3	; 0x3
    507c:	e2800004 	add	r0, r0, #4	; 0x4
    5080:	e2811004 	add	r1, r1, #4	; 0x4
    5084:	8afffff6 	bhi	5064 <memcmp+0x6c>
    5088:	e1a06000 	mov	r6, r0
    508c:	e1a05001 	mov	r5, r1
    5090:	e3540000 	cmp	r4, #0	; 0x0
    5094:	1affffe0 	bne	501c <memcmp+0x24>
    5098:	eaffffee 	b	5058 <memcmp+0x60>
    509c:	e060000c 	rsb	r0, r0, ip
    50a0:	eaffffed 	b	505c <memcmp+0x64>

000050a4 <memcpy>:
    50a4:	e92d0070 	push	{r4, r5, r6}
    50a8:	e352000f 	cmp	r2, #15	; 0xf
    50ac:	e1a04002 	mov	r4, r2
    50b0:	e1a05001 	mov	r5, r1
    50b4:	e1a02001 	mov	r2, r1
    50b8:	e1a06000 	mov	r6, r0
    50bc:	e1a01004 	mov	r1, r4
    50c0:	9a000002 	bls	50d0 <memcpy+0x2c>
    50c4:	e1853006 	orr	r3, r5, r6
    50c8:	e3130003 	tst	r3, #3	; 0x3
    50cc:	0a00000a 	beq	50fc <memcpy+0x58>
    50d0:	e3510000 	cmp	r1, #0	; 0x0
    50d4:	0a000005 	beq	50f0 <memcpy+0x4c>
    50d8:	e3a0c000 	mov	ip, #0	; 0x0
    50dc:	e7d2300c 	ldrb	r3, [r2, ip]
    50e0:	e7c0300c 	strb	r3, [r0, ip]
    50e4:	e28cc001 	add	ip, ip, #1	; 0x1
    50e8:	e15c0001 	cmp	ip, r1
    50ec:	1afffffa 	bne	50dc <memcpy+0x38>
    50f0:	e1a00006 	mov	r0, r6
    50f4:	e8bd0070 	pop	{r4, r5, r6}
    50f8:	e12fff1e 	bx	lr
    50fc:	e1a01006 	mov	r1, r6
    5100:	e1a0c005 	mov	ip, r5
    5104:	e1a00004 	mov	r0, r4
    5108:	e59c3000 	ldr	r3, [ip]
    510c:	e5813000 	str	r3, [r1]
    5110:	e59c2004 	ldr	r2, [ip, #4]
    5114:	e5812004 	str	r2, [r1, #4]
    5118:	e59c3008 	ldr	r3, [ip, #8]
    511c:	e5813008 	str	r3, [r1, #8]
    5120:	e2400010 	sub	r0, r0, #16	; 0x10
    5124:	e59c300c 	ldr	r3, [ip, #12]
    5128:	e350000f 	cmp	r0, #15	; 0xf
    512c:	e581300c 	str	r3, [r1, #12]
    5130:	e28cc010 	add	ip, ip, #16	; 0x10
    5134:	e2811010 	add	r1, r1, #16	; 0x10
    5138:	8afffff2 	bhi	5108 <memcpy+0x64>
    513c:	e2442010 	sub	r2, r4, #16	; 0x10
    5140:	e1a03222 	lsr	r3, r2, #4
    5144:	e0421203 	sub	r1, r2, r3, lsl #4
    5148:	e2833001 	add	r3, r3, #1	; 0x1
    514c:	e1a03203 	lsl	r3, r3, #4
    5150:	e3510003 	cmp	r1, #3	; 0x3
    5154:	e0854003 	add	r4, r5, r3
    5158:	e0860003 	add	r0, r6, r3
    515c:	9a00000d 	bls	5198 <memcpy+0xf4>
    5160:	e3a0c000 	mov	ip, #0	; 0x0
    5164:	e794300c 	ldr	r3, [r4, ip]
    5168:	e780300c 	str	r3, [r0, ip]
    516c:	e28cc004 	add	ip, ip, #4	; 0x4
    5170:	e06c3001 	rsb	r3, ip, r1
    5174:	e3530003 	cmp	r3, #3	; 0x3
    5178:	8afffff9 	bhi	5164 <memcpy+0xc0>
    517c:	e2411004 	sub	r1, r1, #4	; 0x4
    5180:	e1a02121 	lsr	r2, r1, #2
    5184:	e2823001 	add	r3, r2, #1	; 0x1
    5188:	e1a03103 	lsl	r3, r3, #2
    518c:	e0800003 	add	r0, r0, r3
    5190:	e0411102 	sub	r1, r1, r2, lsl #2
    5194:	e0844003 	add	r4, r4, r3
    5198:	e1a02004 	mov	r2, r4
    519c:	eaffffcb 	b	50d0 <memcpy+0x2c>

000051a0 <memset>:
    51a0:	e3520003 	cmp	r2, #3	; 0x3
    51a4:	e92d0030 	push	{r4, r5}
    51a8:	e1a0c000 	mov	ip, r0
    51ac:	e1a04000 	mov	r4, r0
    51b0:	e20150ff 	and	r5, r1, #255	; 0xff
    51b4:	9a000022 	bls	5244 <memset+0xa4>
    51b8:	e3100003 	tst	r0, #3	; 0x3
    51bc:	1a000022 	bne	524c <memset+0xac>
    51c0:	e352000f 	cmp	r2, #15	; 0xf
    51c4:	e1853405 	orr	r3, r5, r5, lsl #8
    51c8:	e1831803 	orr	r1, r3, r3, lsl #16
    51cc:	81a0c002 	movhi	ip, r2
    51d0:	81a03004 	movhi	r3, r4
    51d4:	9a00000e 	bls	5214 <memset+0x74>
    51d8:	e24cc010 	sub	ip, ip, #16	; 0x10
    51dc:	e35c000f 	cmp	ip, #15	; 0xf
    51e0:	e5831000 	str	r1, [r3]
    51e4:	e5831004 	str	r1, [r3, #4]
    51e8:	e5831008 	str	r1, [r3, #8]
    51ec:	e583100c 	str	r1, [r3, #12]
    51f0:	e2833010 	add	r3, r3, #16	; 0x10
    51f4:	8afffff7 	bhi	51d8 <memset+0x38>
    51f8:	e2422010 	sub	r2, r2, #16	; 0x10
    51fc:	e3c2300f 	bic	r3, r2, #15	; 0xf
    5200:	e202200f 	and	r2, r2, #15	; 0xf
    5204:	e2833010 	add	r3, r3, #16	; 0x10
    5208:	e3520003 	cmp	r2, #3	; 0x3
    520c:	e0840003 	add	r0, r4, r3
    5210:	9a00000a 	bls	5240 <memset+0xa0>
    5214:	e3a0c000 	mov	ip, #0	; 0x0
    5218:	e780100c 	str	r1, [r0, ip]
    521c:	e28cc004 	add	ip, ip, #4	; 0x4
    5220:	e06c3002 	rsb	r3, ip, r2
    5224:	e3530003 	cmp	r3, #3	; 0x3
    5228:	8afffffa 	bhi	5218 <memset+0x78>
    522c:	e2422004 	sub	r2, r2, #4	; 0x4
    5230:	e3c23003 	bic	r3, r2, #3	; 0x3
    5234:	e2833004 	add	r3, r3, #4	; 0x4
    5238:	e0800003 	add	r0, r0, r3
    523c:	e2022003 	and	r2, r2, #3	; 0x3
    5240:	e1a0c000 	mov	ip, r0
    5244:	e3520000 	cmp	r2, #0	; 0x0
    5248:	0a000005 	beq	5264 <memset+0xc4>
    524c:	e20510ff 	and	r1, r5, #255	; 0xff
    5250:	e3a03000 	mov	r3, #0	; 0x0
    5254:	e7cc1003 	strb	r1, [ip, r3]
    5258:	e2833001 	add	r3, r3, #1	; 0x1
    525c:	e1530002 	cmp	r3, r2
    5260:	1afffffb 	bne	5254 <memset+0xb4>
    5264:	e1a00004 	mov	r0, r4
    5268:	e8bd0030 	pop	{r4, r5}
    526c:	e12fff1e 	bx	lr

00005270 <__malloc_lock>:
    5270:	e12fff1e 	bx	lr

00005274 <__malloc_unlock>:
    5274:	e12fff1e 	bx	lr

00005278 <siprintf>:
    5278:	e92d000e 	push	{r1, r2, r3}
    527c:	e92d4010 	push	{r4, lr}
    5280:	e59f3058 	ldr	r3, [pc, #88]	; 52e0 <siprintf+0x68>
    5284:	e24dd05c 	sub	sp, sp, #92	; 0x5c
    5288:	e3e0c102 	mvn	ip, #-2147483648	; 0x80000000
    528c:	e1a0e000 	mov	lr, r0
    5290:	e59d2064 	ldr	r2, [sp, #100]
    5294:	e58dc014 	str	ip, [sp, #20]
    5298:	e58dc008 	str	ip, [sp, #8]
    529c:	e5930000 	ldr	r0, [r3]
    52a0:	e3e0c000 	mvn	ip, #0	; 0x0
    52a4:	e28d3068 	add	r3, sp, #104	; 0x68
    52a8:	e1a0100d 	mov	r1, sp
    52ac:	e3a04f82 	mov	r4, #520	; 0x208
    52b0:	e58de010 	str	lr, [sp, #16]
    52b4:	e1cd40bc 	strh	r4, [sp, #12]
    52b8:	e58de000 	str	lr, [sp]
    52bc:	e1cdc0be 	strh	ip, [sp, #14]
    52c0:	eb0001af 	bl	5984 <_vfiprintf_r>
    52c4:	e59d3000 	ldr	r3, [sp]
    52c8:	e3a02000 	mov	r2, #0	; 0x0
    52cc:	e5c32000 	strb	r2, [r3]
    52d0:	e28dd05c 	add	sp, sp, #92	; 0x5c
    52d4:	e8bd4010 	pop	{r4, lr}
    52d8:	e28dd00c 	add	sp, sp, #12	; 0xc
    52dc:	e12fff1e 	bx	lr
    52e0:	4000045c 	.word	0x4000045c

000052e4 <_siprintf_r>:
    52e4:	e92d000c 	push	{r2, r3}
    52e8:	e92d4010 	push	{r4, lr}
    52ec:	e1a0c001 	mov	ip, r1
    52f0:	e24dd05c 	sub	sp, sp, #92	; 0x5c
    52f4:	e3e0e102 	mvn	lr, #-2147483648	; 0x80000000
    52f8:	e59d2064 	ldr	r2, [sp, #100]
    52fc:	e28d3068 	add	r3, sp, #104	; 0x68
    5300:	e58dc010 	str	ip, [sp, #16]
    5304:	e58dc000 	str	ip, [sp]
    5308:	e1a0100d 	mov	r1, sp
    530c:	e3e0c000 	mvn	ip, #0	; 0x0
    5310:	e3a04f82 	mov	r4, #520	; 0x208
    5314:	e58de014 	str	lr, [sp, #20]
    5318:	e1cd40bc 	strh	r4, [sp, #12]
    531c:	e58de008 	str	lr, [sp, #8]
    5320:	e1cdc0be 	strh	ip, [sp, #14]
    5324:	eb000196 	bl	5984 <_vfiprintf_r>
    5328:	e59d3000 	ldr	r3, [sp]
    532c:	e3a02000 	mov	r2, #0	; 0x0
    5330:	e5c32000 	strb	r2, [r3]
    5334:	e28dd05c 	add	sp, sp, #92	; 0x5c
    5338:	e8bd4010 	pop	{r4, lr}
    533c:	e28dd008 	add	sp, sp, #8	; 0x8
    5340:	e12fff1e 	bx	lr

00005344 <strcmp>:
    5344:	e1813000 	orr	r3, r1, r0
    5348:	e3130003 	tst	r3, #3	; 0x3
    534c:	e1a02000 	mov	r2, r0
    5350:	1a000023 	bne	53e4 <strcmp+0xa0>
    5354:	e5902000 	ldr	r2, [r0]
    5358:	e5913000 	ldr	r3, [r1]
    535c:	e1520003 	cmp	r2, r3
    5360:	e1a0c001 	mov	ip, r1
    5364:	1a00001c 	bne	53dc <strcmp+0x98>
    5368:	e28234ff 	add	r3, r2, #-16777216	; 0xff000000
    536c:	e2433801 	sub	r3, r3, #65536	; 0x10000
    5370:	e2433c01 	sub	r3, r3, #256	; 0x100
    5374:	e2433001 	sub	r3, r3, #1	; 0x1
    5378:	e1e02002 	mvn	r2, r2
    537c:	e0033002 	and	r3, r3, r2
    5380:	e3c3347f 	bic	r3, r3, #2130706432	; 0x7f000000
    5384:	e3c3387f 	bic	r3, r3, #8323072	; 0x7f0000
    5388:	e3c33c7f 	bic	r3, r3, #32512	; 0x7f00
    538c:	e3c3307f 	bic	r3, r3, #127	; 0x7f
    5390:	e3530000 	cmp	r3, #0	; 0x0
    5394:	0a000002 	beq	53a4 <strcmp+0x60>
    5398:	ea000021 	b	5424 <strcmp+0xe0>
    539c:	e3520000 	cmp	r2, #0	; 0x0
    53a0:	1a00001f 	bne	5424 <strcmp+0xe0>
    53a4:	e5b01004 	ldr	r1, [r0, #4]!
    53a8:	e28134ff 	add	r3, r1, #-16777216	; 0xff000000
    53ac:	e2433801 	sub	r3, r3, #65536	; 0x10000
    53b0:	e2433c01 	sub	r3, r3, #256	; 0x100
    53b4:	e1e02001 	mvn	r2, r1
    53b8:	e2433001 	sub	r3, r3, #1	; 0x1
    53bc:	e0033002 	and	r3, r3, r2
    53c0:	e3c3247f 	bic	r2, r3, #2130706432	; 0x7f000000
    53c4:	e5bc3004 	ldr	r3, [ip, #4]!
    53c8:	e3c2287f 	bic	r2, r2, #8323072	; 0x7f0000
    53cc:	e3c22c7f 	bic	r2, r2, #32512	; 0x7f00
    53d0:	e1510003 	cmp	r1, r3
    53d4:	e3c2207f 	bic	r2, r2, #127	; 0x7f
    53d8:	0affffef 	beq	539c <strcmp+0x58>
    53dc:	e1a02000 	mov	r2, r0
    53e0:	e1a0100c 	mov	r1, ip
    53e4:	e5d23000 	ldrb	r3, [r2]
    53e8:	e3530000 	cmp	r3, #0	; 0x0
    53ec:	1a000004 	bne	5404 <strcmp+0xc0>
    53f0:	ea000008 	b	5418 <strcmp+0xd4>
    53f4:	e5f23001 	ldrb	r3, [r2, #1]!
    53f8:	e3530000 	cmp	r3, #0	; 0x0
    53fc:	e2811001 	add	r1, r1, #1	; 0x1
    5400:	0a000004 	beq	5418 <strcmp+0xd4>
    5404:	e5d10000 	ldrb	r0, [r1]
    5408:	e1500003 	cmp	r0, r3
    540c:	0afffff8 	beq	53f4 <strcmp+0xb0>
    5410:	e0600003 	rsb	r0, r0, r3
    5414:	e12fff1e 	bx	lr
    5418:	e5d10000 	ldrb	r0, [r1]
    541c:	e0600003 	rsb	r0, r0, r3
    5420:	e12fff1e 	bx	lr
    5424:	e3a00000 	mov	r0, #0	; 0x0
    5428:	e12fff1e 	bx	lr

0000542c <strcpy>:
    542c:	e1813000 	orr	r3, r1, r0
    5430:	e3130003 	tst	r3, #3	; 0x3
    5434:	e52d4004 	push	{r4}		; (str r4, [sp, #-4]!)
    5438:	11a0c000 	movne	ip, r0
    543c:	e1a04000 	mov	r4, r0
    5440:	1a00001e 	bne	54c0 <strcpy+0x94>
    5444:	e591c000 	ldr	ip, [r1]
    5448:	e28c24ff 	add	r2, ip, #-16777216	; 0xff000000
    544c:	e2422801 	sub	r2, r2, #65536	; 0x10000
    5450:	e2422c01 	sub	r2, r2, #256	; 0x100
    5454:	e2422001 	sub	r2, r2, #1	; 0x1
    5458:	e1e0300c 	mvn	r3, ip
    545c:	e0033002 	and	r3, r3, r2
    5460:	e3c3347f 	bic	r3, r3, #2130706432	; 0x7f000000
    5464:	e3c3387f 	bic	r3, r3, #8323072	; 0x7f0000
    5468:	e3c33c7f 	bic	r3, r3, #32512	; 0x7f00
    546c:	e3c3307f 	bic	r3, r3, #127	; 0x7f
    5470:	e3530000 	cmp	r3, #0	; 0x0
    5474:	e1a00001 	mov	r0, r1
    5478:	e1a01004 	mov	r1, r4
    547c:	1a00000d 	bne	54b8 <strcpy+0x8c>
    5480:	e481c004 	str	ip, [r1], #4
    5484:	e5b0c004 	ldr	ip, [r0, #4]!
    5488:	e28c24ff 	add	r2, ip, #-16777216	; 0xff000000
    548c:	e2422801 	sub	r2, r2, #65536	; 0x10000
    5490:	e2422c01 	sub	r2, r2, #256	; 0x100
    5494:	e2422001 	sub	r2, r2, #1	; 0x1
    5498:	e1e0300c 	mvn	r3, ip
    549c:	e0033002 	and	r3, r3, r2
    54a0:	e3c3347f 	bic	r3, r3, #2130706432	; 0x7f000000
    54a4:	e3c3387f 	bic	r3, r3, #8323072	; 0x7f0000
    54a8:	e3c33c7f 	bic	r3, r3, #32512	; 0x7f00
    54ac:	e3c3307f 	bic	r3, r3, #127	; 0x7f
    54b0:	e3530000 	cmp	r3, #0	; 0x0
    54b4:	0afffff1 	beq	5480 <strcpy+0x54>
    54b8:	e1a0c001 	mov	ip, r1
    54bc:	e1a01000 	mov	r1, r0
    54c0:	e3a02000 	mov	r2, #0	; 0x0
    54c4:	e7d13002 	ldrb	r3, [r1, r2]
    54c8:	e3530000 	cmp	r3, #0	; 0x0
    54cc:	e7cc3002 	strb	r3, [ip, r2]
    54d0:	e2822001 	add	r2, r2, #1	; 0x1
    54d4:	1afffffa 	bne	54c4 <strcpy+0x98>
    54d8:	e1a00004 	mov	r0, r4
    54dc:	e8bd0010 	pop	{r4}
    54e0:	e12fff1e 	bx	lr

000054e4 <strlen>:
    54e4:	e3100003 	tst	r0, #3	; 0x3
    54e8:	e1a01000 	mov	r1, r0
    54ec:	11a00000 	movne	r0, r0
    54f0:	1a00001a 	bne	5560 <strlen+0x7c>
    54f4:	e5912000 	ldr	r2, [r1]
    54f8:	e28234ff 	add	r3, r2, #-16777216	; 0xff000000
    54fc:	e2433801 	sub	r3, r3, #65536	; 0x10000
    5500:	e2433c01 	sub	r3, r3, #256	; 0x100
    5504:	e2433001 	sub	r3, r3, #1	; 0x1
    5508:	e1e02002 	mvn	r2, r2
    550c:	e0033002 	and	r3, r3, r2
    5510:	e3c3347f 	bic	r3, r3, #2130706432	; 0x7f000000
    5514:	e3c3387f 	bic	r3, r3, #8323072	; 0x7f0000
    5518:	e3c33c7f 	bic	r3, r3, #32512	; 0x7f00
    551c:	e3c3307f 	bic	r3, r3, #127	; 0x7f
    5520:	e3530000 	cmp	r3, #0	; 0x0
    5524:	e1a00001 	mov	r0, r1
    5528:	1a00000c 	bne	5560 <strlen+0x7c>
    552c:	e5b02004 	ldr	r2, [r0, #4]!
    5530:	e28234ff 	add	r3, r2, #-16777216	; 0xff000000
    5534:	e2433801 	sub	r3, r3, #65536	; 0x10000
    5538:	e2433c01 	sub	r3, r3, #256	; 0x100
    553c:	e2433001 	sub	r3, r3, #1	; 0x1
    5540:	e1e02002 	mvn	r2, r2
    5544:	e0033002 	and	r3, r3, r2
    5548:	e3c3347f 	bic	r3, r3, #2130706432	; 0x7f000000
    554c:	e3c3387f 	bic	r3, r3, #8323072	; 0x7f0000
    5550:	e3c33c7f 	bic	r3, r3, #32512	; 0x7f00
    5554:	e3c3307f 	bic	r3, r3, #127	; 0x7f
    5558:	e3530000 	cmp	r3, #0	; 0x0
    555c:	0afffff2 	beq	552c <strlen+0x48>
    5560:	e5d03000 	ldrb	r3, [r0]
    5564:	e3530000 	cmp	r3, #0	; 0x0
    5568:	0a000002 	beq	5578 <strlen+0x94>
    556c:	e5f03001 	ldrb	r3, [r0, #1]!
    5570:	e3530000 	cmp	r3, #0	; 0x0
    5574:	1afffffc 	bne	556c <strlen+0x88>
    5578:	e0610000 	rsb	r0, r1, r0
    557c:	e12fff1e 	bx	lr

00005580 <strncpy>:
    5580:	e1a0c001 	mov	ip, r1
    5584:	e1811000 	orr	r1, r1, r0
    5588:	e3110003 	tst	r1, #3	; 0x3
    558c:	13a03000 	movne	r3, #0	; 0x0
    5590:	03a03001 	moveq	r3, #1	; 0x1
    5594:	e3520003 	cmp	r2, #3	; 0x3
    5598:	93a03000 	movls	r3, #0	; 0x0
    559c:	82033001 	andhi	r3, r3, #1	; 0x1
    55a0:	e92d0030 	push	{r4, r5}
    55a4:	e3530000 	cmp	r3, #0	; 0x0
    55a8:	e1a05000 	mov	r5, r0
    55ac:	11a0100c 	movne	r1, ip
    55b0:	e1a00002 	mov	r0, r2
    55b4:	11a04005 	movne	r4, r5
    55b8:	1a00001e 	bne	5638 <strncpy+0xb8>
    55bc:	e1a0400c 	mov	r4, ip
    55c0:	e1a0c005 	mov	ip, r5
    55c4:	e3500000 	cmp	r0, #0	; 0x0
    55c8:	0a000017 	beq	562c <strncpy+0xac>
    55cc:	e5d43000 	ldrb	r3, [r4]
    55d0:	e1a0100c 	mov	r1, ip
    55d4:	e3530000 	cmp	r3, #0	; 0x0
    55d8:	e2402001 	sub	r2, r0, #1	; 0x1
    55dc:	e4c13001 	strb	r3, [r1], #1
    55e0:	128cc002 	addne	ip, ip, #2	; 0x2
    55e4:	0a000008 	beq	560c <strncpy+0x8c>
    55e8:	e3520000 	cmp	r2, #0	; 0x0
    55ec:	e1a0100c 	mov	r1, ip
    55f0:	e2422001 	sub	r2, r2, #1	; 0x1
    55f4:	0a00000c 	beq	562c <strncpy+0xac>
    55f8:	e5f43001 	ldrb	r3, [r4, #1]!
    55fc:	e3530000 	cmp	r3, #0	; 0x0
    5600:	e54c3001 	strb	r3, [ip, #-1]
    5604:	e28cc001 	add	ip, ip, #1	; 0x1
    5608:	1afffff6 	bne	55e8 <strncpy+0x68>
    560c:	e3520000 	cmp	r2, #0	; 0x0
    5610:	13a03000 	movne	r3, #0	; 0x0
    5614:	11a0c003 	movne	ip, r3
    5618:	0a000003 	beq	562c <strncpy+0xac>
    561c:	e7c1c003 	strb	ip, [r1, r3]
    5620:	e2833001 	add	r3, r3, #1	; 0x1
    5624:	e1520003 	cmp	r2, r3
    5628:	1afffffb 	bne	561c <strncpy+0x9c>
    562c:	e1a00005 	mov	r0, r5
    5630:	e8bd0030 	pop	{r4, r5}
    5634:	e12fff1e 	bx	lr
    5638:	e591c000 	ldr	ip, [r1]
    563c:	e28c24ff 	add	r2, ip, #-16777216	; 0xff000000
    5640:	e2422801 	sub	r2, r2, #65536	; 0x10000
    5644:	e2422c01 	sub	r2, r2, #256	; 0x100
    5648:	e2422001 	sub	r2, r2, #1	; 0x1
    564c:	e1e0300c 	mvn	r3, ip
    5650:	e0033002 	and	r3, r3, r2
    5654:	e3c3347f 	bic	r3, r3, #2130706432	; 0x7f000000
    5658:	e3c3387f 	bic	r3, r3, #8323072	; 0x7f0000
    565c:	e3c33c7f 	bic	r3, r3, #32512	; 0x7f00
    5660:	e3c3307f 	bic	r3, r3, #127	; 0x7f
    5664:	e3530000 	cmp	r3, #0	; 0x0
    5668:	1a000004 	bne	5680 <strncpy+0x100>
    566c:	e2400004 	sub	r0, r0, #4	; 0x4
    5670:	e3500003 	cmp	r0, #3	; 0x3
    5674:	e484c004 	str	ip, [r4], #4
    5678:	e2811004 	add	r1, r1, #4	; 0x4
    567c:	8affffed 	bhi	5638 <strncpy+0xb8>
    5680:	e1a0c004 	mov	ip, r4
    5684:	e1a04001 	mov	r4, r1
    5688:	eaffffcd 	b	55c4 <strncpy+0x44>

0000568c <strtok>:
    568c:	e59f300c 	ldr	r3, [pc, #12]	; 56a0 <strtok+0x14>
    5690:	e5932000 	ldr	r2, [r3]
    5694:	e3a03001 	mov	r3, #1	; 0x1
    5698:	e282205c 	add	r2, r2, #92	; 0x5c
    569c:	ea000000 	b	56a4 <__strtok_r>
    56a0:	4000045c 	.word	0x4000045c

000056a4 <__strtok_r>:
    56a4:	e92d0070 	push	{r4, r5, r6}
    56a8:	e2505000 	subs	r5, r0, #0	; 0x0
    56ac:	e1a06002 	mov	r6, r2
    56b0:	e1a04001 	mov	r4, r1
    56b4:	e1a02003 	mov	r2, r3
    56b8:	0a000026 	beq	5758 <__strtok_r+0xb4>
    56bc:	e1a01005 	mov	r1, r5
    56c0:	e4d10001 	ldrb	r0, [r1], #1
    56c4:	e3a0c000 	mov	ip, #0	; 0x0
    56c8:	e7d4300c 	ldrb	r3, [r4, ip]
    56cc:	e3530000 	cmp	r3, #0	; 0x0
    56d0:	e28cc001 	add	ip, ip, #1	; 0x1
    56d4:	0a000005 	beq	56f0 <__strtok_r+0x4c>
    56d8:	e1500003 	cmp	r0, r3
    56dc:	1afffff9 	bne	56c8 <__strtok_r+0x24>
    56e0:	e3520000 	cmp	r2, #0	; 0x0
    56e4:	0a00000f 	beq	5728 <__strtok_r+0x84>
    56e8:	e1a05001 	mov	r5, r1
    56ec:	eafffff2 	b	56bc <__strtok_r+0x18>
    56f0:	e3500000 	cmp	r0, #0	; 0x0
    56f4:	05860000 	streq	r0, [r6]
    56f8:	0a00000d 	beq	5734 <__strtok_r+0x90>
    56fc:	e1a00001 	mov	r0, r1
    5700:	e4d02001 	ldrb	r2, [r0], #1
    5704:	e3a03000 	mov	r3, #0	; 0x0
    5708:	e7d4c003 	ldrb	ip, [r4, r3]
    570c:	e15c0002 	cmp	ip, r2
    5710:	e2833001 	add	r3, r3, #1	; 0x1
    5714:	0a000008 	beq	573c <__strtok_r+0x98>
    5718:	e35c0000 	cmp	ip, #0	; 0x0
    571c:	1afffff9 	bne	5708 <__strtok_r+0x64>
    5720:	e1a01000 	mov	r1, r0
    5724:	eafffff4 	b	56fc <__strtok_r+0x58>
    5728:	e5861000 	str	r1, [r6]
    572c:	e5c52000 	strb	r2, [r5]
    5730:	e1a00005 	mov	r0, r5
    5734:	e8bd0070 	pop	{r4, r5, r6}
    5738:	e12fff1e 	bx	lr
    573c:	e3520000 	cmp	r2, #0	; 0x0
    5740:	01a00002 	moveq	r0, r2
    5744:	13a03000 	movne	r3, #0	; 0x0
    5748:	15c13000 	strbne	r3, [r1]
    574c:	e5860000 	str	r0, [r6]
    5750:	e1a00005 	mov	r0, r5
    5754:	eafffff6 	b	5734 <__strtok_r+0x90>
    5758:	e5965000 	ldr	r5, [r6]
    575c:	e3550000 	cmp	r5, #0	; 0x0
    5760:	01a00005 	moveq	r0, r5
    5764:	1affffd4 	bne	56bc <__strtok_r+0x18>
    5768:	eafffff1 	b	5734 <__strtok_r+0x90>

0000576c <strtok_r>:
    576c:	e3a03001 	mov	r3, #1	; 0x1
    5770:	eaffffcb 	b	56a4 <__strtok_r>

00005774 <_strtol_r>:
    5774:	e92d4ff0 	push	{r4, r5, r6, r7, r8, r9, sl, fp, lr}
    5778:	e24dd00c 	sub	sp, sp, #12	; 0xc
    577c:	e58d1004 	str	r1, [sp, #4]
    5780:	e59f119c 	ldr	r1, [pc, #412]	; 5924 <_strtol_r+0x1b0>
    5784:	e58d0008 	str	r0, [sp, #8]
    5788:	e591a000 	ldr	sl, [r1]
    578c:	e58d2000 	str	r2, [sp]
    5790:	e59d6004 	ldr	r6, [sp, #4]
    5794:	e1a07003 	mov	r7, r3
    5798:	e4d65001 	ldrb	r5, [r6], #1
    579c:	e7da3005 	ldrb	r3, [sl, r5]
    57a0:	e2133008 	ands	r3, r3, #8	; 0x8
    57a4:	1afffffb 	bne	5798 <_strtol_r+0x24>
    57a8:	e355002d 	cmp	r5, #45	; 0x2d
    57ac:	04d65001 	ldrbeq	r5, [r6], #1
    57b0:	03a0b001 	moveq	fp, #1	; 0x1
    57b4:	0a000002 	beq	57c4 <_strtol_r+0x50>
    57b8:	e355002b 	cmp	r5, #43	; 0x2b
    57bc:	04d65001 	ldrbeq	r5, [r6], #1
    57c0:	e1a0b003 	mov	fp, r3
    57c4:	e2772001 	rsbs	r2, r7, #1	; 0x1
    57c8:	33a02000 	movcc	r2, #0	; 0x0
    57cc:	e3570000 	cmp	r7, #0	; 0x0
    57d0:	13570010 	cmpne	r7, #16	; 0x10
    57d4:	1a000008 	bne	57fc <_strtol_r+0x88>
    57d8:	e3550030 	cmp	r5, #48	; 0x30
    57dc:	0a000047 	beq	5900 <_strtol_r+0x18c>
    57e0:	e3520000 	cmp	r2, #0	; 0x0
    57e4:	0a000004 	beq	57fc <_strtol_r+0x88>
    57e8:	e3550030 	cmp	r5, #48	; 0x30
    57ec:	13a0700a 	movne	r7, #10	; 0xa
    57f0:	11a08007 	movne	r8, r7
    57f4:	1a000001 	bne	5800 <_strtol_r+0x8c>
    57f8:	e3a07008 	mov	r7, #8	; 0x8
    57fc:	e1a08007 	mov	r8, r7
    5800:	e35b0000 	cmp	fp, #0	; 0x0
    5804:	13a04102 	movne	r4, #-2147483648	; 0x80000000
    5808:	03e04102 	mvneq	r4, #-2147483648	; 0x80000000
    580c:	e1a01008 	mov	r1, r8
    5810:	e1a00004 	mov	r0, r4
    5814:	ebfffbe6 	bl	47b4 <__umodsi3>
    5818:	e1a01008 	mov	r1, r8
    581c:	e1a09000 	mov	r9, r0
    5820:	e1a00004 	mov	r0, r4
    5824:	ebfffb9e 	bl	46a4 <__aeabi_uidiv>
    5828:	e1a0c000 	mov	ip, r0
    582c:	e3a00000 	mov	r0, #0	; 0x0
    5830:	e1a01000 	mov	r1, r0
    5834:	e7da3005 	ldrb	r3, [sl, r5]
    5838:	e3130004 	tst	r3, #4	; 0x4
    583c:	12452030 	subne	r2, r5, #48	; 0x30
    5840:	1a000005 	bne	585c <_strtol_r+0xe8>
    5844:	e3130003 	tst	r3, #3	; 0x3
    5848:	0a000017 	beq	58ac <_strtol_r+0x138>
    584c:	e3130001 	tst	r3, #1	; 0x1
    5850:	13a03037 	movne	r3, #55	; 0x37
    5854:	03a03057 	moveq	r3, #87	; 0x57
    5858:	e0632005 	rsb	r2, r3, r5
    585c:	e1570002 	cmp	r7, r2
    5860:	da000011 	ble	58ac <_strtol_r+0x138>
    5864:	e150000c 	cmp	r0, ip
    5868:	93a03000 	movls	r3, #0	; 0x0
    586c:	83a03001 	movhi	r3, #1	; 0x1
    5870:	e1933fa1 	orrs	r3, r3, r1, lsr #31
    5874:	1a000009 	bne	58a0 <_strtol_r+0x12c>
    5878:	e150000c 	cmp	r0, ip
    587c:	13a03000 	movne	r3, #0	; 0x0
    5880:	03a03001 	moveq	r3, #1	; 0x1
    5884:	e1520009 	cmp	r2, r9
    5888:	d3a03000 	movle	r3, #0	; 0x0
    588c:	e3530000 	cmp	r3, #0	; 0x0
    5890:	00202098 	mlaeq	r0, r8, r0, r2
    5894:	03a01001 	moveq	r1, #1	; 0x1
    5898:	04d65001 	ldrbeq	r5, [r6], #1
    589c:	0affffe4 	beq	5834 <_strtol_r+0xc0>
    58a0:	e3e01000 	mvn	r1, #0	; 0x0
    58a4:	e4d65001 	ldrb	r5, [r6], #1
    58a8:	eaffffe1 	b	5834 <_strtol_r+0xc0>
    58ac:	e3710001 	cmn	r1, #1	; 0x1
    58b0:	0a00000b 	beq	58e4 <_strtol_r+0x170>
    58b4:	e35b0000 	cmp	fp, #0	; 0x0
    58b8:	12600000 	rsbne	r0, r0, #0	; 0x0
    58bc:	e59d3000 	ldr	r3, [sp]
    58c0:	e3530000 	cmp	r3, #0	; 0x0
    58c4:	0a000004 	beq	58dc <_strtol_r+0x168>
    58c8:	e3510000 	cmp	r1, #0	; 0x0
    58cc:	059d1004 	ldreq	r1, [sp, #4]
    58d0:	e59d2000 	ldr	r2, [sp]
    58d4:	12461001 	subne	r1, r6, #1	; 0x1
    58d8:	e5821000 	str	r1, [r2]
    58dc:	e28dd00c 	add	sp, sp, #12	; 0xc
    58e0:	e8bd8ff0 	pop	{r4, r5, r6, r7, r8, r9, sl, fp, pc}
    58e4:	e59d2008 	ldr	r2, [sp, #8]
    58e8:	e35b0000 	cmp	fp, #0	; 0x0
    58ec:	e3a03022 	mov	r3, #34	; 0x22
    58f0:	e5823000 	str	r3, [r2]
    58f4:	13a00102 	movne	r0, #-2147483648	; 0x80000000
    58f8:	03e00102 	mvneq	r0, #-2147483648	; 0x80000000
    58fc:	eaffffee 	b	58bc <_strtol_r+0x148>
    5900:	e5d63000 	ldrb	r3, [r6]
    5904:	e3530058 	cmp	r3, #88	; 0x58
    5908:	13530078 	cmpne	r3, #120	; 0x78
    590c:	1affffb3 	bne	57e0 <_strtol_r+0x6c>
    5910:	e3a07010 	mov	r7, #16	; 0x10
    5914:	e5d65001 	ldrb	r5, [r6, #1]
    5918:	e1a08007 	mov	r8, r7
    591c:	e2866002 	add	r6, r6, #2	; 0x2
    5920:	eaffffb6 	b	5800 <_strtol_r+0x8c>
    5924:	40000458 	.word	0x40000458

00005928 <strtol>:
    5928:	e52d4004 	push	{r4}		; (str r4, [sp, #-4]!)
    592c:	e1a03002 	mov	r3, r2
    5930:	e59f2018 	ldr	r2, [pc, #24]	; 5950 <strtol+0x28>
    5934:	e1a0c000 	mov	ip, r0
    5938:	e1a04001 	mov	r4, r1
    593c:	e5920000 	ldr	r0, [r2]
    5940:	e1a0100c 	mov	r1, ip
    5944:	e1a02004 	mov	r2, r4
    5948:	e8bd0010 	pop	{r4}
    594c:	eaffff88 	b	5774 <_strtol_r>
    5950:	4000045c 	.word	0x4000045c

00005954 <__sprint_r>:
    5954:	e5923008 	ldr	r3, [r2, #8]
    5958:	e3530000 	cmp	r3, #0	; 0x0
    595c:	e92d4010 	push	{r4, lr}
    5960:	05823004 	streq	r3, [r2, #4]
    5964:	e1a04002 	mov	r4, r2
    5968:	01a00003 	moveq	r0, r3
    596c:	08bd8010 	popeq	{r4, pc}
    5970:	eb000642 	bl	7280 <__sfvwrite_r>
    5974:	e3a03000 	mov	r3, #0	; 0x0
    5978:	e5843004 	str	r3, [r4, #4]
    597c:	e5843008 	str	r3, [r4, #8]
    5980:	e8bd8010 	pop	{r4, pc}

00005984 <_vfiprintf_r>:
    5984:	e92d4ff0 	push	{r4, r5, r6, r7, r8, r9, sl, fp, lr}
    5988:	e2505000 	subs	r5, r0, #0	; 0x0
    598c:	e24ddc05 	sub	sp, sp, #1280	; 0x500
    5990:	e88d0022 	stm	sp, {r1, r5}
    5994:	e1a04002 	mov	r4, r2
    5998:	e1a0a003 	mov	sl, r3
    599c:	0a000002 	beq	59ac <_vfiprintf_r+0x28>
    59a0:	e5953038 	ldr	r3, [r5, #56]
    59a4:	e3530000 	cmp	r3, #0	; 0x0
    59a8:	0a00017d 	beq	5fa4 <_vfiprintf_r+0x620>
    59ac:	e59d8000 	ldr	r8, [sp]
    59b0:	e1d8c0bc 	ldrh	ip, [r8, #12]
    59b4:	e1a0380c 	lsl	r3, ip, #16
    59b8:	e1a02823 	lsr	r2, r3, #16
    59bc:	e3120008 	tst	r2, #8	; 0x8
    59c0:	0a000392 	beq	6810 <_vfiprintf_r+0xe8c>
    59c4:	e5983010 	ldr	r3, [r8, #16]
    59c8:	e3530000 	cmp	r3, #0	; 0x0
    59cc:	0a00038f 	beq	6810 <_vfiprintf_r+0xe8c>
    59d0:	e202301a 	and	r3, r2, #26	; 0x1a
    59d4:	e353000a 	cmp	r3, #10	; 0xa
    59d8:	0a000141 	beq	5ee4 <_vfiprintf_r+0x560>
    59dc:	e3a03000 	mov	r3, #0	; 0x0
    59e0:	e28d8d12 	add	r8, sp, #1152	; 0x480
    59e4:	e2888008 	add	r8, r8, #8	; 0x8
    59e8:	e28d6d12 	add	r6, sp, #1152	; 0x480
    59ec:	e58d3010 	str	r3, [sp, #16]
    59f0:	e58d34f8 	str	r3, [sp, #1272]
    59f4:	e58d34f4 	str	r3, [sp, #1268]
    59f8:	e58d3020 	str	r3, [sp, #32]
    59fc:	e58d84f0 	str	r8, [sp, #1264]
    5a00:	e2866008 	add	r6, r6, #8	; 0x8
    5a04:	e1a08004 	mov	r8, r4
    5a08:	e5d83000 	ldrb	r3, [r8]
    5a0c:	e3530000 	cmp	r3, #0	; 0x0
    5a10:	13530025 	cmpne	r3, #37	; 0x25
    5a14:	0a000017 	beq	5a78 <_vfiprintf_r+0xf4>
    5a18:	e1a04008 	mov	r4, r8
    5a1c:	e5f43001 	ldrb	r3, [r4, #1]!
    5a20:	e3530000 	cmp	r3, #0	; 0x0
    5a24:	13530025 	cmpne	r3, #37	; 0x25
    5a28:	1afffffb 	bne	5a1c <_vfiprintf_r+0x98>
    5a2c:	e0545008 	subs	r5, r4, r8
    5a30:	01a08004 	moveq	r8, r4
    5a34:	0a00000f 	beq	5a78 <_vfiprintf_r+0xf4>
    5a38:	e59d14f4 	ldr	r1, [sp, #1268]
    5a3c:	e59d04f8 	ldr	r0, [sp, #1272]
    5a40:	e2812001 	add	r2, r1, #1	; 0x1
    5a44:	e0803005 	add	r3, r0, r5
    5a48:	e3520007 	cmp	r2, #7	; 0x7
    5a4c:	e5868000 	str	r8, [r6]
    5a50:	e58d34f8 	str	r3, [sp, #1272]
    5a54:	e5865004 	str	r5, [r6, #4]
    5a58:	e58d24f4 	str	r2, [sp, #1268]
    5a5c:	ca000109 	bgt	5e88 <_vfiprintf_r+0x504>
    5a60:	e59dc010 	ldr	ip, [sp, #16]
    5a64:	e08cc005 	add	ip, ip, r5
    5a68:	e5d43000 	ldrb	r3, [r4]
    5a6c:	e58dc010 	str	ip, [sp, #16]
    5a70:	e2866008 	add	r6, r6, #8	; 0x8
    5a74:	e1a08004 	mov	r8, r4
    5a78:	e3530000 	cmp	r3, #0	; 0x0
    5a7c:	0a000109 	beq	5ea8 <_vfiprintf_r+0x524>
    5a80:	e3a07000 	mov	r7, #0	; 0x0
    5a84:	e3a02000 	mov	r2, #0	; 0x0
    5a88:	e5cd24ff 	strb	r2, [sp, #1279]
    5a8c:	e58d7014 	str	r7, [sp, #20]
    5a90:	e58da028 	str	sl, [sp, #40]
    5a94:	e2881001 	add	r1, r8, #1	; 0x1
    5a98:	e3e05000 	mvn	r5, #0	; 0x0
    5a9c:	e3a0a02b 	mov	sl, #43	; 0x2b
    5aa0:	e3a09020 	mov	r9, #32	; 0x20
    5aa4:	e1a08001 	mov	r8, r1
    5aa8:	e4d84001 	ldrb	r4, [r8], #1
    5aac:	e2443020 	sub	r3, r4, #32	; 0x20
    5ab0:	e3530058 	cmp	r3, #88	; 0x58
    5ab4:	979ff103 	ldrls	pc, [pc, r3, lsl #2]
    5ab8:	ea000261 	b	6444 <_vfiprintf_r+0xac0>
    5abc:	00006510 	.word	0x00006510
    5ac0:	00006444 	.word	0x00006444
    5ac4:	00006444 	.word	0x00006444
    5ac8:	00006534 	.word	0x00006534
    5acc:	00006444 	.word	0x00006444
    5ad0:	00006444 	.word	0x00006444
    5ad4:	00006444 	.word	0x00006444
    5ad8:	00006444 	.word	0x00006444
    5adc:	00006444 	.word	0x00006444
    5ae0:	00006444 	.word	0x00006444
    5ae4:	00006548 	.word	0x00006548
    5ae8:	00005fac 	.word	0x00005fac
    5aec:	00006444 	.word	0x00006444
    5af0:	00005fc0 	.word	0x00005fc0
    5af4:	00005fd4 	.word	0x00005fd4
    5af8:	00006444 	.word	0x00006444
    5afc:	00006030 	.word	0x00006030
    5b00:	00006044 	.word	0x00006044
    5b04:	00006044 	.word	0x00006044
    5b08:	00006044 	.word	0x00006044
    5b0c:	00006044 	.word	0x00006044
    5b10:	00006044 	.word	0x00006044
    5b14:	00006044 	.word	0x00006044
    5b18:	00006044 	.word	0x00006044
    5b1c:	00006044 	.word	0x00006044
    5b20:	00006044 	.word	0x00006044
    5b24:	00006444 	.word	0x00006444
    5b28:	00006444 	.word	0x00006444
    5b2c:	00006444 	.word	0x00006444
    5b30:	00006444 	.word	0x00006444
    5b34:	00006444 	.word	0x00006444
    5b38:	00006444 	.word	0x00006444
    5b3c:	00006444 	.word	0x00006444
    5b40:	00006444 	.word	0x00006444
    5b44:	00006444 	.word	0x00006444
    5b48:	00006444 	.word	0x00006444
    5b4c:	00005c6c 	.word	0x00005c6c
    5b50:	00006444 	.word	0x00006444
    5b54:	00006444 	.word	0x00006444
    5b58:	00006444 	.word	0x00006444
    5b5c:	00006444 	.word	0x00006444
    5b60:	00006444 	.word	0x00006444
    5b64:	00006444 	.word	0x00006444
    5b68:	00006444 	.word	0x00006444
    5b6c:	00006444 	.word	0x00006444
    5b70:	00006444 	.word	0x00006444
    5b74:	00006444 	.word	0x00006444
    5b78:	00005c34 	.word	0x00005c34
    5b7c:	00006444 	.word	0x00006444
    5b80:	00006444 	.word	0x00006444
    5b84:	00006444 	.word	0x00006444
    5b88:	00006444 	.word	0x00006444
    5b8c:	00006444 	.word	0x00006444
    5b90:	00005cf8 	.word	0x00005cf8
    5b94:	00006444 	.word	0x00006444
    5b98:	00006444 	.word	0x00006444
    5b9c:	000063f8 	.word	0x000063f8
    5ba0:	00006444 	.word	0x00006444
    5ba4:	00006444 	.word	0x00006444
    5ba8:	00006444 	.word	0x00006444
    5bac:	00006444 	.word	0x00006444
    5bb0:	00006444 	.word	0x00006444
    5bb4:	00006444 	.word	0x00006444
    5bb8:	00006444 	.word	0x00006444
    5bbc:	00006444 	.word	0x00006444
    5bc0:	00006444 	.word	0x00006444
    5bc4:	00006444 	.word	0x00006444
    5bc8:	00006130 	.word	0x00006130
    5bcc:	00005c70 	.word	0x00005c70
    5bd0:	00006444 	.word	0x00006444
    5bd4:	00006444 	.word	0x00006444
    5bd8:	00006444 	.word	0x00006444
    5bdc:	00006430 	.word	0x00006430
    5be0:	00005c70 	.word	0x00005c70
    5be4:	00006444 	.word	0x00006444
    5be8:	00006444 	.word	0x00006444
    5bec:	00005c20 	.word	0x00005c20
    5bf0:	00006444 	.word	0x00006444
    5bf4:	0000646c 	.word	0x0000646c
    5bf8:	00005c38 	.word	0x00005c38
    5bfc:	00006494 	.word	0x00006494
    5c00:	00005c20 	.word	0x00005c20
    5c04:	00006444 	.word	0x00006444
    5c08:	000060cc 	.word	0x000060cc
    5c0c:	00006444 	.word	0x00006444
    5c10:	00005cfc 	.word	0x00005cfc
    5c14:	00006444 	.word	0x00006444
    5c18:	00006444 	.word	0x00006444
    5c1c:	00006080 	.word	0x00006080
    5c20:	e59d3028 	ldr	r3, [sp, #40]
    5c24:	e3877010 	orr	r7, r7, #16	; 0x10
    5c28:	e1a01008 	mov	r1, r8
    5c2c:	e58d3028 	str	r3, [sp, #40]
    5c30:	eaffff9b 	b	5aa4 <_vfiprintf_r+0x120>
    5c34:	e3877010 	orr	r7, r7, #16	; 0x10
    5c38:	e2172010 	ands	r2, r7, #16	; 0x10
    5c3c:	1a000222 	bne	64cc <_vfiprintf_r+0xb48>
    5c40:	e2173040 	ands	r3, r7, #64	; 0x40
    5c44:	0a0002fb 	beq	6838 <_vfiprintf_r+0xeb4>
    5c48:	e59dc028 	ldr	ip, [sp, #40]
    5c4c:	e59d1028 	ldr	r1, [sp, #40]
    5c50:	e59c3000 	ldr	r3, [ip]
    5c54:	e2811004 	add	r1, r1, #4	; 0x4
    5c58:	e1a03803 	lsl	r3, r3, #16
    5c5c:	e1a0c823 	lsr	ip, r3, #16
    5c60:	e58d1024 	str	r1, [sp, #36]
    5c64:	e1a03002 	mov	r3, r2
    5c68:	ea00002f 	b	5d2c <_vfiprintf_r+0x3a8>
    5c6c:	e3877010 	orr	r7, r7, #16	; 0x10
    5c70:	e3170010 	tst	r7, #16	; 0x10
    5c74:	1a000220 	bne	64fc <_vfiprintf_r+0xb78>
    5c78:	e3170040 	tst	r7, #64	; 0x40
    5c7c:	0a0002f8 	beq	6864 <_vfiprintf_r+0xee0>
    5c80:	e59dc028 	ldr	ip, [sp, #40]
    5c84:	e59d1028 	ldr	r1, [sp, #40]
    5c88:	e59c3000 	ldr	r3, [ip]
    5c8c:	e2811004 	add	r1, r1, #4	; 0x4
    5c90:	e1a03803 	lsl	r3, r3, #16
    5c94:	e58d1024 	str	r1, [sp, #36]
    5c98:	e1a0c843 	asr	ip, r3, #16
    5c9c:	e35c0000 	cmp	ip, #0	; 0x0
    5ca0:	b3a0302d 	movlt	r3, #45	; 0x2d
    5ca4:	b5cd34ff 	strblt	r3, [sp, #1279]
    5ca8:	a3a03001 	movge	r3, #1	; 0x1
    5cac:	b26cc000 	rsblt	ip, ip, #0	; 0x0
    5cb0:	b243302c 	sublt	r3, r3, #44	; 0x2c
    5cb4:	e3550000 	cmp	r5, #0	; 0x0
    5cb8:	aa00001f 	bge	5d3c <_vfiprintf_r+0x3b8>
    5cbc:	e28d0e4f 	add	r0, sp, #1264	; 0x4f0
    5cc0:	e3530001 	cmp	r3, #1	; 0x1
    5cc4:	0a0002b3 	beq	6798 <_vfiprintf_r+0xe14>
    5cc8:	31a09000 	movcc	r9, r0
    5ccc:	3a000250 	bcc	6614 <_vfiprintf_r+0xc90>
    5cd0:	e3530002 	cmp	r3, #2	; 0x2
    5cd4:	0a0002c4 	beq	67ec <_vfiprintf_r+0xe68>
    5cd8:	e59f0c1c 	ldr	r0, [pc, #3100]	; 68fc <_vfiprintf_r+0xf78>
    5cdc:	e59d2024 	ldr	r2, [sp, #36]
    5ce0:	e58d5018 	str	r5, [sp, #24]
    5ce4:	e58d2028 	str	r2, [sp, #40]
    5ce8:	e1a09000 	mov	r9, r0
    5cec:	ebfffdfc 	bl	54e4 <strlen>
    5cf0:	e1a0b000 	mov	fp, r0
    5cf4:	ea000023 	b	5d88 <_vfiprintf_r+0x404>
    5cf8:	e3877010 	orr	r7, r7, #16	; 0x10
    5cfc:	e3170010 	tst	r7, #16	; 0x10
    5d00:	1a0001f7 	bne	64e4 <_vfiprintf_r+0xb60>
    5d04:	e3170040 	tst	r7, #64	; 0x40
    5d08:	0a0002cf 	beq	684c <_vfiprintf_r+0xec8>
    5d0c:	e59dc028 	ldr	ip, [sp, #40]
    5d10:	e59d1028 	ldr	r1, [sp, #40]
    5d14:	e59c3000 	ldr	r3, [ip]
    5d18:	e2811004 	add	r1, r1, #4	; 0x4
    5d1c:	e1a03803 	lsl	r3, r3, #16
    5d20:	e58d1024 	str	r1, [sp, #36]
    5d24:	e1a0c823 	lsr	ip, r3, #16
    5d28:	e3a03001 	mov	r3, #1	; 0x1
    5d2c:	e3a01000 	mov	r1, #0	; 0x0
    5d30:	e3550000 	cmp	r5, #0	; 0x0
    5d34:	e5cd14ff 	strb	r1, [sp, #1279]
    5d38:	baffffdf 	blt	5cbc <_vfiprintf_r+0x338>
    5d3c:	e3550000 	cmp	r5, #0	; 0x0
    5d40:	035c0000 	cmpeq	ip, #0	; 0x0
    5d44:	e3c77080 	bic	r7, r7, #128	; 0x80
    5d48:	e28d0e4f 	add	r0, sp, #1264	; 0x4f0
    5d4c:	1affffdb 	bne	5cc0 <_vfiprintf_r+0x33c>
    5d50:	e3530000 	cmp	r3, #0	; 0x0
    5d54:	1a000006 	bne	5d74 <_vfiprintf_r+0x3f0>
    5d58:	e3170001 	tst	r7, #1	; 0x1
    5d5c:	12833030 	addne	r3, r3, #48	; 0x30
    5d60:	128d9e4e 	addne	r9, sp, #1248	; 0x4e0
    5d64:	15cd34ef 	strbne	r3, [sp, #1263]
    5d68:	1289900f 	addne	r9, r9, #15	; 0xf
    5d6c:	13a0b001 	movne	fp, #1	; 0x1
    5d70:	1a000001 	bne	5d7c <_vfiprintf_r+0x3f8>
    5d74:	e1a09000 	mov	r9, r0
    5d78:	e3a0b000 	mov	fp, #0	; 0x0
    5d7c:	e59d3024 	ldr	r3, [sp, #36]
    5d80:	e58d5018 	str	r5, [sp, #24]
    5d84:	e58d3028 	str	r3, [sp, #40]
    5d88:	e5dd34ff 	ldrb	r3, [sp, #1279]
    5d8c:	e59d1018 	ldr	r1, [sp, #24]
    5d90:	e151000b 	cmp	r1, fp
    5d94:	b1a0100b 	movlt	r1, fp
    5d98:	e3530000 	cmp	r3, #0	; 0x0
    5d9c:	e58d101c 	str	r1, [sp, #28]
    5da0:	12811001 	addne	r1, r1, #1	; 0x1
    5da4:	158d101c 	strne	r1, [sp, #28]
    5da8:	e2172002 	ands	r2, r7, #2	; 0x2
    5dac:	159d301c 	ldrne	r3, [sp, #28]
    5db0:	12833002 	addne	r3, r3, #2	; 0x2
    5db4:	158d301c 	strne	r3, [sp, #28]
    5db8:	e2175084 	ands	r5, r7, #132	; 0x84
    5dbc:	e58d2008 	str	r2, [sp, #8]
    5dc0:	e58d500c 	str	r5, [sp, #12]
    5dc4:	1a0000ee 	bne	6184 <_vfiprintf_r+0x800>
    5dc8:	e59dc014 	ldr	ip, [sp, #20]
    5dcc:	e59d101c 	ldr	r1, [sp, #28]
    5dd0:	e061400c 	rsb	r4, r1, ip
    5dd4:	e3540000 	cmp	r4, #0	; 0x0
    5dd8:	da0000e9 	ble	6184 <_vfiprintf_r+0x800>
    5ddc:	e3540010 	cmp	r4, #16	; 0x10
    5de0:	da0002af 	ble	68a4 <_vfiprintf_r+0xf20>
    5de4:	e59d04f8 	ldr	r0, [sp, #1272]
    5de8:	e59d14f4 	ldr	r1, [sp, #1268]
    5dec:	e59f5b0c 	ldr	r5, [pc, #2828]	; 6900 <_vfiprintf_r+0xf7c>
    5df0:	e28dae4f 	add	sl, sp, #1264	; 0x4f0
    5df4:	ea000002 	b	5e04 <_vfiprintf_r+0x480>
    5df8:	e2444010 	sub	r4, r4, #16	; 0x10
    5dfc:	e3540010 	cmp	r4, #16	; 0x10
    5e00:	da000016 	ble	5e60 <_vfiprintf_r+0x4dc>
    5e04:	e2811001 	add	r1, r1, #1	; 0x1
    5e08:	e2800010 	add	r0, r0, #16	; 0x10
    5e0c:	e3510007 	cmp	r1, #7	; 0x7
    5e10:	e3a02010 	mov	r2, #16	; 0x10
    5e14:	e5865000 	str	r5, [r6]
    5e18:	e5862004 	str	r2, [r6, #4]
    5e1c:	e58d04f8 	str	r0, [sp, #1272]
    5e20:	e58d14f4 	str	r1, [sp, #1268]
    5e24:	d2866008 	addle	r6, r6, #8	; 0x8
    5e28:	dafffff2 	ble	5df8 <_vfiprintf_r+0x474>
    5e2c:	e59d0004 	ldr	r0, [sp, #4]
    5e30:	e59d1000 	ldr	r1, [sp]
    5e34:	e1a0200a 	mov	r2, sl
    5e38:	ebfffec5 	bl	5954 <__sprint_r>
    5e3c:	e28d6d12 	add	r6, sp, #1152	; 0x480
    5e40:	e3500000 	cmp	r0, #0	; 0x0
    5e44:	e2866008 	add	r6, r6, #8	; 0x8
    5e48:	1a00001c 	bne	5ec0 <_vfiprintf_r+0x53c>
    5e4c:	e2444010 	sub	r4, r4, #16	; 0x10
    5e50:	e3540010 	cmp	r4, #16	; 0x10
    5e54:	e59d04f8 	ldr	r0, [sp, #1272]
    5e58:	e59d14f4 	ldr	r1, [sp, #1268]
    5e5c:	caffffe8 	bgt	5e04 <_vfiprintf_r+0x480>
    5e60:	e2811001 	add	r1, r1, #1	; 0x1
    5e64:	e0800004 	add	r0, r0, r4
    5e68:	e3510007 	cmp	r1, #7	; 0x7
    5e6c:	e5865000 	str	r5, [r6]
    5e70:	e5864004 	str	r4, [r6, #4]
    5e74:	e58d04f8 	str	r0, [sp, #1272]
    5e78:	e58d14f4 	str	r1, [sp, #1268]
    5e7c:	ca00021e 	bgt	66fc <_vfiprintf_r+0xd78>
    5e80:	e2866008 	add	r6, r6, #8	; 0x8
    5e84:	ea0000c0 	b	618c <_vfiprintf_r+0x808>
    5e88:	e59d0004 	ldr	r0, [sp, #4]
    5e8c:	e59d1000 	ldr	r1, [sp]
    5e90:	e28d2e4f 	add	r2, sp, #1264	; 0x4f0
    5e94:	ebfffeae 	bl	5954 <__sprint_r>
    5e98:	e3500000 	cmp	r0, #0	; 0x0
    5e9c:	1a000007 	bne	5ec0 <_vfiprintf_r+0x53c>
    5ea0:	e28d6d12 	add	r6, sp, #1152	; 0x480
    5ea4:	eafffeed 	b	5a60 <_vfiprintf_r+0xdc>
    5ea8:	e59d34f8 	ldr	r3, [sp, #1272]
    5eac:	e3530000 	cmp	r3, #0	; 0x0
    5eb0:	159d0004 	ldrne	r0, [sp, #4]
    5eb4:	159d1000 	ldrne	r1, [sp]
    5eb8:	128d2e4f 	addne	r2, sp, #1264	; 0x4f0
    5ebc:	1bfffea4 	blne	5954 <__sprint_r>
    5ec0:	e59d2000 	ldr	r2, [sp]
    5ec4:	e1d230bc 	ldrh	r3, [r2, #12]
    5ec8:	e3130040 	tst	r3, #64	; 0x40
    5ecc:	0a000001 	beq	5ed8 <_vfiprintf_r+0x554>
    5ed0:	e3e03000 	mvn	r3, #0	; 0x0
    5ed4:	e58d3010 	str	r3, [sp, #16]
    5ed8:	e59d0010 	ldr	r0, [sp, #16]
    5edc:	e28ddc05 	add	sp, sp, #1280	; 0x500
    5ee0:	e8bd8ff0 	pop	{r4, r5, r6, r7, r8, r9, sl, fp, pc}
    5ee4:	e59d2000 	ldr	r2, [sp]
    5ee8:	e1d230fe 	ldrsh	r3, [r2, #14]
    5eec:	e3530000 	cmp	r3, #0	; 0x0
    5ef0:	bafffeb9 	blt	59dc <_vfiprintf_r+0x58>
    5ef4:	e592501c 	ldr	r5, [r2, #28]
    5ef8:	e5926024 	ldr	r6, [r2, #36]
    5efc:	e1a02004 	mov	r2, r4
    5f00:	e3a04b01 	mov	r4, #1024	; 0x400
    5f04:	e3ccc002 	bic	ip, ip, #2	; 0x2
    5f08:	e08d8004 	add	r8, sp, r4
    5f0c:	e1c8c3b8 	strh	ip, [r8, #56]
    5f10:	e3a0c000 	mov	ip, #0	; 0x0
    5f14:	e58dc444 	str	ip, [sp, #1092]
    5f18:	e59dc000 	ldr	ip, [sp]
    5f1c:	e28d7e42 	add	r7, sp, #1056	; 0x420
    5f20:	e1dcc0be 	ldrh	ip, [ip, #14]
    5f24:	e28de030 	add	lr, sp, #48	; 0x30
    5f28:	e287700c 	add	r7, r7, #12	; 0xc
    5f2c:	e24ee004 	sub	lr, lr, #4	; 0x4
    5f30:	e1a0300a 	mov	r3, sl
    5f34:	e59d0004 	ldr	r0, [sp, #4]
    5f38:	e1a01007 	mov	r1, r7
    5f3c:	e1c8c3ba 	strh	ip, [r8, #58]
    5f40:	e58d5448 	str	r5, [sp, #1096]
    5f44:	e58d6450 	str	r6, [sp, #1104]
    5f48:	e58de43c 	str	lr, [sp, #1084]
    5f4c:	e58d4440 	str	r4, [sp, #1088]
    5f50:	e58de42c 	str	lr, [sp, #1068]
    5f54:	e58d4434 	str	r4, [sp, #1076]
    5f58:	ebfffe89 	bl	5984 <_vfiprintf_r>
    5f5c:	e3500000 	cmp	r0, #0	; 0x0
    5f60:	e58d0010 	str	r0, [sp, #16]
    5f64:	ba000006 	blt	5f84 <_vfiprintf_r+0x600>
    5f68:	e1a01007 	mov	r1, r7
    5f6c:	e59d0004 	ldr	r0, [sp, #4]
    5f70:	eb0002c4 	bl	6a88 <_fflush_r>
    5f74:	e59d1010 	ldr	r1, [sp, #16]
    5f78:	e3500000 	cmp	r0, #0	; 0x0
    5f7c:	13e01000 	mvnne	r1, #0	; 0x0
    5f80:	e58d1010 	str	r1, [sp, #16]
    5f84:	e28d2b01 	add	r2, sp, #1024	; 0x400
    5f88:	e1d233b8 	ldrh	r3, [r2, #56]
    5f8c:	e3130040 	tst	r3, #64	; 0x40
    5f90:	159d5000 	ldrne	r5, [sp]
    5f94:	11d530bc 	ldrhne	r3, [r5, #12]
    5f98:	13833040 	orrne	r3, r3, #64	; 0x40
    5f9c:	11c530bc 	strhne	r3, [r5, #12]
    5fa0:	eaffffcc 	b	5ed8 <_vfiprintf_r+0x554>
    5fa4:	eb00032e 	bl	6c64 <__sinit>
    5fa8:	eafffe7f 	b	59ac <_vfiprintf_r+0x28>
    5fac:	e59d3028 	ldr	r3, [sp, #40]
    5fb0:	e5cda4ff 	strb	sl, [sp, #1279]
    5fb4:	e1a01008 	mov	r1, r8
    5fb8:	e58d3028 	str	r3, [sp, #40]
    5fbc:	eafffeb8 	b	5aa4 <_vfiprintf_r+0x120>
    5fc0:	e59d3028 	ldr	r3, [sp, #40]
    5fc4:	e3877004 	orr	r7, r7, #4	; 0x4
    5fc8:	e1a01008 	mov	r1, r8
    5fcc:	e58d3028 	str	r3, [sp, #40]
    5fd0:	eafffeb3 	b	5aa4 <_vfiprintf_r+0x120>
    5fd4:	e1a01008 	mov	r1, r8
    5fd8:	e4d14001 	ldrb	r4, [r1], #1
    5fdc:	e354002a 	cmp	r4, #42	; 0x2a
    5fe0:	0a00023f 	beq	68e4 <_vfiprintf_r+0xf60>
    5fe4:	e2440030 	sub	r0, r4, #48	; 0x30
    5fe8:	e3500009 	cmp	r0, #9	; 0x9
    5fec:	83a05000 	movhi	r5, #0	; 0x0
    5ff0:	8a00000c 	bhi	6028 <_vfiprintf_r+0x6a4>
    5ff4:	e288c002 	add	ip, r8, #2	; 0x2
    5ff8:	e3a03000 	mov	r3, #0	; 0x0
    5ffc:	e1a02183 	lsl	r2, r3, #3
    6000:	e55c4001 	ldrb	r4, [ip, #-1]
    6004:	e1a03083 	lsl	r3, r3, #1
    6008:	e0833002 	add	r3, r3, r2
    600c:	e0833000 	add	r3, r3, r0
    6010:	e2440030 	sub	r0, r4, #48	; 0x30
    6014:	e3500009 	cmp	r0, #9	; 0x9
    6018:	e1a0100c 	mov	r1, ip
    601c:	e28cc001 	add	ip, ip, #1	; 0x1
    6020:	9afffff5 	bls	5ffc <_vfiprintf_r+0x678>
    6024:	e1835fc3 	orr	r5, r3, r3, asr #31
    6028:	e1a08001 	mov	r8, r1
    602c:	eafffe9e 	b	5aac <_vfiprintf_r+0x128>
    6030:	e59d3028 	ldr	r3, [sp, #40]
    6034:	e3877080 	orr	r7, r7, #128	; 0x80
    6038:	e1a01008 	mov	r1, r8
    603c:	e58d3028 	str	r3, [sp, #40]
    6040:	eafffe97 	b	5aa4 <_vfiprintf_r+0x120>
    6044:	e2440030 	sub	r0, r4, #48	; 0x30
    6048:	e3a03000 	mov	r3, #0	; 0x0
    604c:	e1a01008 	mov	r1, r8
    6050:	e1a02183 	lsl	r2, r3, #3
    6054:	e4d14001 	ldrb	r4, [r1], #1
    6058:	e1a03083 	lsl	r3, r3, #1
    605c:	e0833002 	add	r3, r3, r2
    6060:	e0803003 	add	r3, r0, r3
    6064:	e2440030 	sub	r0, r4, #48	; 0x30
    6068:	e3500009 	cmp	r0, #9	; 0x9
    606c:	e1a08001 	mov	r8, r1
    6070:	9afffff5 	bls	604c <_vfiprintf_r+0x6c8>
    6074:	e58d3014 	str	r3, [sp, #20]
    6078:	e1a08001 	mov	r8, r1
    607c:	eafffe8a 	b	5aac <_vfiprintf_r+0x128>
    6080:	e59fc87c 	ldr	ip, [pc, #2172]	; 6904 <_vfiprintf_r+0xf80>
    6084:	e3170010 	tst	r7, #16	; 0x10
    6088:	e58dc020 	str	ip, [sp, #32]
    608c:	0a0000dd 	beq	6408 <_vfiprintf_r+0xa84>
    6090:	e59d1028 	ldr	r1, [sp, #40]
    6094:	e2812004 	add	r2, r1, #4	; 0x4
    6098:	e591c000 	ldr	ip, [r1]
    609c:	e58d2024 	str	r2, [sp, #36]
    60a0:	e35c0000 	cmp	ip, #0	; 0x0
    60a4:	03a03000 	moveq	r3, #0	; 0x0
    60a8:	12073001 	andne	r3, r7, #1	; 0x1
    60ac:	e3530000 	cmp	r3, #0	; 0x0
    60b0:	13a03030 	movne	r3, #48	; 0x30
    60b4:	15cd34fd 	strbne	r3, [sp, #1277]
    60b8:	02833002 	addeq	r3, r3, #2	; 0x2
    60bc:	15cd44fe 	strbne	r4, [sp, #1278]
    60c0:	13877002 	orrne	r7, r7, #2	; 0x2
    60c4:	1243302e 	subne	r3, r3, #46	; 0x2e
    60c8:	eaffff17 	b	5d2c <_vfiprintf_r+0x3a8>
    60cc:	e3a02000 	mov	r2, #0	; 0x0
    60d0:	e59d3028 	ldr	r3, [sp, #40]
    60d4:	e5cd24ff 	strb	r2, [sp, #1279]
    60d8:	e5939000 	ldr	r9, [r3]
    60dc:	e2833004 	add	r3, r3, #4	; 0x4
    60e0:	e3590000 	cmp	r9, #0	; 0x0
    60e4:	e58d3028 	str	r3, [sp, #40]
    60e8:	0a0001f1 	beq	68b4 <_vfiprintf_r+0xf30>
    60ec:	e3550000 	cmp	r5, #0	; 0x0
    60f0:	ba0001e5 	blt	688c <_vfiprintf_r+0xf08>
    60f4:	e1a00009 	mov	r0, r9
    60f8:	e3a01000 	mov	r1, #0	; 0x0
    60fc:	e1a02005 	mov	r2, r5
    6100:	eb000615 	bl	795c <memchr>
    6104:	e3500000 	cmp	r0, #0	; 0x0
    6108:	0a000004 	beq	6120 <_vfiprintf_r+0x79c>
    610c:	e069b000 	rsb	fp, r9, r0
    6110:	e15b0005 	cmp	fp, r5
    6114:	d3a05000 	movle	r5, #0	; 0x0
    6118:	d58d5018 	strle	r5, [sp, #24]
    611c:	daffff19 	ble	5d88 <_vfiprintf_r+0x404>
    6120:	e3a0c000 	mov	ip, #0	; 0x0
    6124:	e1a0b005 	mov	fp, r5
    6128:	e58dc018 	str	ip, [sp, #24]
    612c:	eaffff15 	b	5d88 <_vfiprintf_r+0x404>
    6130:	e59d5028 	ldr	r5, [sp, #40]
    6134:	e5953000 	ldr	r3, [r5]
    6138:	e3a0b001 	mov	fp, #1	; 0x1
    613c:	e3a0c000 	mov	ip, #0	; 0x0
    6140:	e2855004 	add	r5, r5, #4	; 0x4
    6144:	e28d9d13 	add	r9, sp, #1216	; 0x4c0
    6148:	e5cd34c8 	strb	r3, [sp, #1224]
    614c:	e5cdc4ff 	strb	ip, [sp, #1279]
    6150:	e58d5028 	str	r5, [sp, #40]
    6154:	e58db01c 	str	fp, [sp, #28]
    6158:	e2899008 	add	r9, r9, #8	; 0x8
    615c:	e2172002 	ands	r2, r7, #2	; 0x2
    6160:	159d301c 	ldrne	r3, [sp, #28]
    6164:	e3a05000 	mov	r5, #0	; 0x0
    6168:	12833002 	addne	r3, r3, #2	; 0x2
    616c:	e58d5018 	str	r5, [sp, #24]
    6170:	158d301c 	strne	r3, [sp, #28]
    6174:	e2175084 	ands	r5, r7, #132	; 0x84
    6178:	e58d2008 	str	r2, [sp, #8]
    617c:	e58d500c 	str	r5, [sp, #12]
    6180:	0affff10 	beq	5dc8 <_vfiprintf_r+0x444>
    6184:	e59d04f8 	ldr	r0, [sp, #1272]
    6188:	e59d14f4 	ldr	r1, [sp, #1268]
    618c:	e5dd34ff 	ldrb	r3, [sp, #1279]
    6190:	e3530000 	cmp	r3, #0	; 0x0
    6194:	0a00000b 	beq	61c8 <_vfiprintf_r+0x844>
    6198:	e28d3e4f 	add	r3, sp, #1264	; 0x4f0
    619c:	e2811001 	add	r1, r1, #1	; 0x1
    61a0:	e283300f 	add	r3, r3, #15	; 0xf
    61a4:	e2800001 	add	r0, r0, #1	; 0x1
    61a8:	e5863000 	str	r3, [r6]
    61ac:	e3510007 	cmp	r1, #7	; 0x7
    61b0:	e3a03001 	mov	r3, #1	; 0x1
    61b4:	e5863004 	str	r3, [r6, #4]
    61b8:	e58d04f8 	str	r0, [sp, #1272]
    61bc:	e58d14f4 	str	r1, [sp, #1268]
    61c0:	ca0000f4 	bgt	6598 <_vfiprintf_r+0xc14>
    61c4:	e2866008 	add	r6, r6, #8	; 0x8
    61c8:	e59d5008 	ldr	r5, [sp, #8]
    61cc:	e3550000 	cmp	r5, #0	; 0x0
    61d0:	0a00000b 	beq	6204 <_vfiprintf_r+0x880>
    61d4:	e2811001 	add	r1, r1, #1	; 0x1
    61d8:	e28d3e4f 	add	r3, sp, #1264	; 0x4f0
    61dc:	e2800002 	add	r0, r0, #2	; 0x2
    61e0:	e283300d 	add	r3, r3, #13	; 0xd
    61e4:	e3a02002 	mov	r2, #2	; 0x2
    61e8:	e3510007 	cmp	r1, #7	; 0x7
    61ec:	e5863000 	str	r3, [r6]
    61f0:	e5862004 	str	r2, [r6, #4]
    61f4:	e58d04f8 	str	r0, [sp, #1272]
    61f8:	e58d14f4 	str	r1, [sp, #1268]
    61fc:	ca0000ef 	bgt	65c0 <_vfiprintf_r+0xc3c>
    6200:	e2866008 	add	r6, r6, #8	; 0x8
    6204:	e59dc00c 	ldr	ip, [sp, #12]
    6208:	e35c0080 	cmp	ip, #128	; 0x80
    620c:	0a00010c 	beq	6644 <_vfiprintf_r+0xcc0>
    6210:	e59d2018 	ldr	r2, [sp, #24]
    6214:	e06b4002 	rsb	r4, fp, r2
    6218:	e3540000 	cmp	r4, #0	; 0x0
    621c:	da000028 	ble	62c4 <_vfiprintf_r+0x940>
    6220:	e3540010 	cmp	r4, #16	; 0x10
    6224:	d59f56dc 	ldrle	r5, [pc, #1756]	; 6908 <_vfiprintf_r+0xf84>
    6228:	da00001c 	ble	62a0 <_vfiprintf_r+0x91c>
    622c:	e59f56d4 	ldr	r5, [pc, #1748]	; 6908 <_vfiprintf_r+0xf84>
    6230:	e28dae4f 	add	sl, sp, #1264	; 0x4f0
    6234:	ea000002 	b	6244 <_vfiprintf_r+0x8c0>
    6238:	e2444010 	sub	r4, r4, #16	; 0x10
    623c:	e3540010 	cmp	r4, #16	; 0x10
    6240:	da000016 	ble	62a0 <_vfiprintf_r+0x91c>
    6244:	e2811001 	add	r1, r1, #1	; 0x1
    6248:	e2800010 	add	r0, r0, #16	; 0x10
    624c:	e3510007 	cmp	r1, #7	; 0x7
    6250:	e3a03010 	mov	r3, #16	; 0x10
    6254:	e5865000 	str	r5, [r6]
    6258:	e5863004 	str	r3, [r6, #4]
    625c:	e58d04f8 	str	r0, [sp, #1272]
    6260:	e58d14f4 	str	r1, [sp, #1268]
    6264:	d2866008 	addle	r6, r6, #8	; 0x8
    6268:	dafffff2 	ble	6238 <_vfiprintf_r+0x8b4>
    626c:	e59d0004 	ldr	r0, [sp, #4]
    6270:	e59d1000 	ldr	r1, [sp]
    6274:	e1a0200a 	mov	r2, sl
    6278:	ebfffdb5 	bl	5954 <__sprint_r>
    627c:	e28d6d12 	add	r6, sp, #1152	; 0x480
    6280:	e3500000 	cmp	r0, #0	; 0x0
    6284:	e2866008 	add	r6, r6, #8	; 0x8
    6288:	1affff0c 	bne	5ec0 <_vfiprintf_r+0x53c>
    628c:	e2444010 	sub	r4, r4, #16	; 0x10
    6290:	e3540010 	cmp	r4, #16	; 0x10
    6294:	e59d04f8 	ldr	r0, [sp, #1272]
    6298:	e59d14f4 	ldr	r1, [sp, #1268]
    629c:	caffffe8 	bgt	6244 <_vfiprintf_r+0x8c0>
    62a0:	e2811001 	add	r1, r1, #1	; 0x1
    62a4:	e0800004 	add	r0, r0, r4
    62a8:	e3510007 	cmp	r1, #7	; 0x7
    62ac:	e5865000 	str	r5, [r6]
    62b0:	e5864004 	str	r4, [r6, #4]
    62b4:	e58d04f8 	str	r0, [sp, #1272]
    62b8:	e58d14f4 	str	r1, [sp, #1268]
    62bc:	ca0000c9 	bgt	65e8 <_vfiprintf_r+0xc64>
    62c0:	e2866008 	add	r6, r6, #8	; 0x8
    62c4:	e2813001 	add	r3, r1, #1	; 0x1
    62c8:	e080000b 	add	r0, r0, fp
    62cc:	e3530007 	cmp	r3, #7	; 0x7
    62d0:	e8860a00 	stm	r6, {r9, fp}
    62d4:	e58d04f8 	str	r0, [sp, #1272]
    62d8:	e58d34f4 	str	r3, [sp, #1268]
    62dc:	d286c008 	addle	ip, r6, #8	; 0x8
    62e0:	ca000110 	bgt	6728 <_vfiprintf_r+0xda4>
    62e4:	e3170004 	tst	r7, #4	; 0x4
    62e8:	0a000033 	beq	63bc <_vfiprintf_r+0xa38>
    62ec:	e59d5014 	ldr	r5, [sp, #20]
    62f0:	e59d101c 	ldr	r1, [sp, #28]
    62f4:	e0614005 	rsb	r4, r1, r5
    62f8:	e3540000 	cmp	r4, #0	; 0x0
    62fc:	da00002e 	ble	63bc <_vfiprintf_r+0xa38>
    6300:	e3540010 	cmp	r4, #16	; 0x10
    6304:	da000173 	ble	68d8 <_vfiprintf_r+0xf54>
    6308:	e59d14f4 	ldr	r1, [sp, #1268]
    630c:	e59f55ec 	ldr	r5, [pc, #1516]	; 6900 <_vfiprintf_r+0xf7c>
    6310:	e28d6e4f 	add	r6, sp, #1264	; 0x4f0
    6314:	ea000002 	b	6324 <_vfiprintf_r+0x9a0>
    6318:	e2444010 	sub	r4, r4, #16	; 0x10
    631c:	e3540010 	cmp	r4, #16	; 0x10
    6320:	da000016 	ble	6380 <_vfiprintf_r+0x9fc>
    6324:	e2811001 	add	r1, r1, #1	; 0x1
    6328:	e2800010 	add	r0, r0, #16	; 0x10
    632c:	e3510007 	cmp	r1, #7	; 0x7
    6330:	e3a02010 	mov	r2, #16	; 0x10
    6334:	e58c5000 	str	r5, [ip]
    6338:	e58c2004 	str	r2, [ip, #4]
    633c:	e58d04f8 	str	r0, [sp, #1272]
    6340:	e58d14f4 	str	r1, [sp, #1268]
    6344:	d28cc008 	addle	ip, ip, #8	; 0x8
    6348:	dafffff2 	ble	6318 <_vfiprintf_r+0x994>
    634c:	e59d0004 	ldr	r0, [sp, #4]
    6350:	e59d1000 	ldr	r1, [sp]
    6354:	e1a02006 	mov	r2, r6
    6358:	ebfffd7d 	bl	5954 <__sprint_r>
    635c:	e28dcd12 	add	ip, sp, #1152	; 0x480
    6360:	e3500000 	cmp	r0, #0	; 0x0
    6364:	e28cc008 	add	ip, ip, #8	; 0x8
    6368:	1afffed4 	bne	5ec0 <_vfiprintf_r+0x53c>
    636c:	e2444010 	sub	r4, r4, #16	; 0x10
    6370:	e3540010 	cmp	r4, #16	; 0x10
    6374:	e59d04f8 	ldr	r0, [sp, #1272]
    6378:	e59d14f4 	ldr	r1, [sp, #1268]
    637c:	caffffe8 	bgt	6324 <_vfiprintf_r+0x9a0>
    6380:	e2813001 	add	r3, r1, #1	; 0x1
    6384:	e0800004 	add	r0, r0, r4
    6388:	e3530007 	cmp	r3, #7	; 0x7
    638c:	e58c5000 	str	r5, [ip]
    6390:	e58c4004 	str	r4, [ip, #4]
    6394:	e58d04f8 	str	r0, [sp, #1272]
    6398:	e58d34f4 	str	r3, [sp, #1268]
    639c:	da000006 	ble	63bc <_vfiprintf_r+0xa38>
    63a0:	e59d0004 	ldr	r0, [sp, #4]
    63a4:	e59d1000 	ldr	r1, [sp]
    63a8:	e28d2e4f 	add	r2, sp, #1264	; 0x4f0
    63ac:	ebfffd68 	bl	5954 <__sprint_r>
    63b0:	e3500000 	cmp	r0, #0	; 0x0
    63b4:	1afffec1 	bne	5ec0 <_vfiprintf_r+0x53c>
    63b8:	e59d04f8 	ldr	r0, [sp, #1272]
    63bc:	e59d3010 	ldr	r3, [sp, #16]
    63c0:	e59d501c 	ldr	r5, [sp, #28]
    63c4:	e59dc014 	ldr	ip, [sp, #20]
    63c8:	e155000c 	cmp	r5, ip
    63cc:	a0833005 	addge	r3, r3, r5
    63d0:	b083300c 	addlt	r3, r3, ip
    63d4:	e3500000 	cmp	r0, #0	; 0x0
    63d8:	e58d3010 	str	r3, [sp, #16]
    63dc:	1a0000db 	bne	6750 <_vfiprintf_r+0xdcc>
    63e0:	e3a01000 	mov	r1, #0	; 0x0
    63e4:	e28d6d12 	add	r6, sp, #1152	; 0x480
    63e8:	e58d14f4 	str	r1, [sp, #1268]
    63ec:	e59da028 	ldr	sl, [sp, #40]
    63f0:	e2866008 	add	r6, r6, #8	; 0x8
    63f4:	eafffd83 	b	5a08 <_vfiprintf_r+0x84>
    63f8:	e59f350c 	ldr	r3, [pc, #1292]	; 690c <_vfiprintf_r+0xf88>
    63fc:	e3170010 	tst	r7, #16	; 0x10
    6400:	e58d3020 	str	r3, [sp, #32]
    6404:	1affff21 	bne	6090 <_vfiprintf_r+0x70c>
    6408:	e3170040 	tst	r7, #64	; 0x40
    640c:	0a000119 	beq	6878 <_vfiprintf_r+0xef4>
    6410:	e59dc028 	ldr	ip, [sp, #40]
    6414:	e59d1028 	ldr	r1, [sp, #40]
    6418:	e59c3000 	ldr	r3, [ip]
    641c:	e2811004 	add	r1, r1, #4	; 0x4
    6420:	e1a03803 	lsl	r3, r3, #16
    6424:	e1a0c823 	lsr	ip, r3, #16
    6428:	e58d1024 	str	r1, [sp, #36]
    642c:	eaffff1b 	b	60a0 <_vfiprintf_r+0x71c>
    6430:	e59d3028 	ldr	r3, [sp, #40]
    6434:	e3877040 	orr	r7, r7, #64	; 0x40
    6438:	e1a01008 	mov	r1, r8
    643c:	e58d3028 	str	r3, [sp, #40]
    6440:	eafffd97 	b	5aa4 <_vfiprintf_r+0x120>
    6444:	e3540000 	cmp	r4, #0	; 0x0
    6448:	0afffe96 	beq	5ea8 <_vfiprintf_r+0x524>
    644c:	e3a0b001 	mov	fp, #1	; 0x1
    6450:	e3a05000 	mov	r5, #0	; 0x0
    6454:	e28d9d13 	add	r9, sp, #1216	; 0x4c0
    6458:	e5cd44c8 	strb	r4, [sp, #1224]
    645c:	e5cd54ff 	strb	r5, [sp, #1279]
    6460:	e2899008 	add	r9, r9, #8	; 0x8
    6464:	e58db01c 	str	fp, [sp, #28]
    6468:	eaffff3b 	b	615c <_vfiprintf_r+0x7d8>
    646c:	e3170010 	tst	r7, #16	; 0x10
    6470:	1a000042 	bne	6580 <_vfiprintf_r+0xbfc>
    6474:	e3170040 	tst	r7, #64	; 0x40
    6478:	0a000040 	beq	6580 <_vfiprintf_r+0xbfc>
    647c:	e59d1028 	ldr	r1, [sp, #40]
    6480:	e59d2010 	ldr	r2, [sp, #16]
    6484:	e5913000 	ldr	r3, [r1]
    6488:	e281a004 	add	sl, r1, #4	; 0x4
    648c:	e1c320b0 	strh	r2, [r3]
    6490:	eafffd5c 	b	5a08 <_vfiprintf_r+0x84>
    6494:	e59d2028 	ldr	r2, [sp, #40]
    6498:	e3a03030 	mov	r3, #48	; 0x30
    649c:	e592c000 	ldr	ip, [r2]
    64a0:	e5cd34fd 	strb	r3, [sp, #1277]
    64a4:	e59d3028 	ldr	r3, [sp, #40]
    64a8:	e59f1454 	ldr	r1, [pc, #1108]	; 6904 <_vfiprintf_r+0xf80>
    64ac:	e2833004 	add	r3, r3, #4	; 0x4
    64b0:	e3a02078 	mov	r2, #120	; 0x78
    64b4:	e58d3024 	str	r3, [sp, #36]
    64b8:	e5cd24fe 	strb	r2, [sp, #1278]
    64bc:	e3877002 	orr	r7, r7, #2	; 0x2
    64c0:	e3a03002 	mov	r3, #2	; 0x2
    64c4:	e58d1020 	str	r1, [sp, #32]
    64c8:	eafffe17 	b	5d2c <_vfiprintf_r+0x3a8>
    64cc:	e59d1028 	ldr	r1, [sp, #40]
    64d0:	e2812004 	add	r2, r1, #4	; 0x4
    64d4:	e591c000 	ldr	ip, [r1]
    64d8:	e58d2024 	str	r2, [sp, #36]
    64dc:	e3a03000 	mov	r3, #0	; 0x0
    64e0:	eafffe11 	b	5d2c <_vfiprintf_r+0x3a8>
    64e4:	e59d1028 	ldr	r1, [sp, #40]
    64e8:	e2812004 	add	r2, r1, #4	; 0x4
    64ec:	e591c000 	ldr	ip, [r1]
    64f0:	e58d2024 	str	r2, [sp, #36]
    64f4:	e3a03001 	mov	r3, #1	; 0x1
    64f8:	eafffe0b 	b	5d2c <_vfiprintf_r+0x3a8>
    64fc:	e59d1028 	ldr	r1, [sp, #40]
    6500:	e2812004 	add	r2, r1, #4	; 0x4
    6504:	e591c000 	ldr	ip, [r1]
    6508:	e58d2024 	str	r2, [sp, #36]
    650c:	eafffde2 	b	5c9c <_vfiprintf_r+0x318>
    6510:	e5dd34ff 	ldrb	r3, [sp, #1279]
    6514:	e3530000 	cmp	r3, #0	; 0x0
    6518:	159d3028 	ldrne	r3, [sp, #40]
    651c:	1a000010 	bne	6564 <_vfiprintf_r+0xbe0>
    6520:	e59d3028 	ldr	r3, [sp, #40]
    6524:	e5cd94ff 	strb	r9, [sp, #1279]
    6528:	e1a01008 	mov	r1, r8
    652c:	e58d3028 	str	r3, [sp, #40]
    6530:	eafffd5b 	b	5aa4 <_vfiprintf_r+0x120>
    6534:	e59d3028 	ldr	r3, [sp, #40]
    6538:	e3877001 	orr	r7, r7, #1	; 0x1
    653c:	e1a01008 	mov	r1, r8
    6540:	e58d3028 	str	r3, [sp, #40]
    6544:	eafffd56 	b	5aa4 <_vfiprintf_r+0x120>
    6548:	e59dc028 	ldr	ip, [sp, #40]
    654c:	e59cc000 	ldr	ip, [ip]
    6550:	e59d1028 	ldr	r1, [sp, #40]
    6554:	e35c0000 	cmp	ip, #0	; 0x0
    6558:	e58dc014 	str	ip, [sp, #20]
    655c:	e2813004 	add	r3, r1, #4	; 0x4
    6560:	ba000002 	blt	6570 <_vfiprintf_r+0xbec>
    6564:	e1a01008 	mov	r1, r8
    6568:	e58d3028 	str	r3, [sp, #40]
    656c:	eafffd4c 	b	5aa4 <_vfiprintf_r+0x120>
    6570:	e59d2014 	ldr	r2, [sp, #20]
    6574:	e2622000 	rsb	r2, r2, #0	; 0x0
    6578:	e58d2014 	str	r2, [sp, #20]
    657c:	eafffe90 	b	5fc4 <_vfiprintf_r+0x640>
    6580:	e59d5028 	ldr	r5, [sp, #40]
    6584:	e59dc010 	ldr	ip, [sp, #16]
    6588:	e5953000 	ldr	r3, [r5]
    658c:	e285a004 	add	sl, r5, #4	; 0x4
    6590:	e583c000 	str	ip, [r3]
    6594:	eafffd1b 	b	5a08 <_vfiprintf_r+0x84>
    6598:	e59d0004 	ldr	r0, [sp, #4]
    659c:	e59d1000 	ldr	r1, [sp]
    65a0:	e28d2e4f 	add	r2, sp, #1264	; 0x4f0
    65a4:	ebfffcea 	bl	5954 <__sprint_r>
    65a8:	e3500000 	cmp	r0, #0	; 0x0
    65ac:	1afffe43 	bne	5ec0 <_vfiprintf_r+0x53c>
    65b0:	e59d04f8 	ldr	r0, [sp, #1272]
    65b4:	e59d14f4 	ldr	r1, [sp, #1268]
    65b8:	e28d6d12 	add	r6, sp, #1152	; 0x480
    65bc:	eaffff00 	b	61c4 <_vfiprintf_r+0x840>
    65c0:	e59d0004 	ldr	r0, [sp, #4]
    65c4:	e59d1000 	ldr	r1, [sp]
    65c8:	e28d2e4f 	add	r2, sp, #1264	; 0x4f0
    65cc:	ebfffce0 	bl	5954 <__sprint_r>
    65d0:	e3500000 	cmp	r0, #0	; 0x0
    65d4:	1afffe39 	bne	5ec0 <_vfiprintf_r+0x53c>
    65d8:	e59d04f8 	ldr	r0, [sp, #1272]
    65dc:	e59d14f4 	ldr	r1, [sp, #1268]
    65e0:	e28d6d12 	add	r6, sp, #1152	; 0x480
    65e4:	eaffff05 	b	6200 <_vfiprintf_r+0x87c>
    65e8:	e59d0004 	ldr	r0, [sp, #4]
    65ec:	e59d1000 	ldr	r1, [sp]
    65f0:	e28d2e4f 	add	r2, sp, #1264	; 0x4f0
    65f4:	ebfffcd6 	bl	5954 <__sprint_r>
    65f8:	e3500000 	cmp	r0, #0	; 0x0
    65fc:	1afffe2f 	bne	5ec0 <_vfiprintf_r+0x53c>
    6600:	e28d6d12 	add	r6, sp, #1152	; 0x480
    6604:	e59d04f8 	ldr	r0, [sp, #1272]
    6608:	e59d14f4 	ldr	r1, [sp, #1268]
    660c:	e2866008 	add	r6, r6, #8	; 0x8
    6610:	eaffff2b 	b	62c4 <_vfiprintf_r+0x940>
    6614:	e20c3007 	and	r3, ip, #7	; 0x7
    6618:	e2833030 	add	r3, r3, #48	; 0x30
    661c:	e1b0c1ac 	lsrs	ip, ip, #3
    6620:	e5693001 	strb	r3, [r9, #-1]!
    6624:	1afffffa 	bne	6614 <_vfiprintf_r+0xc90>
    6628:	e3170001 	tst	r7, #1	; 0x1
    662c:	0a000002 	beq	663c <_vfiprintf_r+0xcb8>
    6630:	e3530030 	cmp	r3, #48	; 0x30
    6634:	13a03030 	movne	r3, #48	; 0x30
    6638:	15693001 	strbne	r3, [r9, #-1]!
    663c:	e069b000 	rsb	fp, r9, r0
    6640:	eafffdcd 	b	5d7c <_vfiprintf_r+0x3f8>
    6644:	e59d2014 	ldr	r2, [sp, #20]
    6648:	e59d301c 	ldr	r3, [sp, #28]
    664c:	e0634002 	rsb	r4, r3, r2
    6650:	e3540000 	cmp	r4, #0	; 0x0
    6654:	dafffeed 	ble	6210 <_vfiprintf_r+0x88c>
    6658:	e3540010 	cmp	r4, #16	; 0x10
    665c:	d59f52a4 	ldrle	r5, [pc, #676]	; 6908 <_vfiprintf_r+0xf84>
    6660:	da00001b 	ble	66d4 <_vfiprintf_r+0xd50>
    6664:	e59f529c 	ldr	r5, [pc, #668]	; 6908 <_vfiprintf_r+0xf84>
    6668:	e28dae4f 	add	sl, sp, #1264	; 0x4f0
    666c:	ea000002 	b	667c <_vfiprintf_r+0xcf8>
    6670:	e2444010 	sub	r4, r4, #16	; 0x10
    6674:	e3540010 	cmp	r4, #16	; 0x10
    6678:	da000015 	ble	66d4 <_vfiprintf_r+0xd50>
    667c:	e2811001 	add	r1, r1, #1	; 0x1
    6680:	e2800010 	add	r0, r0, #16	; 0x10
    6684:	e3510007 	cmp	r1, #7	; 0x7
    6688:	e3a0c010 	mov	ip, #16	; 0x10
    668c:	e8861020 	stm	r6, {r5, ip}
    6690:	e58d04f8 	str	r0, [sp, #1272]
    6694:	e58d14f4 	str	r1, [sp, #1268]
    6698:	d2866008 	addle	r6, r6, #8	; 0x8
    669c:	dafffff3 	ble	6670 <_vfiprintf_r+0xcec>
    66a0:	e59d0004 	ldr	r0, [sp, #4]
    66a4:	e59d1000 	ldr	r1, [sp]
    66a8:	e1a0200a 	mov	r2, sl
    66ac:	ebfffca8 	bl	5954 <__sprint_r>
    66b0:	e28d6d12 	add	r6, sp, #1152	; 0x480
    66b4:	e3500000 	cmp	r0, #0	; 0x0
    66b8:	e2866008 	add	r6, r6, #8	; 0x8
    66bc:	1afffdff 	bne	5ec0 <_vfiprintf_r+0x53c>
    66c0:	e2444010 	sub	r4, r4, #16	; 0x10
    66c4:	e3540010 	cmp	r4, #16	; 0x10
    66c8:	e59d04f8 	ldr	r0, [sp, #1272]
    66cc:	e59d14f4 	ldr	r1, [sp, #1268]
    66d0:	caffffe9 	bgt	667c <_vfiprintf_r+0xcf8>
    66d4:	e2811001 	add	r1, r1, #1	; 0x1
    66d8:	e0800004 	add	r0, r0, r4
    66dc:	e3510007 	cmp	r1, #7	; 0x7
    66e0:	e5865000 	str	r5, [r6]
    66e4:	e5864004 	str	r4, [r6, #4]
    66e8:	e58d04f8 	str	r0, [sp, #1272]
    66ec:	e58d14f4 	str	r1, [sp, #1268]
    66f0:	ca00001d 	bgt	676c <_vfiprintf_r+0xde8>
    66f4:	e2866008 	add	r6, r6, #8	; 0x8
    66f8:	eafffec4 	b	6210 <_vfiprintf_r+0x88c>
    66fc:	e59d0004 	ldr	r0, [sp, #4]
    6700:	e59d1000 	ldr	r1, [sp]
    6704:	e28d2e4f 	add	r2, sp, #1264	; 0x4f0
    6708:	ebfffc91 	bl	5954 <__sprint_r>
    670c:	e3500000 	cmp	r0, #0	; 0x0
    6710:	1afffdea 	bne	5ec0 <_vfiprintf_r+0x53c>
    6714:	e28d6d12 	add	r6, sp, #1152	; 0x480
    6718:	e59d04f8 	ldr	r0, [sp, #1272]
    671c:	e59d14f4 	ldr	r1, [sp, #1268]
    6720:	e2866008 	add	r6, r6, #8	; 0x8
    6724:	eafffe98 	b	618c <_vfiprintf_r+0x808>
    6728:	e59d0004 	ldr	r0, [sp, #4]
    672c:	e59d1000 	ldr	r1, [sp]
    6730:	e28d2e4f 	add	r2, sp, #1264	; 0x4f0
    6734:	ebfffc86 	bl	5954 <__sprint_r>
    6738:	e3500000 	cmp	r0, #0	; 0x0
    673c:	1afffddf 	bne	5ec0 <_vfiprintf_r+0x53c>
    6740:	e28dcd12 	add	ip, sp, #1152	; 0x480
    6744:	e59d04f8 	ldr	r0, [sp, #1272]
    6748:	e28cc008 	add	ip, ip, #8	; 0x8
    674c:	eafffee4 	b	62e4 <_vfiprintf_r+0x960>
    6750:	e59d0004 	ldr	r0, [sp, #4]
    6754:	e59d1000 	ldr	r1, [sp]
    6758:	e28d2e4f 	add	r2, sp, #1264	; 0x4f0
    675c:	ebfffc7c 	bl	5954 <__sprint_r>
    6760:	e3500000 	cmp	r0, #0	; 0x0
    6764:	0affff1d 	beq	63e0 <_vfiprintf_r+0xa5c>
    6768:	eafffdd4 	b	5ec0 <_vfiprintf_r+0x53c>
    676c:	e59d0004 	ldr	r0, [sp, #4]
    6770:	e59d1000 	ldr	r1, [sp]
    6774:	e28d2e4f 	add	r2, sp, #1264	; 0x4f0
    6778:	ebfffc75 	bl	5954 <__sprint_r>
    677c:	e3500000 	cmp	r0, #0	; 0x0
    6780:	1afffdce 	bne	5ec0 <_vfiprintf_r+0x53c>
    6784:	e28d6d12 	add	r6, sp, #1152	; 0x480
    6788:	e59d04f8 	ldr	r0, [sp, #1272]
    678c:	e59d14f4 	ldr	r1, [sp, #1268]
    6790:	e2866008 	add	r6, r6, #8	; 0x8
    6794:	eafffe9d 	b	6210 <_vfiprintf_r+0x88c>
    6798:	e35c0009 	cmp	ip, #9	; 0x9
    679c:	91a04000 	movls	r4, r0
    67a0:	9a00000c 	bls	67d8 <_vfiprintf_r+0xe54>
    67a4:	e59fa164 	ldr	sl, [pc, #356]	; 6910 <_vfiprintf_r+0xf8c>
    67a8:	e1a04000 	mov	r4, r0
    67ac:	e0832c9a 	umull	r2, r3, sl, ip
    67b0:	e1a031a3 	lsr	r3, r3, #3
    67b4:	e1a02083 	lsl	r2, r3, #1
    67b8:	e1a01183 	lsl	r1, r3, #3
    67bc:	e0822001 	add	r2, r2, r1
    67c0:	e062200c 	rsb	r2, r2, ip
    67c4:	e2822030 	add	r2, r2, #48	; 0x30
    67c8:	e3530009 	cmp	r3, #9	; 0x9
    67cc:	e1a0c003 	mov	ip, r3
    67d0:	e5642001 	strb	r2, [r4, #-1]!
    67d4:	8afffff4 	bhi	67ac <_vfiprintf_r+0xe28>
    67d8:	e28c3030 	add	r3, ip, #48	; 0x30
    67dc:	e2449001 	sub	r9, r4, #1	; 0x1
    67e0:	e5443001 	strb	r3, [r4, #-1]
    67e4:	e069b000 	rsb	fp, r9, r0
    67e8:	eafffd63 	b	5d7c <_vfiprintf_r+0x3f8>
    67ec:	e1a09000 	mov	r9, r0
    67f0:	e59d1020 	ldr	r1, [sp, #32]
    67f4:	e20c300f 	and	r3, ip, #15	; 0xf
    67f8:	e7d12003 	ldrb	r2, [r1, r3]
    67fc:	e1b0c22c 	lsrs	ip, ip, #4
    6800:	e5692001 	strb	r2, [r9, #-1]!
    6804:	1afffff9 	bne	67f0 <_vfiprintf_r+0xe6c>
    6808:	e069b000 	rsb	fp, r9, r0
    680c:	eafffd5a 	b	5d7c <_vfiprintf_r+0x3f8>
    6810:	e59d0004 	ldr	r0, [sp, #4]
    6814:	e59d1000 	ldr	r1, [sp]
    6818:	eb000049 	bl	6944 <__swsetup_r>
    681c:	e3500000 	cmp	r0, #0	; 0x0
    6820:	1afffdaa 	bne	5ed0 <_vfiprintf_r+0x54c>
    6824:	e59d1000 	ldr	r1, [sp]
    6828:	e1d1c0bc 	ldrh	ip, [r1, #12]
    682c:	e1a0380c 	lsl	r3, ip, #16
    6830:	e1a02823 	lsr	r2, r3, #16
    6834:	eafffc65 	b	59d0 <_vfiprintf_r+0x4c>
    6838:	e59d2028 	ldr	r2, [sp, #40]
    683c:	e2821004 	add	r1, r2, #4	; 0x4
    6840:	e592c000 	ldr	ip, [r2]
    6844:	e58d1024 	str	r1, [sp, #36]
    6848:	eafffd37 	b	5d2c <_vfiprintf_r+0x3a8>
    684c:	e59d2028 	ldr	r2, [sp, #40]
    6850:	e2823004 	add	r3, r2, #4	; 0x4
    6854:	e58d3024 	str	r3, [sp, #36]
    6858:	e592c000 	ldr	ip, [r2]
    685c:	e3a03001 	mov	r3, #1	; 0x1
    6860:	eafffd31 	b	5d2c <_vfiprintf_r+0x3a8>
    6864:	e59d2028 	ldr	r2, [sp, #40]
    6868:	e2823004 	add	r3, r2, #4	; 0x4
    686c:	e592c000 	ldr	ip, [r2]
    6870:	e58d3024 	str	r3, [sp, #36]
    6874:	eafffd08 	b	5c9c <_vfiprintf_r+0x318>
    6878:	e59d2028 	ldr	r2, [sp, #40]
    687c:	e2823004 	add	r3, r2, #4	; 0x4
    6880:	e592c000 	ldr	ip, [r2]
    6884:	e58d3024 	str	r3, [sp, #36]
    6888:	eafffe04 	b	60a0 <_vfiprintf_r+0x71c>
    688c:	e3a0c000 	mov	ip, #0	; 0x0
    6890:	e1a00009 	mov	r0, r9
    6894:	e58dc018 	str	ip, [sp, #24]
    6898:	ebfffb11 	bl	54e4 <strlen>
    689c:	e1a0b000 	mov	fp, r0
    68a0:	eafffd38 	b	5d88 <_vfiprintf_r+0x404>
    68a4:	e59d04f8 	ldr	r0, [sp, #1272]
    68a8:	e59d14f4 	ldr	r1, [sp, #1268]
    68ac:	e59f504c 	ldr	r5, [pc, #76]	; 6900 <_vfiprintf_r+0xf7c>
    68b0:	eafffd6a 	b	5e60 <_vfiprintf_r+0x4dc>
    68b4:	e3550006 	cmp	r5, #6	; 0x6
    68b8:	83a0b006 	movhi	fp, #6	; 0x6
    68bc:	859f9050 	ldrhi	r9, [pc, #80]	; 6914 <_vfiprintf_r+0xf90>
    68c0:	858db01c 	strhi	fp, [sp, #28]
    68c4:	91a0b005 	movls	fp, r5
    68c8:	91c55fc5 	bicls	r5, r5, r5, asr #31
    68cc:	959f9040 	ldrls	r9, [pc, #64]	; 6914 <_vfiprintf_r+0xf90>
    68d0:	958d501c 	strls	r5, [sp, #28]
    68d4:	eafffe20 	b	615c <_vfiprintf_r+0x7d8>
    68d8:	e59d14f4 	ldr	r1, [sp, #1268]
    68dc:	e59f501c 	ldr	r5, [pc, #28]	; 6900 <_vfiprintf_r+0xf7c>
    68e0:	eafffea6 	b	6380 <_vfiprintf_r+0x9fc>
    68e4:	e59d3028 	ldr	r3, [sp, #40]
    68e8:	e5935000 	ldr	r5, [r3]
    68ec:	e2833004 	add	r3, r3, #4	; 0x4
    68f0:	e1855fc5 	orr	r5, r5, r5, asr #31
    68f4:	e58d3028 	str	r3, [sp, #40]
    68f8:	eafffc69 	b	5aa4 <_vfiprintf_r+0x120>
    68fc:	00009244 	.word	0x00009244
    6900:	0000926e 	.word	0x0000926e
    6904:	00009228 	.word	0x00009228
    6908:	0000925e 	.word	0x0000925e
    690c:	00009214 	.word	0x00009214
    6910:	cccccccd 	.word	0xcccccccd
    6914:	0000923c 	.word	0x0000923c

00006918 <vfiprintf>:
    6918:	e52d4004 	push	{r4}		; (str r4, [sp, #-4]!)
    691c:	e1a03002 	mov	r3, r2
    6920:	e59f2018 	ldr	r2, [pc, #24]	; 6940 <vfiprintf+0x28>
    6924:	e1a0c000 	mov	ip, r0
    6928:	e1a04001 	mov	r4, r1
    692c:	e5920000 	ldr	r0, [r2]
    6930:	e1a0100c 	mov	r1, ip
    6934:	e1a02004 	mov	r2, r4
    6938:	e8bd0010 	pop	{r4}
    693c:	eafffc10 	b	5984 <_vfiprintf_r>
    6940:	4000045c 	.word	0x4000045c

00006944 <__swsetup_r>:
    6944:	e59f3138 	ldr	r3, [pc, #312]	; 6a84 <__swsetup_r+0x140>
    6948:	e5932000 	ldr	r2, [r3]
    694c:	e3520000 	cmp	r2, #0	; 0x0
    6950:	e92d4030 	push	{r4, r5, lr}
    6954:	e1a05000 	mov	r5, r0
    6958:	e1a04001 	mov	r4, r1
    695c:	0a000002 	beq	696c <__swsetup_r+0x28>
    6960:	e5923038 	ldr	r3, [r2, #56]
    6964:	e3530000 	cmp	r3, #0	; 0x0
    6968:	0a00001d 	beq	69e4 <__swsetup_r+0xa0>
    696c:	e1d400bc 	ldrh	r0, [r4, #12]
    6970:	e1a03800 	lsl	r3, r0, #16
    6974:	e1a02823 	lsr	r2, r3, #16
    6978:	e3120008 	tst	r2, #8	; 0x8
    697c:	e1a03000 	mov	r3, r0
    6980:	15941010 	ldrne	r1, [r4, #16]
    6984:	0a000023 	beq	6a18 <__swsetup_r+0xd4>
    6988:	e3510000 	cmp	r1, #0	; 0x0
    698c:	0a000017 	beq	69f0 <__swsetup_r+0xac>
    6990:	e2123001 	ands	r3, r2, #1	; 0x1
    6994:	1a000006 	bne	69b4 <__swsetup_r+0x70>
    6998:	e3120002 	tst	r2, #2	; 0x2
    699c:	05943014 	ldreq	r3, [r4, #20]
    69a0:	e3510000 	cmp	r1, #0	; 0x0
    69a4:	e5843008 	str	r3, [r4, #8]
    69a8:	0a000008 	beq	69d0 <__swsetup_r+0x8c>
    69ac:	e3a00000 	mov	r0, #0	; 0x0
    69b0:	e8bd8030 	pop	{r4, r5, pc}
    69b4:	e5943014 	ldr	r3, [r4, #20]
    69b8:	e3a02000 	mov	r2, #0	; 0x0
    69bc:	e2633000 	rsb	r3, r3, #0	; 0x0
    69c0:	e3510000 	cmp	r1, #0	; 0x0
    69c4:	e5842008 	str	r2, [r4, #8]
    69c8:	e5843018 	str	r3, [r4, #24]
    69cc:	1afffff6 	bne	69ac <__swsetup_r+0x68>
    69d0:	e1d430bc 	ldrh	r3, [r4, #12]
    69d4:	e3130080 	tst	r3, #128	; 0x80
    69d8:	0afffff3 	beq	69ac <__swsetup_r+0x68>
    69dc:	e3e00000 	mvn	r0, #0	; 0x0
    69e0:	e8bd8030 	pop	{r4, r5, pc}
    69e4:	e1a00002 	mov	r0, r2
    69e8:	eb00009d 	bl	6c64 <__sinit>
    69ec:	eaffffde 	b	696c <__swsetup_r+0x28>
    69f0:	e3120c02 	tst	r2, #512	; 0x200
    69f4:	0a000001 	beq	6a00 <__swsetup_r+0xbc>
    69f8:	e3120080 	tst	r2, #128	; 0x80
    69fc:	0affffe3 	beq	6990 <__swsetup_r+0x4c>
    6a00:	e1a01004 	mov	r1, r4
    6a04:	e1a00005 	mov	r0, r5
    6a08:	eb00037a 	bl	77f8 <__smakebuf_r>
    6a0c:	e1d420bc 	ldrh	r2, [r4, #12]
    6a10:	e5941010 	ldr	r1, [r4, #16]
    6a14:	eaffffdd 	b	6990 <__swsetup_r+0x4c>
    6a18:	e3120010 	tst	r2, #16	; 0x10
    6a1c:	0affffee 	beq	69dc <__swsetup_r+0x98>
    6a20:	e3120004 	tst	r2, #4	; 0x4
    6a24:	05941010 	ldreq	r1, [r4, #16]
    6a28:	0a000010 	beq	6a70 <__swsetup_r+0x12c>
    6a2c:	e5941030 	ldr	r1, [r4, #48]
    6a30:	e3510000 	cmp	r1, #0	; 0x0
    6a34:	0a000007 	beq	6a58 <__swsetup_r+0x114>
    6a38:	e2843040 	add	r3, r4, #64	; 0x40
    6a3c:	e1510003 	cmp	r1, r3
    6a40:	0a000002 	beq	6a50 <__swsetup_r+0x10c>
    6a44:	e1a00005 	mov	r0, r5
    6a48:	eb00016e 	bl	7008 <_free_r>
    6a4c:	e1d400bc 	ldrh	r0, [r4, #12]
    6a50:	e3a03000 	mov	r3, #0	; 0x0
    6a54:	e5843030 	str	r3, [r4, #48]
    6a58:	e3c03024 	bic	r3, r0, #36	; 0x24
    6a5c:	e1c430bc 	strh	r3, [r4, #12]
    6a60:	e5941010 	ldr	r1, [r4, #16]
    6a64:	e3a03000 	mov	r3, #0	; 0x0
    6a68:	e884000a 	stm	r4, {r1, r3}
    6a6c:	e1d430bc 	ldrh	r3, [r4, #12]
    6a70:	e3833008 	orr	r3, r3, #8	; 0x8
    6a74:	e1a02803 	lsl	r2, r3, #16
    6a78:	e1c430bc 	strh	r3, [r4, #12]
    6a7c:	e1a02822 	lsr	r2, r2, #16
    6a80:	eaffffc0 	b	6988 <__swsetup_r+0x44>
    6a84:	4000045c 	.word	0x4000045c

00006a88 <_fflush_r>:
    6a88:	e92d40f0 	push	{r4, r5, r6, r7, lr}
    6a8c:	e2507000 	subs	r7, r0, #0	; 0x0
    6a90:	e1a06001 	mov	r6, r1
    6a94:	0a000002 	beq	6aa4 <_fflush_r+0x1c>
    6a98:	e5973038 	ldr	r3, [r7, #56]
    6a9c:	e3530000 	cmp	r3, #0	; 0x0
    6aa0:	0a000045 	beq	6bbc <_fflush_r+0x134>
    6aa4:	e1d620bc 	ldrh	r2, [r6, #12]
    6aa8:	e1a03802 	lsl	r3, r2, #16
    6aac:	e1a01843 	asr	r1, r3, #16
    6ab0:	e3110008 	tst	r1, #8	; 0x8
    6ab4:	1a000022 	bne	6b44 <_fflush_r+0xbc>
    6ab8:	e5963004 	ldr	r3, [r6, #4]
    6abc:	e3822b02 	orr	r2, r2, #2048	; 0x800
    6ac0:	e3530000 	cmp	r3, #0	; 0x0
    6ac4:	e1c620bc 	strh	r2, [r6, #12]
    6ac8:	da000044 	ble	6be0 <_fflush_r+0x158>
    6acc:	e596c028 	ldr	ip, [r6, #40]
    6ad0:	e35c0000 	cmp	ip, #0	; 0x0
    6ad4:	0a000018 	beq	6b3c <_fflush_r+0xb4>
    6ad8:	e2122a01 	ands	r2, r2, #4096	; 0x1000
    6adc:	15964050 	ldrne	r4, [r6, #80]
    6ae0:	0a000042 	beq	6bf0 <_fflush_r+0x168>
    6ae4:	e1d630bc 	ldrh	r3, [r6, #12]
    6ae8:	e3130004 	tst	r3, #4	; 0x4
    6aec:	1a000034 	bne	6bc4 <_fflush_r+0x13c>
    6af0:	e1a00007 	mov	r0, r7
    6af4:	e596101c 	ldr	r1, [r6, #28]
    6af8:	e1a02004 	mov	r2, r4
    6afc:	e3a03000 	mov	r3, #0	; 0x0
    6b00:	e1a0e00f 	mov	lr, pc
    6b04:	e12fff1c 	bx	ip
    6b08:	e1500004 	cmp	r0, r4
    6b0c:	1a000025 	bne	6ba8 <_fflush_r+0x120>
    6b10:	e1d630bc 	ldrh	r3, [r6, #12]
    6b14:	e3c33b02 	bic	r3, r3, #2048	; 0x800
    6b18:	e1c630bc 	strh	r3, [r6, #12]
    6b1c:	e1d620bc 	ldrh	r2, [r6, #12]
    6b20:	e5963010 	ldr	r3, [r6, #16]
    6b24:	e3120a01 	tst	r2, #4096	; 0x1000
    6b28:	e3a00000 	mov	r0, #0	; 0x0
    6b2c:	e5863000 	str	r3, [r6]
    6b30:	e5860004 	str	r0, [r6, #4]
    6b34:	15864050 	strne	r4, [r6, #80]
    6b38:	18bd80f0 	popne	{r4, r5, r6, r7, pc}
    6b3c:	e3a00000 	mov	r0, #0	; 0x0
    6b40:	e8bd80f0 	pop	{r4, r5, r6, r7, pc}
    6b44:	e5965010 	ldr	r5, [r6, #16]
    6b48:	e3550000 	cmp	r5, #0	; 0x0
    6b4c:	0afffffa 	beq	6b3c <_fflush_r+0xb4>
    6b50:	e5963000 	ldr	r3, [r6]
    6b54:	e3110003 	tst	r1, #3	; 0x3
    6b58:	e0654003 	rsb	r4, r5, r3
    6b5c:	05963014 	ldreq	r3, [r6, #20]
    6b60:	13a03000 	movne	r3, #0	; 0x0
    6b64:	e3540000 	cmp	r4, #0	; 0x0
    6b68:	e5865000 	str	r5, [r6]
    6b6c:	e5863008 	str	r3, [r6, #8]
    6b70:	ca000002 	bgt	6b80 <_fflush_r+0xf8>
    6b74:	eafffff0 	b	6b3c <_fflush_r+0xb4>
    6b78:	e3540000 	cmp	r4, #0	; 0x0
    6b7c:	daffffee 	ble	6b3c <_fflush_r+0xb4>
    6b80:	e1a02005 	mov	r2, r5
    6b84:	e1a03004 	mov	r3, r4
    6b88:	e1a00007 	mov	r0, r7
    6b8c:	e596101c 	ldr	r1, [r6, #28]
    6b90:	e1a0e00f 	mov	lr, pc
    6b94:	e596f024 	ldr	pc, [r6, #36]
    6b98:	e3500000 	cmp	r0, #0	; 0x0
    6b9c:	e0604004 	rsb	r4, r0, r4
    6ba0:	e0855000 	add	r5, r5, r0
    6ba4:	cafffff3 	bgt	6b78 <_fflush_r+0xf0>
    6ba8:	e1d630bc 	ldrh	r3, [r6, #12]
    6bac:	e3833040 	orr	r3, r3, #64	; 0x40
    6bb0:	e1c630bc 	strh	r3, [r6, #12]
    6bb4:	e3e00000 	mvn	r0, #0	; 0x0
    6bb8:	e8bd80f0 	pop	{r4, r5, r6, r7, pc}
    6bbc:	eb000028 	bl	6c64 <__sinit>
    6bc0:	eaffffb7 	b	6aa4 <_fflush_r+0x1c>
    6bc4:	e5963030 	ldr	r3, [r6, #48]
    6bc8:	e5962004 	ldr	r2, [r6, #4]
    6bcc:	e3530000 	cmp	r3, #0	; 0x0
    6bd0:	1596303c 	ldrne	r3, [r6, #60]
    6bd4:	e0624004 	rsb	r4, r2, r4
    6bd8:	10634004 	rsbne	r4, r3, r4
    6bdc:	eaffffc3 	b	6af0 <_fflush_r+0x68>
    6be0:	e596303c 	ldr	r3, [r6, #60]
    6be4:	e3530000 	cmp	r3, #0	; 0x0
    6be8:	caffffb7 	bgt	6acc <_fflush_r+0x44>
    6bec:	eaffffd2 	b	6b3c <_fflush_r+0xb4>
    6bf0:	e1a00007 	mov	r0, r7
    6bf4:	e596101c 	ldr	r1, [r6, #28]
    6bf8:	e3a03001 	mov	r3, #1	; 0x1
    6bfc:	e1a0e00f 	mov	lr, pc
    6c00:	e12fff1c 	bx	ip
    6c04:	e3700001 	cmn	r0, #1	; 0x1
    6c08:	e1a04000 	mov	r4, r0
    6c0c:	1596c028 	ldrne	ip, [r6, #40]
    6c10:	1affffb3 	bne	6ae4 <_fflush_r+0x5c>
    6c14:	e5973000 	ldr	r3, [r7]
    6c18:	e353001d 	cmp	r3, #29	; 0x1d
    6c1c:	0affffc6 	beq	6b3c <_fflush_r+0xb4>
    6c20:	e1d630bc 	ldrh	r3, [r6, #12]
    6c24:	e3833040 	orr	r3, r3, #64	; 0x40
    6c28:	e1c630bc 	strh	r3, [r6, #12]
    6c2c:	e8bd80f0 	pop	{r4, r5, r6, r7, pc}

00006c30 <fflush>:
    6c30:	e3500000 	cmp	r0, #0	; 0x0
    6c34:	0a000003 	beq	6c48 <fflush+0x18>
    6c38:	e59f3018 	ldr	r3, [pc, #24]	; 6c58 <fflush+0x28>
    6c3c:	e1a01000 	mov	r1, r0
    6c40:	e5930000 	ldr	r0, [r3]
    6c44:	eaffff8f 	b	6a88 <_fflush_r>
    6c48:	e59f300c 	ldr	r3, [pc, #12]	; 6c5c <fflush+0x2c>
    6c4c:	e59f100c 	ldr	r1, [pc, #12]	; 6c60 <fflush+0x30>
    6c50:	e5930000 	ldr	r0, [r3]
    6c54:	ea0002a4 	b	76ec <_fwalk_reent>
    6c58:	4000045c 	.word	0x4000045c
    6c5c:	00009380 	.word	0x00009380
    6c60:	00006a88 	.word	0x00006a88

00006c64 <__sinit>:
    6c64:	e92d07f0 	push	{r4, r5, r6, r7, r8, r9, sl}
    6c68:	e590a038 	ldr	sl, [r0, #56]
    6c6c:	e35a0000 	cmp	sl, #0	; 0x0
    6c70:	e1a09000 	mov	r9, r0
    6c74:	1a00003a 	bne	6d64 <__sinit+0x100>
    6c78:	e3a03003 	mov	r3, #3	; 0x3
    6c7c:	e58932e4 	str	r3, [r9, #740]
    6c80:	e59f30e4 	ldr	r3, [pc, #228]	; 6d6c <__sinit+0x108>
    6c84:	e5992004 	ldr	r2, [r9, #4]
    6c88:	e5991008 	ldr	r1, [r9, #8]
    6c8c:	e589303c 	str	r3, [r9, #60]
    6c90:	e3a03004 	mov	r3, #4	; 0x4
    6c94:	e590000c 	ldr	r0, [r0, #12]
    6c98:	e59f60d0 	ldr	r6, [pc, #208]	; 6d70 <__sinit+0x10c>
    6c9c:	e59f70d0 	ldr	r7, [pc, #208]	; 6d74 <__sinit+0x110>
    6ca0:	e59f80d0 	ldr	r8, [pc, #208]	; 6d78 <__sinit+0x114>
    6ca4:	e59f40d0 	ldr	r4, [pc, #208]	; 6d7c <__sinit+0x118>
    6ca8:	e1c230bc 	strh	r3, [r2, #12]
    6cac:	e3a03009 	mov	r3, #9	; 0x9
    6cb0:	e3a05001 	mov	r5, #1	; 0x1
    6cb4:	e1c130bc 	strh	r3, [r1, #12]
    6cb8:	e289cfbb 	add	ip, r9, #748	; 0x2ec
    6cbc:	e3a03012 	mov	r3, #18	; 0x12
    6cc0:	e5895038 	str	r5, [r9, #56]
    6cc4:	e582402c 	str	r4, [r2, #44]
    6cc8:	e582a000 	str	sl, [r2]
    6ccc:	e582a004 	str	sl, [r2, #4]
    6cd0:	e582a008 	str	sl, [r2, #8]
    6cd4:	e1c2a0be 	strh	sl, [r2, #14]
    6cd8:	e582a010 	str	sl, [r2, #16]
    6cdc:	e582a014 	str	sl, [r2, #20]
    6ce0:	e582a018 	str	sl, [r2, #24]
    6ce4:	e582201c 	str	r2, [r2, #28]
    6ce8:	e5826020 	str	r6, [r2, #32]
    6cec:	e5827024 	str	r7, [r2, #36]
    6cf0:	e589c2e8 	str	ip, [r9, #744]
    6cf4:	e581402c 	str	r4, [r1, #44]
    6cf8:	e1c150be 	strh	r5, [r1, #14]
    6cfc:	e5828028 	str	r8, [r2, #40]
    6d00:	e589a2e0 	str	sl, [r9, #736]
    6d04:	e581a000 	str	sl, [r1]
    6d08:	e581a004 	str	sl, [r1, #4]
    6d0c:	e581a008 	str	sl, [r1, #8]
    6d10:	e581a010 	str	sl, [r1, #16]
    6d14:	e581a014 	str	sl, [r1, #20]
    6d18:	e581a018 	str	sl, [r1, #24]
    6d1c:	e581101c 	str	r1, [r1, #28]
    6d20:	e5816020 	str	r6, [r1, #32]
    6d24:	e5817024 	str	r7, [r1, #36]
    6d28:	e5818028 	str	r8, [r1, #40]
    6d2c:	e1c030bc 	strh	r3, [r0, #12]
    6d30:	e3a03002 	mov	r3, #2	; 0x2
    6d34:	e580a000 	str	sl, [r0]
    6d38:	e580402c 	str	r4, [r0, #44]
    6d3c:	e580a018 	str	sl, [r0, #24]
    6d40:	e5806020 	str	r6, [r0, #32]
    6d44:	e5807024 	str	r7, [r0, #36]
    6d48:	e5808028 	str	r8, [r0, #40]
    6d4c:	e580a004 	str	sl, [r0, #4]
    6d50:	e580a008 	str	sl, [r0, #8]
    6d54:	e580a010 	str	sl, [r0, #16]
    6d58:	e580a014 	str	sl, [r0, #20]
    6d5c:	e580001c 	str	r0, [r0, #28]
    6d60:	e1c030be 	strh	r3, [r0, #14]
    6d64:	e8bd07f0 	pop	{r4, r5, r6, r7, r8, r9, sl}
    6d68:	e12fff1e 	bx	lr
    6d6c:	00006dd0 	.word	0x00006dd0
    6d70:	00008158 	.word	0x00008158
    6d74:	00008104 	.word	0x00008104
    6d78:	000080d0 	.word	0x000080d0
    6d7c:	000080c8 	.word	0x000080c8

00006d80 <__sfp_lock_acquire>:
    6d80:	e12fff1e 	bx	lr

00006d84 <__sfp_lock_release>:
    6d84:	e12fff1e 	bx	lr

00006d88 <__sinit_lock_acquire>:
    6d88:	e12fff1e 	bx	lr

00006d8c <__sinit_lock_release>:
    6d8c:	e12fff1e 	bx	lr

00006d90 <__fp_lock>:
    6d90:	e3a00000 	mov	r0, #0	; 0x0
    6d94:	e12fff1e 	bx	lr

00006d98 <__fp_unlock>:
    6d98:	e3a00000 	mov	r0, #0	; 0x0
    6d9c:	e12fff1e 	bx	lr

00006da0 <__fp_unlock_all>:
    6da0:	e59f3008 	ldr	r3, [pc, #8]	; 6db0 <__fp_unlock_all+0x10>
    6da4:	e59f1008 	ldr	r1, [pc, #8]	; 6db4 <__fp_unlock_all+0x14>
    6da8:	e5930000 	ldr	r0, [r3]
    6dac:	ea000270 	b	7774 <_fwalk>
    6db0:	4000045c 	.word	0x4000045c
    6db4:	00006d98 	.word	0x00006d98

00006db8 <__fp_lock_all>:
    6db8:	e59f3008 	ldr	r3, [pc, #8]	; 6dc8 <__fp_lock_all+0x10>
    6dbc:	e59f1008 	ldr	r1, [pc, #8]	; 6dcc <__fp_lock_all+0x14>
    6dc0:	e5930000 	ldr	r0, [r3]
    6dc4:	ea00026a 	b	7774 <_fwalk>
    6dc8:	4000045c 	.word	0x4000045c
    6dcc:	00006d90 	.word	0x00006d90

00006dd0 <_cleanup_r>:
    6dd0:	e59f1000 	ldr	r1, [pc, #0]	; 6dd8 <_cleanup_r+0x8>
    6dd4:	ea000266 	b	7774 <_fwalk>
    6dd8:	00008b88 	.word	0x00008b88

00006ddc <_cleanup>:
    6ddc:	e59f3008 	ldr	r3, [pc, #8]	; 6dec <_cleanup+0x10>
    6de0:	e59f1008 	ldr	r1, [pc, #8]	; 6df0 <_cleanup+0x14>
    6de4:	e5930000 	ldr	r0, [r3]
    6de8:	ea000261 	b	7774 <_fwalk>
    6dec:	00009380 	.word	0x00009380
    6df0:	00008b88 	.word	0x00008b88

00006df4 <__sfmoreglue>:
    6df4:	e1a03281 	lsl	r3, r1, #5
    6df8:	e0433181 	sub	r3, r3, r1, lsl #3
    6dfc:	e0613003 	rsb	r3, r1, r3
    6e00:	e92d4070 	push	{r4, r5, r6, lr}
    6e04:	e1a06103 	lsl	r6, r3, #2
    6e08:	e1a05001 	mov	r5, r1
    6e0c:	e286100c 	add	r1, r6, #12	; 0xc
    6e10:	ebfff6ab 	bl	48c4 <_malloc_r>
    6e14:	e2504000 	subs	r4, r0, #0	; 0x0
    6e18:	0a000005 	beq	6e34 <__sfmoreglue+0x40>
    6e1c:	e284000c 	add	r0, r4, #12	; 0xc
    6e20:	e3a01000 	mov	r1, #0	; 0x0
    6e24:	e8840022 	stm	r4, {r1, r5}
    6e28:	e5840008 	str	r0, [r4, #8]
    6e2c:	e1a02006 	mov	r2, r6
    6e30:	ebfff8da 	bl	51a0 <memset>
    6e34:	e1a00004 	mov	r0, r4
    6e38:	e8bd8070 	pop	{r4, r5, r6, pc}

00006e3c <__sfp>:
    6e3c:	e59f30c8 	ldr	r3, [pc, #200]	; 6f0c <__sfp+0xd0>
    6e40:	e92d4030 	push	{r4, r5, lr}
    6e44:	e5934000 	ldr	r4, [r3]
    6e48:	e5942038 	ldr	r2, [r4, #56]
    6e4c:	e3520000 	cmp	r2, #0	; 0x0
    6e50:	e1a05000 	mov	r5, r0
    6e54:	0a000020 	beq	6edc <__sfp+0xa0>
    6e58:	e2844e2e 	add	r4, r4, #736	; 0x2e0
    6e5c:	e5943004 	ldr	r3, [r4, #4]
    6e60:	e2532001 	subs	r2, r3, #1	; 0x1
    6e64:	e5940008 	ldr	r0, [r4, #8]
    6e68:	5a000003 	bpl	6e7c <__sfp+0x40>
    6e6c:	ea000015 	b	6ec8 <__sfp+0x8c>
    6e70:	e2522001 	subs	r2, r2, #1	; 0x1
    6e74:	e280005c 	add	r0, r0, #92	; 0x5c
    6e78:	4a000012 	bmi	6ec8 <__sfp+0x8c>
    6e7c:	e1d030fc 	ldrsh	r3, [r0, #12]
    6e80:	e3530000 	cmp	r3, #0	; 0x0
    6e84:	1afffff9 	bne	6e70 <__sfp+0x34>
    6e88:	e3a03000 	mov	r3, #0	; 0x0
    6e8c:	e5803048 	str	r3, [r0, #72]
    6e90:	e5803000 	str	r3, [r0]
    6e94:	e5803008 	str	r3, [r0, #8]
    6e98:	e5803004 	str	r3, [r0, #4]
    6e9c:	e5803010 	str	r3, [r0, #16]
    6ea0:	e5803014 	str	r3, [r0, #20]
    6ea4:	e5803018 	str	r3, [r0, #24]
    6ea8:	e5803030 	str	r3, [r0, #48]
    6eac:	e5803034 	str	r3, [r0, #52]
    6eb0:	e5803044 	str	r3, [r0, #68]
    6eb4:	e3e03000 	mvn	r3, #0	; 0x0
    6eb8:	e1c030be 	strh	r3, [r0, #14]
    6ebc:	e3a03001 	mov	r3, #1	; 0x1
    6ec0:	e1c030bc 	strh	r3, [r0, #12]
    6ec4:	e8bd8030 	pop	{r4, r5, pc}
    6ec8:	e5940000 	ldr	r0, [r4]
    6ecc:	e3500000 	cmp	r0, #0	; 0x0
    6ed0:	0a000004 	beq	6ee8 <__sfp+0xac>
    6ed4:	e1a04000 	mov	r4, r0
    6ed8:	eaffffdf 	b	6e5c <__sfp+0x20>
    6edc:	e1a00004 	mov	r0, r4
    6ee0:	ebffff5f 	bl	6c64 <__sinit>
    6ee4:	eaffffdb 	b	6e58 <__sfp+0x1c>
    6ee8:	e1a00005 	mov	r0, r5
    6eec:	e3a01004 	mov	r1, #4	; 0x4
    6ef0:	ebffffbf 	bl	6df4 <__sfmoreglue>
    6ef4:	e3500000 	cmp	r0, #0	; 0x0
    6ef8:	e5840000 	str	r0, [r4]
    6efc:	1afffff4 	bne	6ed4 <__sfp+0x98>
    6f00:	e3a0300c 	mov	r3, #12	; 0xc
    6f04:	e5853000 	str	r3, [r5]
    6f08:	e8bd8030 	pop	{r4, r5, pc}
    6f0c:	00009380 	.word	0x00009380

00006f10 <_malloc_trim_r>:
    6f10:	e92d40f0 	push	{r4, r5, r6, r7, lr}
    6f14:	e59f70e0 	ldr	r7, [pc, #224]	; 6ffc <_malloc_trim_r+0xec>
    6f18:	e1a04001 	mov	r4, r1
    6f1c:	e1a06000 	mov	r6, r0
    6f20:	ebfff8d2 	bl	5270 <__malloc_lock>
    6f24:	e5973008 	ldr	r3, [r7, #8]
    6f28:	e5932004 	ldr	r2, [r3, #4]
    6f2c:	e3c25003 	bic	r5, r2, #3	; 0x3
    6f30:	e2853efe 	add	r3, r5, #4064	; 0xfe0
    6f34:	e283300f 	add	r3, r3, #15	; 0xf
    6f38:	e0643003 	rsb	r3, r4, r3
    6f3c:	e1a03623 	lsr	r3, r3, #12
    6f40:	e2433001 	sub	r3, r3, #1	; 0x1
    6f44:	e1a04603 	lsl	r4, r3, #12
    6f48:	e3540a01 	cmp	r4, #4096	; 0x1000
    6f4c:	ba000006 	blt	6f6c <_malloc_trim_r+0x5c>
    6f50:	e1a00006 	mov	r0, r6
    6f54:	e3a01000 	mov	r1, #0	; 0x0
    6f58:	ebffebf7 	bl	1f3c <_sbrk_r>
    6f5c:	e5973008 	ldr	r3, [r7, #8]
    6f60:	e0833005 	add	r3, r3, r5
    6f64:	e1500003 	cmp	r0, r3
    6f68:	0a000003 	beq	6f7c <_malloc_trim_r+0x6c>
    6f6c:	e1a00006 	mov	r0, r6
    6f70:	ebfff8bf 	bl	5274 <__malloc_unlock>
    6f74:	e3a00000 	mov	r0, #0	; 0x0
    6f78:	e8bd80f0 	pop	{r4, r5, r6, r7, pc}
    6f7c:	e1a00006 	mov	r0, r6
    6f80:	e2641000 	rsb	r1, r4, #0	; 0x0
    6f84:	ebffebec 	bl	1f3c <_sbrk_r>
    6f88:	e3700001 	cmn	r0, #1	; 0x1
    6f8c:	0a00000b 	beq	6fc0 <_malloc_trim_r+0xb0>
    6f90:	e59fc068 	ldr	ip, [pc, #104]	; 7000 <_malloc_trim_r+0xf0>
    6f94:	e59c2000 	ldr	r2, [ip]
    6f98:	e5971008 	ldr	r1, [r7, #8]
    6f9c:	e0643005 	rsb	r3, r4, r5
    6fa0:	e3833001 	orr	r3, r3, #1	; 0x1
    6fa4:	e0642002 	rsb	r2, r4, r2
    6fa8:	e1a00006 	mov	r0, r6
    6fac:	e5813004 	str	r3, [r1, #4]
    6fb0:	e58c2000 	str	r2, [ip]
    6fb4:	ebfff8ae 	bl	5274 <__malloc_unlock>
    6fb8:	e3a00001 	mov	r0, #1	; 0x1
    6fbc:	e8bd80f0 	pop	{r4, r5, r6, r7, pc}
    6fc0:	e3a01000 	mov	r1, #0	; 0x0
    6fc4:	e1a00006 	mov	r0, r6
    6fc8:	ebffebdb 	bl	1f3c <_sbrk_r>
    6fcc:	e597c008 	ldr	ip, [r7, #8]
    6fd0:	e06c1000 	rsb	r1, ip, r0
    6fd4:	e351000f 	cmp	r1, #15	; 0xf
    6fd8:	daffffe3 	ble	6f6c <_malloc_trim_r+0x5c>
    6fdc:	e59f3020 	ldr	r3, [pc, #32]	; 7004 <_malloc_trim_r+0xf4>
    6fe0:	e5932000 	ldr	r2, [r3]
    6fe4:	e59f3014 	ldr	r3, [pc, #20]	; 7000 <_malloc_trim_r+0xf0>
    6fe8:	e0622000 	rsb	r2, r2, r0
    6fec:	e3811001 	orr	r1, r1, #1	; 0x1
    6ff0:	e5832000 	str	r2, [r3]
    6ff4:	e58c1004 	str	r1, [ip, #4]
    6ff8:	eaffffdb 	b	6f6c <_malloc_trim_r+0x5c>
    6ffc:	40000048 	.word	0x40000048
    7000:	40000988 	.word	0x40000988
    7004:	40000454 	.word	0x40000454

00007008 <_free_r>:
    7008:	e92d41f0 	push	{r4, r5, r6, r7, r8, lr}
    700c:	e2514000 	subs	r4, r1, #0	; 0x0
    7010:	e1a08000 	mov	r8, r0
    7014:	08bd81f0 	popeq	{r4, r5, r6, r7, r8, pc}
    7018:	e2445008 	sub	r5, r4, #8	; 0x8
    701c:	ebfff893 	bl	5270 <__malloc_lock>
    7020:	e5951004 	ldr	r1, [r5, #4]
    7024:	e59f7244 	ldr	r7, [pc, #580]	; 7270 <_free_r+0x268>
    7028:	e3c1e001 	bic	lr, r1, #1	; 0x1
    702c:	e085000e 	add	r0, r5, lr
    7030:	e5973008 	ldr	r3, [r7, #8]
    7034:	e5902004 	ldr	r2, [r0, #4]
    7038:	e1530000 	cmp	r3, r0
    703c:	e3c26003 	bic	r6, r2, #3	; 0x3
    7040:	0a00006d 	beq	71fc <_free_r+0x1f4>
    7044:	e2111001 	ands	r1, r1, #1	; 0x1
    7048:	e5806004 	str	r6, [r0, #4]
    704c:	13a01000 	movne	r1, #0	; 0x0
    7050:	0a000040 	beq	7158 <_free_r+0x150>
    7054:	e0803006 	add	r3, r0, r6
    7058:	e5932004 	ldr	r2, [r3, #4]
    705c:	e3120001 	tst	r2, #1	; 0x1
    7060:	1a000006 	bne	7080 <_free_r+0x78>
    7064:	e3510000 	cmp	r1, #0	; 0x0
    7068:	e08ee006 	add	lr, lr, r6
    706c:	15902008 	ldrne	r2, [r0, #8]
    7070:	0a000047 	beq	7194 <_free_r+0x18c>
    7074:	e590300c 	ldr	r3, [r0, #12]
    7078:	e5832008 	str	r2, [r3, #8]
    707c:	e582300c 	str	r3, [r2, #12]
    7080:	e38e3001 	orr	r3, lr, #1	; 0x1
    7084:	e3510000 	cmp	r1, #0	; 0x0
    7088:	e5853004 	str	r3, [r5, #4]
    708c:	e785e00e 	str	lr, [r5, lr]
    7090:	1a00002d 	bne	714c <_free_r+0x144>
    7094:	e35e0c02 	cmp	lr, #512	; 0x200
    7098:	3a000049 	bcc	71c4 <_free_r+0x1bc>
    709c:	e1a014ae 	lsr	r1, lr, #9
    70a0:	e3510004 	cmp	r1, #4	; 0x4
    70a4:	91a0332e 	lsrls	r3, lr, #6
    70a8:	92831038 	addls	r1, r3, #56	; 0x38
    70ac:	91a03181 	lslls	r3, r1, #3
    70b0:	9a000015 	bls	710c <_free_r+0x104>
    70b4:	e3510014 	cmp	r1, #20	; 0x14
    70b8:	9281105b 	addls	r1, r1, #91	; 0x5b
    70bc:	91a03181 	lslls	r3, r1, #3
    70c0:	9a000011 	bls	710c <_free_r+0x104>
    70c4:	e3510054 	cmp	r1, #84	; 0x54
    70c8:	91a0362e 	lsrls	r3, lr, #12
    70cc:	9283106e 	addls	r1, r3, #110	; 0x6e
    70d0:	91a03181 	lslls	r3, r1, #3
    70d4:	9a00000c 	bls	710c <_free_r+0x104>
    70d8:	e3510f55 	cmp	r1, #340	; 0x154
    70dc:	91a037ae 	lsrls	r3, lr, #15
    70e0:	92831077 	addls	r1, r3, #119	; 0x77
    70e4:	91a03181 	lslls	r3, r1, #3
    70e8:	9a000007 	bls	710c <_free_r+0x104>
    70ec:	e3a03e55 	mov	r3, #1360	; 0x550
    70f0:	e2833004 	add	r3, r3, #4	; 0x4
    70f4:	e1510003 	cmp	r1, r3
    70f8:	91a0392e 	lsrls	r3, lr, #18
    70fc:	9283107c 	addls	r1, r3, #124	; 0x7c
    7100:	83a0107e 	movhi	r1, #126	; 0x7e
    7104:	82433f59 	subhi	r3, r3, #356	; 0x164
    7108:	91a03181 	lslls	r3, r1, #3
    710c:	e0872003 	add	r2, r7, r3
    7110:	e5920008 	ldr	r0, [r2, #8]
    7114:	e1500002 	cmp	r0, r2
    7118:	0a00004d 	beq	7254 <_free_r+0x24c>
    711c:	e5903004 	ldr	r3, [r0, #4]
    7120:	e3c33003 	bic	r3, r3, #3	; 0x3
    7124:	e15e0003 	cmp	lr, r3
    7128:	2a000002 	bcs	7138 <_free_r+0x130>
    712c:	e5900008 	ldr	r0, [r0, #8]
    7130:	e1520000 	cmp	r2, r0
    7134:	1afffff8 	bne	711c <_free_r+0x114>
    7138:	e590300c 	ldr	r3, [r0, #12]
    713c:	e585300c 	str	r3, [r5, #12]
    7140:	e5850008 	str	r0, [r5, #8]
    7144:	e580500c 	str	r5, [r0, #12]
    7148:	e5835008 	str	r5, [r3, #8]
    714c:	e1a00008 	mov	r0, r8
    7150:	e8bd41f0 	pop	{r4, r5, r6, r7, r8, lr}
    7154:	eafff846 	b	5274 <__malloc_unlock>
    7158:	e5142008 	ldr	r2, [r4, #-8]
    715c:	e0625005 	rsb	r5, r2, r5
    7160:	e595c008 	ldr	ip, [r5, #8]
    7164:	e2873008 	add	r3, r7, #8	; 0x8
    7168:	e15c0003 	cmp	ip, r3
    716c:	1595300c 	ldrne	r3, [r5, #12]
    7170:	1583c008 	strne	ip, [r3, #8]
    7174:	158c300c 	strne	r3, [ip, #12]
    7178:	e0803006 	add	r3, r0, r6
    717c:	e08ee002 	add	lr, lr, r2
    7180:	e5932004 	ldr	r2, [r3, #4]
    7184:	03a01001 	moveq	r1, #1	; 0x1
    7188:	e3120001 	tst	r2, #1	; 0x1
    718c:	1affffbb 	bne	7080 <_free_r+0x78>
    7190:	eaffffb3 	b	7064 <_free_r+0x5c>
    7194:	e5902008 	ldr	r2, [r0, #8]
    7198:	e59f30d4 	ldr	r3, [pc, #212]	; 7274 <_free_r+0x26c>
    719c:	e1520003 	cmp	r2, r3
    71a0:	1affffb3 	bne	7074 <_free_r+0x6c>
    71a4:	e38e3001 	orr	r3, lr, #1	; 0x1
    71a8:	e582500c 	str	r5, [r2, #12]
    71ac:	e5825008 	str	r5, [r2, #8]
    71b0:	e785e00e 	str	lr, [r5, lr]
    71b4:	e5853004 	str	r3, [r5, #4]
    71b8:	e5852008 	str	r2, [r5, #8]
    71bc:	e585200c 	str	r2, [r5, #12]
    71c0:	eaffffe1 	b	714c <_free_r+0x144>
    71c4:	e1a031ae 	lsr	r3, lr, #3
    71c8:	e5971004 	ldr	r1, [r7, #4]
    71cc:	e1a00143 	asr	r0, r3, #2
    71d0:	e3a02001 	mov	r2, #1	; 0x1
    71d4:	e1811012 	orr	r1, r1, r2, lsl r0
    71d8:	e1a03183 	lsl	r3, r3, #3
    71dc:	e0873003 	add	r3, r7, r3
    71e0:	e5932008 	ldr	r2, [r3, #8]
    71e4:	e585300c 	str	r3, [r5, #12]
    71e8:	e5852008 	str	r2, [r5, #8]
    71ec:	e5871004 	str	r1, [r7, #4]
    71f0:	e582500c 	str	r5, [r2, #12]
    71f4:	e5835008 	str	r5, [r3, #8]
    71f8:	eaffffd3 	b	714c <_free_r+0x144>
    71fc:	e3110001 	tst	r1, #1	; 0x1
    7200:	e086000e 	add	r0, r6, lr
    7204:	1a000006 	bne	7224 <_free_r+0x21c>
    7208:	e5141008 	ldr	r1, [r4, #-8]
    720c:	e0615005 	rsb	r5, r1, r5
    7210:	e595200c 	ldr	r2, [r5, #12]
    7214:	e5953008 	ldr	r3, [r5, #8]
    7218:	e5823008 	str	r3, [r2, #8]
    721c:	e583200c 	str	r2, [r3, #12]
    7220:	e0800001 	add	r0, r0, r1
    7224:	e59f304c 	ldr	r3, [pc, #76]	; 7278 <_free_r+0x270>
    7228:	e5932000 	ldr	r2, [r3]
    722c:	e3803001 	orr	r3, r0, #1	; 0x1
    7230:	e1500002 	cmp	r0, r2
    7234:	e5875008 	str	r5, [r7, #8]
    7238:	e5853004 	str	r3, [r5, #4]
    723c:	3affffc2 	bcc	714c <_free_r+0x144>
    7240:	e59f3034 	ldr	r3, [pc, #52]	; 727c <_free_r+0x274>
    7244:	e1a00008 	mov	r0, r8
    7248:	e5931000 	ldr	r1, [r3]
    724c:	ebffff2f 	bl	6f10 <_malloc_trim_r>
    7250:	eaffffbd 	b	714c <_free_r+0x144>
    7254:	e5973004 	ldr	r3, [r7, #4]
    7258:	e1a01141 	asr	r1, r1, #2
    725c:	e3a02001 	mov	r2, #1	; 0x1
    7260:	e1833112 	orr	r3, r3, r2, lsl r1
    7264:	e5873004 	str	r3, [r7, #4]
    7268:	e1a03000 	mov	r3, r0
    726c:	eaffffb2 	b	713c <_free_r+0x134>
    7270:	40000048 	.word	0x40000048
    7274:	40000050 	.word	0x40000050
    7278:	40000450 	.word	0x40000450
    727c:	4000097c 	.word	0x4000097c

00007280 <__sfvwrite_r>:
    7280:	e92d4ff0 	push	{r4, r5, r6, r7, r8, r9, sl, fp, lr}
    7284:	e5923008 	ldr	r3, [r2, #8]
    7288:	e24dd008 	sub	sp, sp, #8	; 0x8
    728c:	e3530000 	cmp	r3, #0	; 0x0
    7290:	e1a0b002 	mov	fp, r2
    7294:	e58d0000 	str	r0, [sp]
    7298:	e1a06001 	mov	r6, r1
    729c:	0a000057 	beq	7400 <__sfvwrite_r+0x180>
    72a0:	e1d100bc 	ldrh	r0, [r1, #12]
    72a4:	e3100008 	tst	r0, #8	; 0x8
    72a8:	0a000095 	beq	7504 <__sfvwrite_r+0x284>
    72ac:	e5913010 	ldr	r3, [r1, #16]
    72b0:	e3530000 	cmp	r3, #0	; 0x0
    72b4:	0a000092 	beq	7504 <__sfvwrite_r+0x284>
    72b8:	e2103002 	ands	r3, r0, #2	; 0x2
    72bc:	13a04000 	movne	r4, #0	; 0x0
    72c0:	e59ba000 	ldr	sl, [fp]
    72c4:	11a05004 	movne	r5, r4
    72c8:	1a000039 	bne	73b4 <__sfvwrite_r+0x134>
    72cc:	e2102001 	ands	r2, r0, #1	; 0x1
    72d0:	01a05002 	moveq	r5, r2
    72d4:	01a07005 	moveq	r7, r5
    72d8:	0a00005f 	beq	745c <__sfvwrite_r+0x1dc>
    72dc:	e58d3004 	str	r3, [sp, #4]
    72e0:	e1a07003 	mov	r7, r3
    72e4:	e1a09003 	mov	r9, r3
    72e8:	e1a08003 	mov	r8, r3
    72ec:	e3570000 	cmp	r7, #0	; 0x0
    72f0:	0a000026 	beq	7390 <__sfvwrite_r+0x110>
    72f4:	e59d2004 	ldr	r2, [sp, #4]
    72f8:	e3520000 	cmp	r2, #0	; 0x0
    72fc:	0a0000ed 	beq	76b8 <__sfvwrite_r+0x438>
    7300:	e596c014 	ldr	ip, [r6, #20]
    7304:	e5961008 	ldr	r1, [r6, #8]
    7308:	e5960000 	ldr	r0, [r6]
    730c:	e5962010 	ldr	r2, [r6, #16]
    7310:	e1580007 	cmp	r8, r7
    7314:	31a05008 	movcc	r5, r8
    7318:	21a05007 	movcs	r5, r7
    731c:	e08c4001 	add	r4, ip, r1
    7320:	e1500002 	cmp	r0, r2
    7324:	93a03000 	movls	r3, #0	; 0x0
    7328:	83a03001 	movhi	r3, #1	; 0x1
    732c:	e1550004 	cmp	r5, r4
    7330:	d3a03000 	movle	r3, #0	; 0x0
    7334:	e3530000 	cmp	r3, #0	; 0x0
    7338:	1a0000d2 	bne	7688 <__sfvwrite_r+0x408>
    733c:	e155000c 	cmp	r5, ip
    7340:	ba0000bd 	blt	763c <__sfvwrite_r+0x3bc>
    7344:	e1a0300c 	mov	r3, ip
    7348:	e59d0000 	ldr	r0, [sp]
    734c:	e596101c 	ldr	r1, [r6, #28]
    7350:	e1a02009 	mov	r2, r9
    7354:	e1a0e00f 	mov	lr, pc
    7358:	e596f024 	ldr	pc, [r6, #36]
    735c:	e2504000 	subs	r4, r0, #0	; 0x0
    7360:	da00008c 	ble	7598 <__sfvwrite_r+0x318>
    7364:	e0588004 	subs	r8, r8, r4
    7368:	0a0000bf 	beq	766c <__sfvwrite_r+0x3ec>
    736c:	e59b3008 	ldr	r3, [fp, #8]
    7370:	e0643003 	rsb	r3, r4, r3
    7374:	e3530000 	cmp	r3, #0	; 0x0
    7378:	e58b3008 	str	r3, [fp, #8]
    737c:	0a00001f 	beq	7400 <__sfvwrite_r+0x180>
    7380:	e0647007 	rsb	r7, r4, r7
    7384:	e3570000 	cmp	r7, #0	; 0x0
    7388:	e0899004 	add	r9, r9, r4
    738c:	1affffd8 	bne	72f4 <__sfvwrite_r+0x74>
    7390:	e3a03000 	mov	r3, #0	; 0x0
    7394:	e59a9000 	ldr	r9, [sl]
    7398:	e59a7004 	ldr	r7, [sl, #4]
    739c:	e58d3004 	str	r3, [sp, #4]
    73a0:	e28aa008 	add	sl, sl, #8	; 0x8
    73a4:	eaffffd0 	b	72ec <__sfvwrite_r+0x6c>
    73a8:	e59a5000 	ldr	r5, [sl]
    73ac:	e59a4004 	ldr	r4, [sl, #4]
    73b0:	e28aa008 	add	sl, sl, #8	; 0x8
    73b4:	e3540000 	cmp	r4, #0	; 0x0
    73b8:	e1a02005 	mov	r2, r5
    73bc:	e59d0000 	ldr	r0, [sp]
    73c0:	0afffff8 	beq	73a8 <__sfvwrite_r+0x128>
    73c4:	e3540b01 	cmp	r4, #1024	; 0x400
    73c8:	31a03004 	movcc	r3, r4
    73cc:	23a03b01 	movcs	r3, #1024	; 0x400
    73d0:	e596101c 	ldr	r1, [r6, #28]
    73d4:	e1a0e00f 	mov	lr, pc
    73d8:	e596f024 	ldr	pc, [r6, #36]
    73dc:	e3500000 	cmp	r0, #0	; 0x0
    73e0:	e0604004 	rsb	r4, r0, r4
    73e4:	e0855000 	add	r5, r5, r0
    73e8:	da00006a 	ble	7598 <__sfvwrite_r+0x318>
    73ec:	e59b3008 	ldr	r3, [fp, #8]
    73f0:	e0603003 	rsb	r3, r0, r3
    73f4:	e3530000 	cmp	r3, #0	; 0x0
    73f8:	e58b3008 	str	r3, [fp, #8]
    73fc:	1affffec 	bne	73b4 <__sfvwrite_r+0x134>
    7400:	e3a00000 	mov	r0, #0	; 0x0
    7404:	e28dd008 	add	sp, sp, #8	; 0x8
    7408:	e8bd8ff0 	pop	{r4, r5, r6, r7, r8, r9, sl, fp, pc}
    740c:	e1a04005 	mov	r4, r5
    7410:	e1a02004 	mov	r2, r4
    7414:	e5960000 	ldr	r0, [r6]
    7418:	e1a01007 	mov	r1, r7
    741c:	eb000194 	bl	7a74 <memmove>
    7420:	e5963008 	ldr	r3, [r6, #8]
    7424:	e5962000 	ldr	r2, [r6]
    7428:	e0643003 	rsb	r3, r4, r3
    742c:	e0822004 	add	r2, r2, r4
    7430:	e5863008 	str	r3, [r6, #8]
    7434:	e5862000 	str	r2, [r6]
    7438:	e1a04005 	mov	r4, r5
    743c:	e59b3008 	ldr	r3, [fp, #8]
    7440:	e0643003 	rsb	r3, r4, r3
    7444:	e3530000 	cmp	r3, #0	; 0x0
    7448:	e58b3008 	str	r3, [fp, #8]
    744c:	0affffeb 	beq	7400 <__sfvwrite_r+0x180>
    7450:	e1d600bc 	ldrh	r0, [r6, #12]
    7454:	e0645005 	rsb	r5, r4, r5
    7458:	e0877004 	add	r7, r7, r4
    745c:	e3550000 	cmp	r5, #0	; 0x0
    7460:	0a000035 	beq	753c <__sfvwrite_r+0x2bc>
    7464:	e3100c02 	tst	r0, #512	; 0x200
    7468:	e5964008 	ldr	r4, [r6, #8]
    746c:	0a000036 	beq	754c <__sfvwrite_r+0x2cc>
    7470:	e1550004 	cmp	r5, r4
    7474:	3affffe4 	bcc	740c <__sfvwrite_r+0x18c>
    7478:	e3100d12 	tst	r0, #1152	; 0x480
    747c:	0affffe3 	beq	7410 <__sfvwrite_r+0x190>
    7480:	e5962014 	ldr	r2, [r6, #20]
    7484:	e596c010 	ldr	ip, [r6, #16]
    7488:	e5961000 	ldr	r1, [r6]
    748c:	e1a03082 	lsl	r3, r2, #1
    7490:	e0833002 	add	r3, r3, r2
    7494:	e06c9001 	rsb	r9, ip, r1
    7498:	e0833fa3 	add	r3, r3, r3, lsr #31
    749c:	e2892001 	add	r2, r9, #1	; 0x1
    74a0:	e1a040c3 	asr	r4, r3, #1
    74a4:	e0822005 	add	r2, r2, r5
    74a8:	e1540002 	cmp	r4, r2
    74ac:	31a04002 	movcc	r4, r2
    74b0:	e3100b01 	tst	r0, #1024	; 0x400
    74b4:	0a000053 	beq	7608 <__sfvwrite_r+0x388>
    74b8:	e59d0000 	ldr	r0, [sp]
    74bc:	e1a01004 	mov	r1, r4
    74c0:	ebfff4ff 	bl	48c4 <_malloc_r>
    74c4:	e2508000 	subs	r8, r0, #0	; 0x0
    74c8:	0a000057 	beq	762c <__sfvwrite_r+0x3ac>
    74cc:	e5961010 	ldr	r1, [r6, #16]
    74d0:	e1a02009 	mov	r2, r9
    74d4:	ebfff6f2 	bl	50a4 <memcpy>
    74d8:	e1d630bc 	ldrh	r3, [r6, #12]
    74dc:	e3c33d12 	bic	r3, r3, #1152	; 0x480
    74e0:	e3833080 	orr	r3, r3, #128	; 0x80
    74e4:	e1c630bc 	strh	r3, [r6, #12]
    74e8:	e0692004 	rsb	r2, r9, r4
    74ec:	e0883009 	add	r3, r8, r9
    74f0:	e5863000 	str	r3, [r6]
    74f4:	e5862008 	str	r2, [r6, #8]
    74f8:	e5868010 	str	r8, [r6, #16]
    74fc:	e5864014 	str	r4, [r6, #20]
    7500:	eaffffc1 	b	740c <__sfvwrite_r+0x18c>
    7504:	e59d0000 	ldr	r0, [sp]
    7508:	e1a01006 	mov	r1, r6
    750c:	ebfffd0c 	bl	6944 <__swsetup_r>
    7510:	e3500000 	cmp	r0, #0	; 0x0
    7514:	01d600bc 	ldrheq	r0, [r6, #12]
    7518:	0affff66 	beq	72b8 <__sfvwrite_r+0x38>
    751c:	e1d630bc 	ldrh	r3, [r6, #12]
    7520:	e3833040 	orr	r3, r3, #64	; 0x40
    7524:	e1c630bc 	strh	r3, [r6, #12]
    7528:	e59d3000 	ldr	r3, [sp]
    752c:	e3a02009 	mov	r2, #9	; 0x9
    7530:	e5832000 	str	r2, [r3]
    7534:	e3e00000 	mvn	r0, #0	; 0x0
    7538:	eaffffb1 	b	7404 <__sfvwrite_r+0x184>
    753c:	e59a7000 	ldr	r7, [sl]
    7540:	e59a5004 	ldr	r5, [sl, #4]
    7544:	e28aa008 	add	sl, sl, #8	; 0x8
    7548:	eaffffc3 	b	745c <__sfvwrite_r+0x1dc>
    754c:	e5960000 	ldr	r0, [r6]
    7550:	e5963010 	ldr	r3, [r6, #16]
    7554:	e1500003 	cmp	r0, r3
    7558:	93a02000 	movls	r2, #0	; 0x0
    755c:	83a02001 	movhi	r2, #1	; 0x1
    7560:	e1540005 	cmp	r4, r5
    7564:	23a02000 	movcs	r2, #0	; 0x0
    7568:	e3520000 	cmp	r2, #0	; 0x0
    756c:	1a000019 	bne	75d8 <__sfvwrite_r+0x358>
    7570:	e5963014 	ldr	r3, [r6, #20]
    7574:	e1550003 	cmp	r5, r3
    7578:	3a00000b 	bcc	75ac <__sfvwrite_r+0x32c>
    757c:	e59d0000 	ldr	r0, [sp]
    7580:	e596101c 	ldr	r1, [r6, #28]
    7584:	e1a02007 	mov	r2, r7
    7588:	e1a0e00f 	mov	lr, pc
    758c:	e596f024 	ldr	pc, [r6, #36]
    7590:	e2504000 	subs	r4, r0, #0	; 0x0
    7594:	caffffa8 	bgt	743c <__sfvwrite_r+0x1bc>
    7598:	e1d630bc 	ldrh	r3, [r6, #12]
    759c:	e3833040 	orr	r3, r3, #64	; 0x40
    75a0:	e1c630bc 	strh	r3, [r6, #12]
    75a4:	e3e00000 	mvn	r0, #0	; 0x0
    75a8:	eaffff95 	b	7404 <__sfvwrite_r+0x184>
    75ac:	e1a02005 	mov	r2, r5
    75b0:	e1a01007 	mov	r1, r7
    75b4:	eb00012e 	bl	7a74 <memmove>
    75b8:	e5963008 	ldr	r3, [r6, #8]
    75bc:	e5962000 	ldr	r2, [r6]
    75c0:	e0653003 	rsb	r3, r5, r3
    75c4:	e0822005 	add	r2, r2, r5
    75c8:	e5863008 	str	r3, [r6, #8]
    75cc:	e5862000 	str	r2, [r6]
    75d0:	e1a04005 	mov	r4, r5
    75d4:	eaffff98 	b	743c <__sfvwrite_r+0x1bc>
    75d8:	e1a01007 	mov	r1, r7
    75dc:	e1a02004 	mov	r2, r4
    75e0:	eb000123 	bl	7a74 <memmove>
    75e4:	e5963000 	ldr	r3, [r6]
    75e8:	e0833004 	add	r3, r3, r4
    75ec:	e5863000 	str	r3, [r6]
    75f0:	e59d0000 	ldr	r0, [sp]
    75f4:	e1a01006 	mov	r1, r6
    75f8:	ebfffd22 	bl	6a88 <_fflush_r>
    75fc:	e3500000 	cmp	r0, #0	; 0x0
    7600:	0affff8d 	beq	743c <__sfvwrite_r+0x1bc>
    7604:	eaffffe3 	b	7598 <__sfvwrite_r+0x318>
    7608:	e1a0100c 	mov	r1, ip
    760c:	e59d0000 	ldr	r0, [sp]
    7610:	e1a02004 	mov	r2, r4
    7614:	eb000167 	bl	7bb8 <_realloc_r>
    7618:	e2508000 	subs	r8, r0, #0	; 0x0
    761c:	1affffb1 	bne	74e8 <__sfvwrite_r+0x268>
    7620:	e59d0000 	ldr	r0, [sp]
    7624:	e5961010 	ldr	r1, [r6, #16]
    7628:	ebfffe76 	bl	7008 <_free_r>
    762c:	e59d2000 	ldr	r2, [sp]
    7630:	e3a0300c 	mov	r3, #12	; 0xc
    7634:	e5823000 	str	r3, [r2]
    7638:	eaffffd6 	b	7598 <__sfvwrite_r+0x318>
    763c:	e1a02005 	mov	r2, r5
    7640:	e1a01009 	mov	r1, r9
    7644:	eb00010a 	bl	7a74 <memmove>
    7648:	e5963008 	ldr	r3, [r6, #8]
    764c:	e5962000 	ldr	r2, [r6]
    7650:	e1a04005 	mov	r4, r5
    7654:	e0653003 	rsb	r3, r5, r3
    7658:	e0822005 	add	r2, r2, r5
    765c:	e0588004 	subs	r8, r8, r4
    7660:	e5863008 	str	r3, [r6, #8]
    7664:	e5862000 	str	r2, [r6]
    7668:	1affff3f 	bne	736c <__sfvwrite_r+0xec>
    766c:	e59d0000 	ldr	r0, [sp]
    7670:	e1a01006 	mov	r1, r6
    7674:	ebfffd03 	bl	6a88 <_fflush_r>
    7678:	e3500000 	cmp	r0, #0	; 0x0
    767c:	1affffc5 	bne	7598 <__sfvwrite_r+0x318>
    7680:	e58d8004 	str	r8, [sp, #4]
    7684:	eaffff38 	b	736c <__sfvwrite_r+0xec>
    7688:	e1a01009 	mov	r1, r9
    768c:	e1a02004 	mov	r2, r4
    7690:	eb0000f7 	bl	7a74 <memmove>
    7694:	e5963000 	ldr	r3, [r6]
    7698:	e0833004 	add	r3, r3, r4
    769c:	e5863000 	str	r3, [r6]
    76a0:	e59d0000 	ldr	r0, [sp]
    76a4:	e1a01006 	mov	r1, r6
    76a8:	ebfffcf6 	bl	6a88 <_fflush_r>
    76ac:	e3500000 	cmp	r0, #0	; 0x0
    76b0:	0affff2b 	beq	7364 <__sfvwrite_r+0xe4>
    76b4:	eaffffb7 	b	7598 <__sfvwrite_r+0x318>
    76b8:	e1a02007 	mov	r2, r7
    76bc:	e1a00009 	mov	r0, r9
    76c0:	e3a0100a 	mov	r1, #10	; 0xa
    76c4:	eb0000a4 	bl	795c <memchr>
    76c8:	e3500000 	cmp	r0, #0	; 0x0
    76cc:	12803001 	addne	r3, r0, #1	; 0x1
    76d0:	10698003 	rsbne	r8, r9, r3
    76d4:	03a02001 	moveq	r2, #1	; 0x1
    76d8:	13a03001 	movne	r3, #1	; 0x1
    76dc:	158d3004 	strne	r3, [sp, #4]
    76e0:	02878001 	addeq	r8, r7, #1	; 0x1
    76e4:	058d2004 	streq	r2, [sp, #4]
    76e8:	eaffff04 	b	7300 <__sfvwrite_r+0x80>

000076ec <_fwalk_reent>:
    76ec:	e92d47f0 	push	{r4, r5, r6, r7, r8, r9, sl, lr}
    76f0:	e1a07000 	mov	r7, r0
    76f4:	e1a09001 	mov	r9, r1
    76f8:	ebfffda0 	bl	6d80 <__sfp_lock_acquire>
    76fc:	e2978e2e 	adds	r8, r7, #736	; 0x2e0
    7700:	01a0a008 	moveq	sl, r8
    7704:	0a000017 	beq	7768 <_fwalk_reent+0x7c>
    7708:	e3a0a000 	mov	sl, #0	; 0x0
    770c:	e5986004 	ldr	r6, [r8, #4]
    7710:	e3560000 	cmp	r6, #0	; 0x0
    7714:	e5984008 	ldr	r4, [r8, #8]
    7718:	da00000f 	ble	775c <_fwalk_reent+0x70>
    771c:	e3a05000 	mov	r5, #0	; 0x0
    7720:	e1d430fc 	ldrsh	r3, [r4, #12]
    7724:	e3530000 	cmp	r3, #0	; 0x0
    7728:	e2855001 	add	r5, r5, #1	; 0x1
    772c:	0a000007 	beq	7750 <_fwalk_reent+0x64>
    7730:	e1d430fe 	ldrsh	r3, [r4, #14]
    7734:	e3730001 	cmn	r3, #1	; 0x1
    7738:	e1a01004 	mov	r1, r4
    773c:	e1a00007 	mov	r0, r7
    7740:	0a000002 	beq	7750 <_fwalk_reent+0x64>
    7744:	e1a0e00f 	mov	lr, pc
    7748:	e12fff19 	bx	r9
    774c:	e18aa000 	orr	sl, sl, r0
    7750:	e1550006 	cmp	r5, r6
    7754:	e284405c 	add	r4, r4, #92	; 0x5c
    7758:	1afffff0 	bne	7720 <_fwalk_reent+0x34>
    775c:	e5988000 	ldr	r8, [r8]
    7760:	e3580000 	cmp	r8, #0	; 0x0
    7764:	1affffe8 	bne	770c <_fwalk_reent+0x20>
    7768:	ebfffd85 	bl	6d84 <__sfp_lock_release>
    776c:	e1a0000a 	mov	r0, sl
    7770:	e8bd87f0 	pop	{r4, r5, r6, r7, r8, r9, sl, pc}

00007774 <_fwalk>:
    7774:	e92d45f0 	push	{r4, r5, r6, r7, r8, sl, lr}
    7778:	e1a04000 	mov	r4, r0
    777c:	e1a0a001 	mov	sl, r1
    7780:	ebfffd7e 	bl	6d80 <__sfp_lock_acquire>
    7784:	e2947e2e 	adds	r7, r4, #736	; 0x2e0
    7788:	01a08007 	moveq	r8, r7
    778c:	0a000016 	beq	77ec <_fwalk+0x78>
    7790:	e3a08000 	mov	r8, #0	; 0x0
    7794:	e5976004 	ldr	r6, [r7, #4]
    7798:	e3560000 	cmp	r6, #0	; 0x0
    779c:	e5974008 	ldr	r4, [r7, #8]
    77a0:	da00000e 	ble	77e0 <_fwalk+0x6c>
    77a4:	e3a05000 	mov	r5, #0	; 0x0
    77a8:	e1d430fc 	ldrsh	r3, [r4, #12]
    77ac:	e3530000 	cmp	r3, #0	; 0x0
    77b0:	e2855001 	add	r5, r5, #1	; 0x1
    77b4:	0a000006 	beq	77d4 <_fwalk+0x60>
    77b8:	e1d430fe 	ldrsh	r3, [r4, #14]
    77bc:	e3730001 	cmn	r3, #1	; 0x1
    77c0:	e1a00004 	mov	r0, r4
    77c4:	0a000002 	beq	77d4 <_fwalk+0x60>
    77c8:	e1a0e00f 	mov	lr, pc
    77cc:	e12fff1a 	bx	sl
    77d0:	e1888000 	orr	r8, r8, r0
    77d4:	e1550006 	cmp	r5, r6
    77d8:	e284405c 	add	r4, r4, #92	; 0x5c
    77dc:	1afffff1 	bne	77a8 <_fwalk+0x34>
    77e0:	e5977000 	ldr	r7, [r7]
    77e4:	e3570000 	cmp	r7, #0	; 0x0
    77e8:	1affffe9 	bne	7794 <_fwalk+0x20>
    77ec:	ebfffd64 	bl	6d84 <__sfp_lock_release>
    77f0:	e1a00008 	mov	r0, r8
    77f4:	e8bd85f0 	pop	{r4, r5, r6, r7, r8, sl, pc}

000077f8 <__smakebuf_r>:
    77f8:	e1d120bc 	ldrh	r2, [r1, #12]
    77fc:	e92d40f0 	push	{r4, r5, r6, r7, lr}
    7800:	e1a03802 	lsl	r3, r2, #16
    7804:	e1a03823 	lsr	r3, r3, #16
    7808:	e3130002 	tst	r3, #2	; 0x2
    780c:	12812043 	addne	r2, r1, #67	; 0x43
    7810:	13a03001 	movne	r3, #1	; 0x1
    7814:	e24dd03c 	sub	sp, sp, #60	; 0x3c
    7818:	e1a04001 	mov	r4, r1
    781c:	e1a06000 	mov	r6, r0
    7820:	15813014 	strne	r3, [r1, #20]
    7824:	15812010 	strne	r2, [r1, #16]
    7828:	15812000 	strne	r2, [r1]
    782c:	1a000030 	bne	78f4 <__smakebuf_r+0xfc>
    7830:	e1d110fe 	ldrsh	r1, [r1, #14]
    7834:	e3510000 	cmp	r1, #0	; 0x0
    7838:	ba000012 	blt	7888 <__smakebuf_r+0x90>
    783c:	e1a0200d 	mov	r2, sp
    7840:	ebffe9b9 	bl	1f2c <_fstat_r>
    7844:	e3500000 	cmp	r0, #0	; 0x0
    7848:	ba00000b 	blt	787c <__smakebuf_r+0x84>
    784c:	e59d3004 	ldr	r3, [sp, #4]
    7850:	e2033a0f 	and	r3, r3, #61440	; 0xf000
    7854:	e3530a02 	cmp	r3, #8192	; 0x2000
    7858:	13a07000 	movne	r7, #0	; 0x0
    785c:	03a07001 	moveq	r7, #1	; 0x1
    7860:	e3530902 	cmp	r3, #32768	; 0x8000
    7864:	0a00002f 	beq	7928 <__smakebuf_r+0x130>
    7868:	e1d430bc 	ldrh	r3, [r4, #12]
    786c:	e3833b02 	orr	r3, r3, #2048	; 0x800
    7870:	e1c430bc 	strh	r3, [r4, #12]
    7874:	e3a05b01 	mov	r5, #1024	; 0x400
    7878:	ea000008 	b	78a0 <__smakebuf_r+0xa8>
    787c:	e1d420bc 	ldrh	r2, [r4, #12]
    7880:	e1a03802 	lsl	r3, r2, #16
    7884:	e1a03823 	lsr	r3, r3, #16
    7888:	e3130080 	tst	r3, #128	; 0x80
    788c:	e3823b02 	orr	r3, r2, #2048	; 0x800
    7890:	e1c430bc 	strh	r3, [r4, #12]
    7894:	03a05b01 	moveq	r5, #1024	; 0x400
    7898:	13a05040 	movne	r5, #64	; 0x40
    789c:	e3a07000 	mov	r7, #0	; 0x0
    78a0:	e1a00006 	mov	r0, r6
    78a4:	e1a01005 	mov	r1, r5
    78a8:	ebfff405 	bl	48c4 <_malloc_r>
    78ac:	e3500000 	cmp	r0, #0	; 0x0
    78b0:	0a000011 	beq	78fc <__smakebuf_r+0x104>
    78b4:	e1d420bc 	ldrh	r2, [r4, #12]
    78b8:	e59f3094 	ldr	r3, [pc, #148]	; 7954 <__smakebuf_r+0x15c>
    78bc:	e3822080 	orr	r2, r2, #128	; 0x80
    78c0:	e3570000 	cmp	r7, #0	; 0x0
    78c4:	e586303c 	str	r3, [r6, #60]
    78c8:	e1c420bc 	strh	r2, [r4, #12]
    78cc:	e5840010 	str	r0, [r4, #16]
    78d0:	e5845014 	str	r5, [r4, #20]
    78d4:	e5840000 	str	r0, [r4]
    78d8:	0a000005 	beq	78f4 <__smakebuf_r+0xfc>
    78dc:	e1d400fe 	ldrsh	r0, [r4, #14]
    78e0:	eb000366 	bl	8680 <isatty>
    78e4:	e3500000 	cmp	r0, #0	; 0x0
    78e8:	11d430bc 	ldrhne	r3, [r4, #12]
    78ec:	13833001 	orrne	r3, r3, #1	; 0x1
    78f0:	11c430bc 	strhne	r3, [r4, #12]
    78f4:	e28dd03c 	add	sp, sp, #60	; 0x3c
    78f8:	e8bd80f0 	pop	{r4, r5, r6, r7, pc}
    78fc:	e1d410bc 	ldrh	r1, [r4, #12]
    7900:	e3110c02 	tst	r1, #512	; 0x200
    7904:	1afffffa 	bne	78f4 <__smakebuf_r+0xfc>
    7908:	e2842043 	add	r2, r4, #67	; 0x43
    790c:	e3811002 	orr	r1, r1, #2	; 0x2
    7910:	e3a03001 	mov	r3, #1	; 0x1
    7914:	e5843014 	str	r3, [r4, #20]
    7918:	e1c410bc 	strh	r1, [r4, #12]
    791c:	e5842010 	str	r2, [r4, #16]
    7920:	e5842000 	str	r2, [r4]
    7924:	eafffff2 	b	78f4 <__smakebuf_r+0xfc>
    7928:	e5942028 	ldr	r2, [r4, #40]
    792c:	e59f3024 	ldr	r3, [pc, #36]	; 7958 <__smakebuf_r+0x160>
    7930:	e1520003 	cmp	r2, r3
    7934:	1affffcb 	bne	7868 <__smakebuf_r+0x70>
    7938:	e1d430bc 	ldrh	r3, [r4, #12]
    793c:	e3a02b01 	mov	r2, #1024	; 0x400
    7940:	e3833b01 	orr	r3, r3, #1024	; 0x400
    7944:	e1c430bc 	strh	r3, [r4, #12]
    7948:	e584204c 	str	r2, [r4, #76]
    794c:	e1a05002 	mov	r5, r2
    7950:	eaffffd2 	b	78a0 <__smakebuf_r+0xa8>
    7954:	00006dd0 	.word	0x00006dd0
    7958:	000080d0 	.word	0x000080d0

0000795c <memchr>:
    795c:	e92d0030 	push	{r4, r5}
    7960:	e1a04002 	mov	r4, r2
    7964:	e3540003 	cmp	r4, #3	; 0x3
    7968:	e1a02000 	mov	r2, r0
    796c:	e20110ff 	and	r1, r1, #255	; 0xff
    7970:	9a000038 	bls	7a58 <memchr+0xfc>
    7974:	e2123003 	ands	r3, r2, #3	; 0x3
    7978:	0a00000d 	beq	79b4 <memchr+0x58>
    797c:	e5d03000 	ldrb	r3, [r0]
    7980:	e1530001 	cmp	r3, r1
    7984:	12442001 	subne	r2, r4, #1	; 0x1
    7988:	1a000003 	bne	799c <memchr+0x40>
    798c:	ea000006 	b	79ac <memchr+0x50>
    7990:	e5f03001 	ldrb	r3, [r0, #1]!
    7994:	e1530001 	cmp	r3, r1
    7998:	0a000003 	beq	79ac <memchr+0x50>
    799c:	e3520000 	cmp	r2, #0	; 0x0
    79a0:	e2422001 	sub	r2, r2, #1	; 0x1
    79a4:	1afffff9 	bne	7990 <memchr+0x34>
    79a8:	e3a00000 	mov	r0, #0	; 0x0
    79ac:	e8bd0030 	pop	{r4, r5}
    79b0:	e12fff1e 	bx	lr
    79b4:	e1a05003 	mov	r5, r3
    79b8:	e1a0c003 	mov	ip, r3
    79bc:	e28cc001 	add	ip, ip, #1	; 0x1
    79c0:	e1a03405 	lsl	r3, r5, #8
    79c4:	e35c0004 	cmp	ip, #4	; 0x4
    79c8:	e0835001 	add	r5, r3, r1
    79cc:	1afffffa 	bne	79bc <memchr+0x60>
    79d0:	e1a00002 	mov	r0, r2
    79d4:	e5902000 	ldr	r2, [r0]
    79d8:	e0252002 	eor	r2, r5, r2
    79dc:	e28234ff 	add	r3, r2, #-16777216	; 0xff000000
    79e0:	e2433801 	sub	r3, r3, #65536	; 0x10000
    79e4:	e2433c01 	sub	r3, r3, #256	; 0x100
    79e8:	e2433001 	sub	r3, r3, #1	; 0x1
    79ec:	e1e02002 	mvn	r2, r2
    79f0:	e0033002 	and	r3, r3, r2
    79f4:	e3c3347f 	bic	r3, r3, #2130706432	; 0x7f000000
    79f8:	e3c3387f 	bic	r3, r3, #8323072	; 0x7f0000
    79fc:	e3c33c7f 	bic	r3, r3, #32512	; 0x7f00
    7a00:	e3c3307f 	bic	r3, r3, #127	; 0x7f
    7a04:	e3530000 	cmp	r3, #0	; 0x0
    7a08:	e2444004 	sub	r4, r4, #4	; 0x4
    7a0c:	0a00000e 	beq	7a4c <memchr+0xf0>
    7a10:	e5d03000 	ldrb	r3, [r0]
    7a14:	e1530001 	cmp	r3, r1
    7a18:	0a000012 	beq	7a68 <memchr+0x10c>
    7a1c:	e5d03001 	ldrb	r3, [r0, #1]
    7a20:	e1530001 	cmp	r3, r1
    7a24:	e2803001 	add	r3, r0, #1	; 0x1
    7a28:	0a00000f 	beq	7a6c <memchr+0x110>
    7a2c:	e5d03002 	ldrb	r3, [r0, #2]
    7a30:	e1530001 	cmp	r3, r1
    7a34:	e2803002 	add	r3, r0, #2	; 0x2
    7a38:	0a00000b 	beq	7a6c <memchr+0x110>
    7a3c:	e5d03003 	ldrb	r3, [r0, #3]
    7a40:	e1530001 	cmp	r3, r1
    7a44:	e2803003 	add	r3, r0, #3	; 0x3
    7a48:	0a000007 	beq	7a6c <memchr+0x110>
    7a4c:	e3540003 	cmp	r4, #3	; 0x3
    7a50:	e2800004 	add	r0, r0, #4	; 0x4
    7a54:	8affffde 	bhi	79d4 <memchr+0x78>
    7a58:	e3540000 	cmp	r4, #0	; 0x0
    7a5c:	1affffc6 	bne	797c <memchr+0x20>
    7a60:	e3a00000 	mov	r0, #0	; 0x0
    7a64:	eaffffd0 	b	79ac <memchr+0x50>
    7a68:	e1a03000 	mov	r3, r0
    7a6c:	e1a00003 	mov	r0, r3
    7a70:	eaffffcd 	b	79ac <memchr+0x50>

00007a74 <memmove>:
    7a74:	e92d0070 	push	{r4, r5, r6}
    7a78:	e1500001 	cmp	r0, r1
    7a7c:	e1a04002 	mov	r4, r2
    7a80:	e1a05001 	mov	r5, r1
    7a84:	e1a02001 	mov	r2, r1
    7a88:	e1a06000 	mov	r6, r0
    7a8c:	e1a01004 	mov	r1, r4
    7a90:	9a000010 	bls	7ad8 <memmove+0x64>
    7a94:	e085c004 	add	ip, r5, r4
    7a98:	e156000c 	cmp	r6, ip
    7a9c:	2a00000d 	bcs	7ad8 <memmove+0x64>
    7aa0:	e3540000 	cmp	r4, #0	; 0x0
    7aa4:	0a000008 	beq	7acc <memmove+0x58>
    7aa8:	e2643000 	rsb	r3, r4, #0	; 0x0
    7aac:	e0862004 	add	r2, r6, r4
    7ab0:	e0821003 	add	r1, r2, r3
    7ab4:	e08cc003 	add	ip, ip, r3
    7ab8:	e2442001 	sub	r2, r4, #1	; 0x1
    7abc:	e7dc3002 	ldrb	r3, [ip, r2]
    7ac0:	e7c13002 	strb	r3, [r1, r2]
    7ac4:	e2522001 	subs	r2, r2, #1	; 0x1
    7ac8:	2afffffb 	bcs	7abc <memmove+0x48>
    7acc:	e1a00006 	mov	r0, r6
    7ad0:	e8bd0070 	pop	{r4, r5, r6}
    7ad4:	e12fff1e 	bx	lr
    7ad8:	e354000f 	cmp	r4, #15	; 0xf
    7adc:	8a000008 	bhi	7b04 <memmove+0x90>
    7ae0:	e3510000 	cmp	r1, #0	; 0x0
    7ae4:	0afffff8 	beq	7acc <memmove+0x58>
    7ae8:	e3a0c000 	mov	ip, #0	; 0x0
    7aec:	e7d2300c 	ldrb	r3, [r2, ip]
    7af0:	e7c0300c 	strb	r3, [r0, ip]
    7af4:	e28cc001 	add	ip, ip, #1	; 0x1
    7af8:	e15c0001 	cmp	ip, r1
    7afc:	1afffffa 	bne	7aec <memmove+0x78>
    7b00:	eafffff1 	b	7acc <memmove+0x58>
    7b04:	e1853006 	orr	r3, r5, r6
    7b08:	e3130003 	tst	r3, #3	; 0x3
    7b0c:	1afffff3 	bne	7ae0 <memmove+0x6c>
    7b10:	e1a01005 	mov	r1, r5
    7b14:	e1a0c006 	mov	ip, r6
    7b18:	e1a00004 	mov	r0, r4
    7b1c:	e5913000 	ldr	r3, [r1]
    7b20:	e58c3000 	str	r3, [ip]
    7b24:	e5912004 	ldr	r2, [r1, #4]
    7b28:	e58c2004 	str	r2, [ip, #4]
    7b2c:	e5913008 	ldr	r3, [r1, #8]
    7b30:	e58c3008 	str	r3, [ip, #8]
    7b34:	e2400010 	sub	r0, r0, #16	; 0x10
    7b38:	e591300c 	ldr	r3, [r1, #12]
    7b3c:	e350000f 	cmp	r0, #15	; 0xf
    7b40:	e58c300c 	str	r3, [ip, #12]
    7b44:	e2811010 	add	r1, r1, #16	; 0x10
    7b48:	e28cc010 	add	ip, ip, #16	; 0x10
    7b4c:	8afffff2 	bhi	7b1c <memmove+0xa8>
    7b50:	e2442010 	sub	r2, r4, #16	; 0x10
    7b54:	e1a03222 	lsr	r3, r2, #4
    7b58:	e0421203 	sub	r1, r2, r3, lsl #4
    7b5c:	e2833001 	add	r3, r3, #1	; 0x1
    7b60:	e1a03203 	lsl	r3, r3, #4
    7b64:	e3510003 	cmp	r1, #3	; 0x3
    7b68:	e0855003 	add	r5, r5, r3
    7b6c:	e0864003 	add	r4, r6, r3
    7b70:	9a00000d 	bls	7bac <memmove+0x138>
    7b74:	e3a0c000 	mov	ip, #0	; 0x0
    7b78:	e795300c 	ldr	r3, [r5, ip]
    7b7c:	e784300c 	str	r3, [r4, ip]
    7b80:	e28cc004 	add	ip, ip, #4	; 0x4
    7b84:	e06c3001 	rsb	r3, ip, r1
    7b88:	e3530003 	cmp	r3, #3	; 0x3
    7b8c:	8afffff9 	bhi	7b78 <memmove+0x104>
    7b90:	e2411004 	sub	r1, r1, #4	; 0x4
    7b94:	e1a02121 	lsr	r2, r1, #2
    7b98:	e2823001 	add	r3, r2, #1	; 0x1
    7b9c:	e1a03103 	lsl	r3, r3, #2
    7ba0:	e0844003 	add	r4, r4, r3
    7ba4:	e0411102 	sub	r1, r1, r2, lsl #2
    7ba8:	e0855003 	add	r5, r5, r3
    7bac:	e1a00004 	mov	r0, r4
    7bb0:	e1a02005 	mov	r2, r5
    7bb4:	eaffffc9 	b	7ae0 <memmove+0x6c>

00007bb8 <_realloc_r>:
    7bb8:	e92d4ff0 	push	{r4, r5, r6, r7, r8, r9, sl, fp, lr}
    7bbc:	e251b000 	subs	fp, r1, #0	; 0x0
    7bc0:	e24dd008 	sub	sp, sp, #8	; 0x8
    7bc4:	e1a06002 	mov	r6, r2
    7bc8:	e58d0004 	str	r0, [sp, #4]
    7bcc:	0a0000cd 	beq	7f08 <_realloc_r+0x350>
    7bd0:	ebfff5a6 	bl	5270 <__malloc_lock>
    7bd4:	e286200b 	add	r2, r6, #11	; 0xb
    7bd8:	e3520016 	cmp	r2, #22	; 0x16
    7bdc:	83c2a007 	bichi	sl, r2, #7	; 0x7
    7be0:	93a0a010 	movls	sl, #16	; 0x10
    7be4:	93a03000 	movls	r3, #0	; 0x0
    7be8:	81a03faa 	lsrhi	r3, sl, #31
    7bec:	e24b4008 	sub	r4, fp, #8	; 0x8
    7bf0:	91a0700a 	movls	r7, sl
    7bf4:	81a0700a 	movhi	r7, sl
    7bf8:	e594c004 	ldr	ip, [r4, #4]
    7bfc:	e15a0006 	cmp	sl, r6
    7c00:	21a0e003 	movcs	lr, r3
    7c04:	3383e001 	orrcc	lr, r3, #1	; 0x1
    7c08:	e35e0000 	cmp	lr, #0	; 0x0
    7c0c:	e1a0100c 	mov	r1, ip
    7c10:	1a0000e1 	bne	7f9c <_realloc_r+0x3e4>
    7c14:	e3cc5003 	bic	r5, ip, #3	; 0x3
    7c18:	e1550007 	cmp	r5, r7
    7c1c:	a1a09005 	movge	r9, r5
    7c20:	aa00004d 	bge	7d5c <_realloc_r+0x1a4>
    7c24:	e59f3498 	ldr	r3, [pc, #1176]	; 80c4 <_realloc_r+0x50c>
    7c28:	e5938008 	ldr	r8, [r3, #8]
    7c2c:	e0840005 	add	r0, r4, r5
    7c30:	e1580000 	cmp	r8, r0
    7c34:	0a0000b7 	beq	7f18 <_realloc_r+0x360>
    7c38:	e5901004 	ldr	r1, [r0, #4]
    7c3c:	e3c13001 	bic	r3, r1, #1	; 0x1
    7c40:	e0803003 	add	r3, r0, r3
    7c44:	e5932004 	ldr	r2, [r3, #4]
    7c48:	e3120001 	tst	r2, #1	; 0x1
    7c4c:	0a000060 	beq	7dd4 <_realloc_r+0x21c>
    7c50:	e1a0000e 	mov	r0, lr
    7c54:	e1a0100e 	mov	r1, lr
    7c58:	e31c0001 	tst	ip, #1	; 0x1
    7c5c:	1a00006c 	bne	7e14 <_realloc_r+0x25c>
    7c60:	e51b3008 	ldr	r3, [fp, #-8]
    7c64:	e063c004 	rsb	ip, r3, r4
    7c68:	e59c2004 	ldr	r2, [ip, #4]
    7c6c:	e3500000 	cmp	r0, #0	; 0x0
    7c70:	e3c22003 	bic	r2, r2, #3	; 0x3
    7c74:	0a000063 	beq	7e08 <_realloc_r+0x250>
    7c78:	e1500008 	cmp	r0, r8
    7c7c:	0a0000cb 	beq	7fb0 <_realloc_r+0x3f8>
    7c80:	e0822005 	add	r2, r2, r5
    7c84:	e0819002 	add	r9, r1, r2
    7c88:	e1590007 	cmp	r9, r7
    7c8c:	b1a09002 	movlt	r9, r2
    7c90:	ba00005d 	blt	7e0c <_realloc_r+0x254>
    7c94:	e2802008 	add	r2, r0, #8	; 0x8
    7c98:	e892000c 	ldm	r2, {r2, r3}
    7c9c:	e5832008 	str	r2, [r3, #8]
    7ca0:	e582300c 	str	r3, [r2, #12]
    7ca4:	e1a0000c 	mov	r0, ip
    7ca8:	e59c200c 	ldr	r2, [ip, #12]
    7cac:	e5b03008 	ldr	r3, [r0, #8]!
    7cb0:	e2455004 	sub	r5, r5, #4	; 0x4
    7cb4:	e3550024 	cmp	r5, #36	; 0x24
    7cb8:	e5823008 	str	r3, [r2, #8]
    7cbc:	e583200c 	str	r2, [r3, #12]
    7cc0:	8a0000ad 	bhi	7f7c <_realloc_r+0x3c4>
    7cc4:	e3550013 	cmp	r5, #19	; 0x13
    7cc8:	e1a04000 	mov	r4, r0
    7ccc:	e1a0e00b 	mov	lr, fp
    7cd0:	9a000017 	bls	7d34 <_realloc_r+0x17c>
    7cd4:	e59b3000 	ldr	r3, [fp]
    7cd8:	e58c3008 	str	r3, [ip, #8]
    7cdc:	e59b2004 	ldr	r2, [fp, #4]
    7ce0:	e28b3004 	add	r3, fp, #4	; 0x4
    7ce4:	e355001b 	cmp	r5, #27	; 0x1b
    7ce8:	e58c200c 	str	r2, [ip, #12]
    7cec:	e28c4010 	add	r4, ip, #16	; 0x10
    7cf0:	e283e004 	add	lr, r3, #4	; 0x4
    7cf4:	9a00000e 	bls	7d34 <_realloc_r+0x17c>
    7cf8:	e5933004 	ldr	r3, [r3, #4]
    7cfc:	e58c3010 	str	r3, [ip, #16]
    7d00:	e59e2004 	ldr	r2, [lr, #4]
    7d04:	e28e3004 	add	r3, lr, #4	; 0x4
    7d08:	e3550024 	cmp	r5, #36	; 0x24
    7d0c:	e58c2014 	str	r2, [ip, #20]
    7d10:	e28c4018 	add	r4, ip, #24	; 0x18
    7d14:	e283e004 	add	lr, r3, #4	; 0x4
    7d18:	1a000005 	bne	7d34 <_realloc_r+0x17c>
    7d1c:	e5933004 	ldr	r3, [r3, #4]
    7d20:	e58c3018 	str	r3, [ip, #24]
    7d24:	e59e2004 	ldr	r2, [lr, #4]
    7d28:	e58c201c 	str	r2, [ip, #28]
    7d2c:	e28ee008 	add	lr, lr, #8	; 0x8
    7d30:	e28c4020 	add	r4, ip, #32	; 0x20
    7d34:	e1a0000e 	mov	r0, lr
    7d38:	e4902004 	ldr	r2, [r0], #4
    7d3c:	e1a01004 	mov	r1, r4
    7d40:	e4812004 	str	r2, [r1], #4
    7d44:	e59e3004 	ldr	r3, [lr, #4]
    7d48:	e5843004 	str	r3, [r4, #4]
    7d4c:	e5902004 	ldr	r2, [r0, #4]
    7d50:	e5812004 	str	r2, [r1, #4]
    7d54:	e59c1004 	ldr	r1, [ip, #4]
    7d58:	e1a0400c 	mov	r4, ip
    7d5c:	e06a0009 	rsb	r0, sl, r9
    7d60:	e350000f 	cmp	r0, #15	; 0xf
    7d64:	8a00000c 	bhi	7d9c <_realloc_r+0x1e4>
    7d68:	e2013001 	and	r3, r1, #1	; 0x1
    7d6c:	e1833009 	orr	r3, r3, r9
    7d70:	e5843004 	str	r3, [r4, #4]
    7d74:	e0842009 	add	r2, r4, r9
    7d78:	e5923004 	ldr	r3, [r2, #4]
    7d7c:	e3833001 	orr	r3, r3, #1	; 0x1
    7d80:	e5823004 	str	r3, [r2, #4]
    7d84:	e59d0004 	ldr	r0, [sp, #4]
    7d88:	ebfff539 	bl	5274 <__malloc_unlock>
    7d8c:	e2846008 	add	r6, r4, #8	; 0x8
    7d90:	e1a00006 	mov	r0, r6
    7d94:	e28dd008 	add	sp, sp, #8	; 0x8
    7d98:	e8bd8ff0 	pop	{r4, r5, r6, r7, r8, r9, sl, fp, pc}
    7d9c:	e2013001 	and	r3, r1, #1	; 0x1
    7da0:	e183300a 	orr	r3, r3, sl
    7da4:	e084100a 	add	r1, r4, sl
    7da8:	e3802001 	orr	r2, r0, #1	; 0x1
    7dac:	e5843004 	str	r3, [r4, #4]
    7db0:	e5812004 	str	r2, [r1, #4]
    7db4:	e0810000 	add	r0, r1, r0
    7db8:	e5903004 	ldr	r3, [r0, #4]
    7dbc:	e3833001 	orr	r3, r3, #1	; 0x1
    7dc0:	e5803004 	str	r3, [r0, #4]
    7dc4:	e2811008 	add	r1, r1, #8	; 0x8
    7dc8:	e59d0004 	ldr	r0, [sp, #4]
    7dcc:	ebfffc8d 	bl	7008 <_free_r>
    7dd0:	eaffffeb 	b	7d84 <_realloc_r+0x1cc>
    7dd4:	e3c11003 	bic	r1, r1, #3	; 0x3
    7dd8:	e0819005 	add	r9, r1, r5
    7ddc:	e1590007 	cmp	r9, r7
    7de0:	baffff9c 	blt	7c58 <_realloc_r+0xa0>
    7de4:	e2802008 	add	r2, r0, #8	; 0x8
    7de8:	e892000c 	ldm	r2, {r2, r3}
    7dec:	e06a0009 	rsb	r0, sl, r9
    7df0:	e350000f 	cmp	r0, #15	; 0xf
    7df4:	e5832008 	str	r2, [r3, #8]
    7df8:	e582300c 	str	r3, [r2, #12]
    7dfc:	e1a0100c 	mov	r1, ip
    7e00:	9affffd8 	bls	7d68 <_realloc_r+0x1b0>
    7e04:	eaffffe4 	b	7d9c <_realloc_r+0x1e4>
    7e08:	e0829005 	add	r9, r2, r5
    7e0c:	e1590007 	cmp	r9, r7
    7e10:	aaffffa3 	bge	7ca4 <_realloc_r+0xec>
    7e14:	e1a01006 	mov	r1, r6
    7e18:	e59d0004 	ldr	r0, [sp, #4]
    7e1c:	ebfff2a8 	bl	48c4 <_malloc_r>
    7e20:	e2506000 	subs	r6, r0, #0	; 0x0
    7e24:	0a000034 	beq	7efc <_realloc_r+0x344>
    7e28:	e5941004 	ldr	r1, [r4, #4]
    7e2c:	e3c13001 	bic	r3, r1, #1	; 0x1
    7e30:	e0843003 	add	r3, r4, r3
    7e34:	e2462008 	sub	r2, r6, #8	; 0x8
    7e38:	e1520003 	cmp	r2, r3
    7e3c:	05923004 	ldreq	r3, [r2, #4]
    7e40:	03c33003 	biceq	r3, r3, #3	; 0x3
    7e44:	00839005 	addeq	r9, r3, r5
    7e48:	0affffc3 	beq	7d5c <_realloc_r+0x1a4>
    7e4c:	e2451004 	sub	r1, r5, #4	; 0x4
    7e50:	e3510024 	cmp	r1, #36	; 0x24
    7e54:	8a000044 	bhi	7f6c <_realloc_r+0x3b4>
    7e58:	e3510013 	cmp	r1, #19	; 0x13
    7e5c:	e1a0c00b 	mov	ip, fp
    7e60:	e1a0e006 	mov	lr, r6
    7e64:	9a000019 	bls	7ed0 <_realloc_r+0x318>
    7e68:	e1a0400b 	mov	r4, fp
    7e6c:	e4943004 	ldr	r3, [r4], #4
    7e70:	e1a00006 	mov	r0, r6
    7e74:	e4803004 	str	r3, [r0], #4
    7e78:	e59b2004 	ldr	r2, [fp, #4]
    7e7c:	e351001b 	cmp	r1, #27	; 0x1b
    7e80:	e5862004 	str	r2, [r6, #4]
    7e84:	e280e004 	add	lr, r0, #4	; 0x4
    7e88:	e284c004 	add	ip, r4, #4	; 0x4
    7e8c:	9a00000f 	bls	7ed0 <_realloc_r+0x318>
    7e90:	e5943004 	ldr	r3, [r4, #4]
    7e94:	e5803004 	str	r3, [r0, #4]
    7e98:	e59c2004 	ldr	r2, [ip, #4]
    7e9c:	e3510024 	cmp	r1, #36	; 0x24
    7ea0:	e28c3004 	add	r3, ip, #4	; 0x4
    7ea4:	e28e1004 	add	r1, lr, #4	; 0x4
    7ea8:	e58e2004 	str	r2, [lr, #4]
    7eac:	e283c004 	add	ip, r3, #4	; 0x4
    7eb0:	e281e004 	add	lr, r1, #4	; 0x4
    7eb4:	1a000005 	bne	7ed0 <_realloc_r+0x318>
    7eb8:	e5933004 	ldr	r3, [r3, #4]
    7ebc:	e5813004 	str	r3, [r1, #4]
    7ec0:	e59c2004 	ldr	r2, [ip, #4]
    7ec4:	e28cc008 	add	ip, ip, #8	; 0x8
    7ec8:	e58e2004 	str	r2, [lr, #4]
    7ecc:	e28ee008 	add	lr, lr, #8	; 0x8
    7ed0:	e1a0000c 	mov	r0, ip
    7ed4:	e4902004 	ldr	r2, [r0], #4
    7ed8:	e1a0100e 	mov	r1, lr
    7edc:	e4812004 	str	r2, [r1], #4
    7ee0:	e59c3004 	ldr	r3, [ip, #4]
    7ee4:	e58e3004 	str	r3, [lr, #4]
    7ee8:	e5902004 	ldr	r2, [r0, #4]
    7eec:	e5812004 	str	r2, [r1, #4]
    7ef0:	e1a0100b 	mov	r1, fp
    7ef4:	e59d0004 	ldr	r0, [sp, #4]
    7ef8:	ebfffc42 	bl	7008 <_free_r>
    7efc:	e59d0004 	ldr	r0, [sp, #4]
    7f00:	ebfff4db 	bl	5274 <__malloc_unlock>
    7f04:	eaffffa1 	b	7d90 <_realloc_r+0x1d8>
    7f08:	e1a01002 	mov	r1, r2
    7f0c:	e28dd008 	add	sp, sp, #8	; 0x8
    7f10:	e8bd4ff0 	pop	{r4, r5, r6, r7, r8, r9, sl, fp, lr}
    7f14:	eafff26a 	b	48c4 <_malloc_r>
    7f18:	e5983004 	ldr	r3, [r8, #4]
    7f1c:	e3c31003 	bic	r1, r3, #3	; 0x3
    7f20:	e0812005 	add	r2, r1, r5
    7f24:	e28a3010 	add	r3, sl, #16	; 0x10
    7f28:	e1520003 	cmp	r2, r3
    7f2c:	b1a00008 	movlt	r0, r8
    7f30:	baffff48 	blt	7c58 <_realloc_r+0xa0>
    7f34:	e06a3002 	rsb	r3, sl, r2
    7f38:	e084100a 	add	r1, r4, sl
    7f3c:	e3833001 	orr	r3, r3, #1	; 0x1
    7f40:	e5813004 	str	r3, [r1, #4]
    7f44:	e5942004 	ldr	r2, [r4, #4]
    7f48:	e2022001 	and	r2, r2, #1	; 0x1
    7f4c:	e18a2002 	orr	r2, sl, r2
    7f50:	e5842004 	str	r2, [r4, #4]
    7f54:	e59f2168 	ldr	r2, [pc, #360]	; 80c4 <_realloc_r+0x50c>
    7f58:	e59d0004 	ldr	r0, [sp, #4]
    7f5c:	e5821008 	str	r1, [r2, #8]
    7f60:	e2846008 	add	r6, r4, #8	; 0x8
    7f64:	ebfff4c2 	bl	5274 <__malloc_unlock>
    7f68:	eaffff88 	b	7d90 <_realloc_r+0x1d8>
    7f6c:	e1a02001 	mov	r2, r1
    7f70:	e1a0100b 	mov	r1, fp
    7f74:	ebfffebe 	bl	7a74 <memmove>
    7f78:	eaffffdc 	b	7ef0 <_realloc_r+0x338>
    7f7c:	e1a0100b 	mov	r1, fp
    7f80:	e1a02005 	mov	r2, r5
    7f84:	e58dc000 	str	ip, [sp]
    7f88:	ebfffeb9 	bl	7a74 <memmove>
    7f8c:	e59dc000 	ldr	ip, [sp]
    7f90:	e1a0400c 	mov	r4, ip
    7f94:	e59c1004 	ldr	r1, [ip, #4]
    7f98:	eaffff6f 	b	7d5c <_realloc_r+0x1a4>
    7f9c:	e59d2004 	ldr	r2, [sp, #4]
    7fa0:	e3a0300c 	mov	r3, #12	; 0xc
    7fa4:	e5823000 	str	r3, [r2]
    7fa8:	e3a06000 	mov	r6, #0	; 0x0
    7fac:	eaffff77 	b	7d90 <_realloc_r+0x1d8>
    7fb0:	e0829005 	add	r9, r2, r5
    7fb4:	e0818009 	add	r8, r1, r9
    7fb8:	e28a3010 	add	r3, sl, #16	; 0x10
    7fbc:	e1580003 	cmp	r8, r3
    7fc0:	baffff91 	blt	7e0c <_realloc_r+0x254>
    7fc4:	e1a0600c 	mov	r6, ip
    7fc8:	e59c200c 	ldr	r2, [ip, #12]
    7fcc:	e5b63008 	ldr	r3, [r6, #8]!
    7fd0:	e2450004 	sub	r0, r5, #4	; 0x4
    7fd4:	e3500024 	cmp	r0, #36	; 0x24
    7fd8:	e5823008 	str	r3, [r2, #8]
    7fdc:	e583200c 	str	r2, [r3, #12]
    7fe0:	8a000030 	bhi	80a8 <_realloc_r+0x4f0>
    7fe4:	e3500013 	cmp	r0, #19	; 0x13
    7fe8:	e1a0e00b 	mov	lr, fp
    7fec:	e1a04006 	mov	r4, r6
    7ff0:	9a000017 	bls	8054 <_realloc_r+0x49c>
    7ff4:	e59b3000 	ldr	r3, [fp]
    7ff8:	e58c3008 	str	r3, [ip, #8]
    7ffc:	e59b2004 	ldr	r2, [fp, #4]
    8000:	e28b3004 	add	r3, fp, #4	; 0x4
    8004:	e350001b 	cmp	r0, #27	; 0x1b
    8008:	e58c200c 	str	r2, [ip, #12]
    800c:	e28c4010 	add	r4, ip, #16	; 0x10
    8010:	e283e004 	add	lr, r3, #4	; 0x4
    8014:	9a00000e 	bls	8054 <_realloc_r+0x49c>
    8018:	e5933004 	ldr	r3, [r3, #4]
    801c:	e58c3010 	str	r3, [ip, #16]
    8020:	e59e2004 	ldr	r2, [lr, #4]
    8024:	e28e3004 	add	r3, lr, #4	; 0x4
    8028:	e3500024 	cmp	r0, #36	; 0x24
    802c:	e58c2014 	str	r2, [ip, #20]
    8030:	e28c4018 	add	r4, ip, #24	; 0x18
    8034:	e283e004 	add	lr, r3, #4	; 0x4
    8038:	1a000005 	bne	8054 <_realloc_r+0x49c>
    803c:	e5933004 	ldr	r3, [r3, #4]
    8040:	e58c3018 	str	r3, [ip, #24]
    8044:	e59e2004 	ldr	r2, [lr, #4]
    8048:	e58c201c 	str	r2, [ip, #28]
    804c:	e28ee008 	add	lr, lr, #8	; 0x8
    8050:	e28c4020 	add	r4, ip, #32	; 0x20
    8054:	e1a0000e 	mov	r0, lr
    8058:	e4902004 	ldr	r2, [r0], #4
    805c:	e1a01004 	mov	r1, r4
    8060:	e4812004 	str	r2, [r1], #4
    8064:	e59e3004 	ldr	r3, [lr, #4]
    8068:	e5843004 	str	r3, [r4, #4]
    806c:	e5902004 	ldr	r2, [r0, #4]
    8070:	e5812004 	str	r2, [r1, #4]
    8074:	e06a3008 	rsb	r3, sl, r8
    8078:	e08c100a 	add	r1, ip, sl
    807c:	e3833001 	orr	r3, r3, #1	; 0x1
    8080:	e5813004 	str	r3, [r1, #4]
    8084:	e59c2004 	ldr	r2, [ip, #4]
    8088:	e59f3034 	ldr	r3, [pc, #52]	; 80c4 <_realloc_r+0x50c>
    808c:	e2022001 	and	r2, r2, #1	; 0x1
    8090:	e18a2002 	orr	r2, sl, r2
    8094:	e58c2004 	str	r2, [ip, #4]
    8098:	e59d0004 	ldr	r0, [sp, #4]
    809c:	e5831008 	str	r1, [r3, #8]
    80a0:	ebfff473 	bl	5274 <__malloc_unlock>
    80a4:	eaffff39 	b	7d90 <_realloc_r+0x1d8>
    80a8:	e1a02000 	mov	r2, r0
    80ac:	e1a0100b 	mov	r1, fp
    80b0:	e1a00006 	mov	r0, r6
    80b4:	e58dc000 	str	ip, [sp]
    80b8:	ebfffe6d 	bl	7a74 <memmove>
    80bc:	e59dc000 	ldr	ip, [sp]
    80c0:	eaffffeb 	b	8074 <_realloc_r+0x4bc>
    80c4:	40000048 	.word	0x40000048

000080c8 <__sclose>:
    80c8:	e1d110fe 	ldrsh	r1, [r1, #14]
    80cc:	eaffe792 	b	1f1c <_close_r>

000080d0 <__sseek>:
    80d0:	e92d4010 	push	{r4, lr}
    80d4:	e1a04001 	mov	r4, r1
    80d8:	e1d110fe 	ldrsh	r1, [r1, #14]
    80dc:	ebffe790 	bl	1f24 <_lseek_r>
    80e0:	e3700001 	cmn	r0, #1	; 0x1
    80e4:	01d430bc 	ldrheq	r3, [r4, #12]
    80e8:	11d430bc 	ldrhne	r3, [r4, #12]
    80ec:	03c33a01 	biceq	r3, r3, #4096	; 0x1000
    80f0:	13833a01 	orrne	r3, r3, #4096	; 0x1000
    80f4:	01c430bc 	strheq	r3, [r4, #12]
    80f8:	11c430bc 	strhne	r3, [r4, #12]
    80fc:	15840050 	strne	r0, [r4, #80]
    8100:	e8bd8010 	pop	{r4, pc}

00008104 <__swrite>:
    8104:	e92d40f0 	push	{r4, r5, r6, r7, lr}
    8108:	e1a04001 	mov	r4, r1
    810c:	e1d110bc 	ldrh	r1, [r1, #12]
    8110:	e3110c01 	tst	r1, #256	; 0x100
    8114:	e1a06002 	mov	r6, r2
    8118:	e1a07003 	mov	r7, r3
    811c:	e1a05000 	mov	r5, r0
    8120:	0a000004 	beq	8138 <__swrite+0x34>
    8124:	e1d410fe 	ldrsh	r1, [r4, #14]
    8128:	e3a02000 	mov	r2, #0	; 0x0
    812c:	e3a03002 	mov	r3, #2	; 0x2
    8130:	ebffe77b 	bl	1f24 <_lseek_r>
    8134:	e1d410bc 	ldrh	r1, [r4, #12]
    8138:	e3c13a01 	bic	r3, r1, #4096	; 0x1000
    813c:	e1d410fe 	ldrsh	r1, [r4, #14]
    8140:	e1c430bc 	strh	r3, [r4, #12]
    8144:	e1a00005 	mov	r0, r5
    8148:	e1a02006 	mov	r2, r6
    814c:	e1a03007 	mov	r3, r7
    8150:	e8bd40f0 	pop	{r4, r5, r6, r7, lr}
    8154:	eaffe784 	b	1f6c <_write_r>

00008158 <__sread>:
    8158:	e92d4010 	push	{r4, lr}
    815c:	e1a04001 	mov	r4, r1
    8160:	e1d110fe 	ldrsh	r1, [r1, #14]
    8164:	ebffe78f 	bl	1fa8 <_read_r>
    8168:	e3500000 	cmp	r0, #0	; 0x0
    816c:	a5943050 	ldrge	r3, [r4, #80]
    8170:	b1d430bc 	ldrhlt	r3, [r4, #12]
    8174:	a0833000 	addge	r3, r3, r0
    8178:	b3c33a01 	biclt	r3, r3, #4096	; 0x1000
    817c:	a5843050 	strge	r3, [r4, #80]
    8180:	b1c430bc 	strhlt	r3, [r4, #12]
    8184:	e8bd8010 	pop	{r4, pc}

00008188 <initialise_monitor_handles>:
    8188:	e92d47f0 	push	{r4, r5, r6, r7, r8, r9, sl, lr}
    818c:	e59f7094 	ldr	r7, [pc, #148]	; 8228 <initialise_monitor_handles+0xa0>
    8190:	e24dd00c 	sub	sp, sp, #12	; 0xc
    8194:	e3a08003 	mov	r8, #3	; 0x3
    8198:	e3a0a000 	mov	sl, #0	; 0x0
    819c:	e58d7000 	str	r7, [sp]
    81a0:	e3a06001 	mov	r6, #1	; 0x1
    81a4:	e58d8008 	str	r8, [sp, #8]
    81a8:	e58da004 	str	sl, [sp, #4]
    81ac:	e1a00006 	mov	r0, r6
    81b0:	e1a0100d 	mov	r1, sp
    81b4:	ef123456 	svc	0x00123456
    81b8:	e1a04000 	mov	r4, r0
    81bc:	e59f9068 	ldr	r9, [pc, #104]	; 822c <initialise_monitor_handles+0xa4>
    81c0:	e5894000 	str	r4, [r9]
    81c4:	e3a04004 	mov	r4, #4	; 0x4
    81c8:	e58d7000 	str	r7, [sp]
    81cc:	e58d8008 	str	r8, [sp, #8]
    81d0:	e58d4004 	str	r4, [sp, #4]
    81d4:	e1a00006 	mov	r0, r6
    81d8:	e1a0100d 	mov	r1, sp
    81dc:	ef123456 	svc	0x00123456
    81e0:	e1a05000 	mov	r5, r0
    81e4:	e59f4044 	ldr	r4, [pc, #68]	; 8230 <initialise_monitor_handles+0xa8>
    81e8:	e59f3044 	ldr	r3, [pc, #68]	; 8234 <initialise_monitor_handles+0xac>
    81ec:	e5845000 	str	r5, [r4]
    81f0:	e59f2040 	ldr	r2, [pc, #64]	; 8238 <initialise_monitor_handles+0xb0>
    81f4:	e5835000 	str	r5, [r3]
    81f8:	e3e03000 	mvn	r3, #0	; 0x0
    81fc:	e782300a 	str	r3, [r2, sl]
    8200:	e28aa008 	add	sl, sl, #8	; 0x8
    8204:	e35a00a0 	cmp	sl, #160	; 0xa0
    8208:	e59f1028 	ldr	r1, [pc, #40]	; 8238 <initialise_monitor_handles+0xb0>
    820c:	1afffffa 	bne	81fc <initialise_monitor_handles+0x74>
    8210:	e5992000 	ldr	r2, [r9]
    8214:	e3a03000 	mov	r3, #0	; 0x0
    8218:	e581300c 	str	r3, [r1, #12]
    821c:	e881002c 	stm	r1, {r2, r3, r5}
    8220:	e28dd00c 	add	sp, sp, #12	; 0xc
    8224:	e8bd87f0 	pop	{r4, r5, r6, r7, r8, r9, sl, pc}
    8228:	00009388 	.word	0x00009388
    822c:	400009b4 	.word	0x400009b4
    8230:	400009bc 	.word	0x400009bc
    8234:	400009b8 	.word	0x400009b8
    8238:	400009c0 	.word	0x400009c0

0000823c <_kill>:
    823c:	e3510006 	cmp	r1, #6	; 0x6
    8240:	e92d4030 	push	{r4, r5, lr}
    8244:	0a000008 	beq	826c <_kill+0x30>
    8248:	e3a04802 	mov	r4, #131072	; 0x20000
    824c:	e2844026 	add	r4, r4, #38	; 0x26
    8250:	e3a05018 	mov	r5, #24	; 0x18
    8254:	e1a00005 	mov	r0, r5
    8258:	e1a01004 	mov	r1, r4
    825c:	ef123456 	svc	0x00123456
    8260:	e1a04000 	mov	r4, r0
    8264:	e1a00004 	mov	r0, r4
    8268:	e8bd8030 	pop	{r4, r5, pc}
    826c:	e3a04802 	mov	r4, #131072	; 0x20000
    8270:	e2844023 	add	r4, r4, #35	; 0x23
    8274:	e3a05018 	mov	r5, #24	; 0x18
    8278:	e1a00005 	mov	r0, r5
    827c:	e1a01004 	mov	r1, r4
    8280:	ef123456 	svc	0x00123456
    8284:	e1a04000 	mov	r4, r0
    8288:	e1a00004 	mov	r0, r4
    828c:	e8bd8030 	pop	{r4, r5, pc}

00008290 <_exit>:
    8290:	e3a04802 	mov	r4, #131072	; 0x20000
    8294:	e2844026 	add	r4, r4, #38	; 0x26
    8298:	e3a05018 	mov	r5, #24	; 0x18
    829c:	e1a00005 	mov	r0, r5
    82a0:	e1a01004 	mov	r1, r4
    82a4:	ef123456 	svc	0x00123456
    82a8:	e1a04000 	mov	r4, r0
    82ac:	e12fff1e 	bx	lr

000082b0 <_getpid>:
    82b0:	e3a00001 	mov	r0, #1	; 0x1
    82b4:	e12fff1e 	bx	lr

000082b8 <_link>:
    82b8:	e3e00000 	mvn	r0, #0	; 0x0
    82bc:	e12fff1e 	bx	lr

000082c0 <_raise>:
    82c0:	e12fff1e 	bx	lr

000082c4 <_gettimeofday>:
    82c4:	e92d40f0 	push	{r4, r5, r6, r7, lr}
    82c8:	e2507000 	subs	r7, r0, #0	; 0x0
    82cc:	e1a06001 	mov	r6, r1
    82d0:	0a000006 	beq	82f0 <_gettimeofday+0x2c>
    82d4:	e3a05000 	mov	r5, #0	; 0x0
    82d8:	e3a04011 	mov	r4, #17	; 0x11
    82dc:	e1a00004 	mov	r0, r4
    82e0:	e1a01005 	mov	r1, r5
    82e4:	ef123456 	svc	0x00123456
    82e8:	e1a04000 	mov	r4, r0
    82ec:	e8870030 	stm	r7, {r4, r5}
    82f0:	e3560000 	cmp	r6, #0	; 0x0
    82f4:	13a03000 	movne	r3, #0	; 0x0
    82f8:	15863004 	strne	r3, [r6, #4]
    82fc:	15863000 	strne	r3, [r6]
    8300:	e3a00000 	mov	r0, #0	; 0x0
    8304:	e8bd80f0 	pop	{r4, r5, r6, r7, pc}

00008308 <_times>:
    8308:	e92d4070 	push	{r4, r5, r6, lr}
    830c:	e1a05000 	mov	r5, r0
    8310:	e3a06000 	mov	r6, #0	; 0x0
    8314:	e3a04010 	mov	r4, #16	; 0x10
    8318:	e1a00004 	mov	r0, r4
    831c:	e1a01006 	mov	r1, r6
    8320:	ef123456 	svc	0x00123456
    8324:	e1a04000 	mov	r4, r0
    8328:	e1550006 	cmp	r5, r6
    832c:	1585600c 	strne	r6, [r5, #12]
    8330:	15854000 	strne	r4, [r5]
    8334:	15856004 	strne	r6, [r5, #4]
    8338:	15856008 	strne	r6, [r5, #8]
    833c:	e1a00004 	mov	r0, r4
    8340:	e8bd8070 	pop	{r4, r5, r6, pc}

00008344 <wrap>:
    8344:	e3700001 	cmn	r0, #1	; 0x1
    8348:	e92d40f0 	push	{r4, r5, r6, r7, lr}
    834c:	e1a07000 	mov	r7, r0
    8350:	0a000001 	beq	835c <wrap+0x18>
    8354:	e1a00007 	mov	r0, r7
    8358:	e8bd80f0 	pop	{r4, r5, r6, r7, pc}
    835c:	eb0001c4 	bl	8a74 <__errno>
    8360:	e3a05000 	mov	r5, #0	; 0x0
    8364:	e1a06000 	mov	r6, r0
    8368:	e3a04013 	mov	r4, #19	; 0x13
    836c:	e1a00004 	mov	r0, r4
    8370:	e1a01005 	mov	r1, r5
    8374:	ef123456 	svc	0x00123456
    8378:	e1a04000 	mov	r4, r0
    837c:	e5864000 	str	r4, [r6]
    8380:	eafffff3 	b	8354 <wrap+0x10>

00008384 <_rename>:
    8384:	e92d4030 	push	{r4, r5, lr}
    8388:	e24dd010 	sub	sp, sp, #16	; 0x10
    838c:	e1a04001 	mov	r4, r1
    8390:	e58d0000 	str	r0, [sp]
    8394:	ebfff452 	bl	54e4 <strlen>
    8398:	e58d0004 	str	r0, [sp, #4]
    839c:	e1a00004 	mov	r0, r4
    83a0:	e58d4008 	str	r4, [sp, #8]
    83a4:	ebfff44e 	bl	54e4 <strlen>
    83a8:	e3a0400f 	mov	r4, #15	; 0xf
    83ac:	e58d000c 	str	r0, [sp, #12]
    83b0:	e1a0500d 	mov	r5, sp
    83b4:	e1a00004 	mov	r0, r4
    83b8:	e1a0100d 	mov	r1, sp
    83bc:	ef123456 	svc	0x00123456
    83c0:	e1a04000 	mov	r4, r0
    83c4:	e1a00004 	mov	r0, r4
    83c8:	ebffffdd 	bl	8344 <wrap>
    83cc:	e3500000 	cmp	r0, #0	; 0x0
    83d0:	13e00000 	mvnne	r0, #0	; 0x0
    83d4:	e28dd010 	add	sp, sp, #16	; 0x10
    83d8:	e8bd8030 	pop	{r4, r5, pc}

000083dc <_system>:
    83dc:	e92d4030 	push	{r4, r5, lr}
    83e0:	e2503000 	subs	r3, r0, #0	; 0x0
    83e4:	e24dd008 	sub	sp, sp, #8	; 0x8
    83e8:	02800001 	addeq	r0, r0, #1	; 0x1
    83ec:	0a00001a 	beq	845c <_system+0x80>
    83f0:	e58d3000 	str	r3, [sp]
    83f4:	ebfff43a 	bl	54e4 <strlen>
    83f8:	e3a04012 	mov	r4, #18	; 0x12
    83fc:	e58d0004 	str	r0, [sp, #4]
    8400:	e1a0500d 	mov	r5, sp
    8404:	e1a00004 	mov	r0, r4
    8408:	e1a0100d 	mov	r1, sp
    840c:	ef123456 	svc	0x00123456
    8410:	e1a04000 	mov	r4, r0
    8414:	e1a00004 	mov	r0, r4
    8418:	ebffffc9 	bl	8344 <wrap>
    841c:	e35000ff 	cmp	r0, #255	; 0xff
    8420:	e1a02000 	mov	r2, r0
    8424:	8a00000e 	bhi	8464 <_system+0x88>
    8428:	e3500000 	cmp	r0, #0	; 0x0
    842c:	0a00000c 	beq	8464 <_system+0x88>
    8430:	e1a03440 	asr	r3, r0, #8
    8434:	e20330ff 	and	r3, r3, #255	; 0xff
    8438:	e1500003 	cmp	r0, r3
    843c:	1a000002 	bne	844c <_system+0x70>
    8440:	ea000007 	b	8464 <_system+0x88>
    8444:	e1520003 	cmp	r2, r3
    8448:	0a000003 	beq	845c <_system+0x80>
    844c:	e1b00080 	lsls	r0, r0, #1
    8450:	e1a03440 	asr	r3, r0, #8
    8454:	e20330ff 	and	r3, r3, #255	; 0xff
    8458:	1afffff9 	bne	8444 <_system+0x68>
    845c:	e28dd008 	add	sp, sp, #8	; 0x8
    8460:	e8bd8030 	pop	{r4, r5, pc}
    8464:	e1a00002 	mov	r0, r2
    8468:	eafffffb 	b	845c <_system+0x80>

0000846c <_unlink>:
    846c:	e92d4030 	push	{r4, r5, lr}
    8470:	e24dd008 	sub	sp, sp, #8	; 0x8
    8474:	e58d0000 	str	r0, [sp]
    8478:	ebfff419 	bl	54e4 <strlen>
    847c:	e3a0500e 	mov	r5, #14	; 0xe
    8480:	e58d0004 	str	r0, [sp, #4]
    8484:	e1a0400d 	mov	r4, sp
    8488:	e1a00005 	mov	r0, r5
    848c:	e1a0100d 	mov	r1, sp
    8490:	ef123456 	svc	0x00123456
    8494:	e1a05000 	mov	r5, r0
    8498:	e1a00005 	mov	r0, r5
    849c:	ebffffa8 	bl	8344 <wrap>
    84a0:	e3500000 	cmp	r0, #0	; 0x0
    84a4:	13e00000 	mvnne	r0, #0	; 0x0
    84a8:	e28dd008 	add	sp, sp, #8	; 0x8
    84ac:	e8bd8030 	pop	{r4, r5, pc}

000084b0 <_swiopen>:
    84b0:	e92d41f0 	push	{r4, r5, r6, r7, r8, lr}
    84b4:	e59f80d0 	ldr	r8, [pc, #208]	; 858c <_swiopen+0xdc>
    84b8:	e24dd00c 	sub	sp, sp, #12	; 0xc
    84bc:	e1a02000 	mov	r2, r0
    84c0:	e3a06000 	mov	r6, #0	; 0x0
    84c4:	e7983186 	ldr	r3, [r8, r6, lsl #3]
    84c8:	e3730001 	cmn	r3, #1	; 0x1
    84cc:	0a000006 	beq	84ec <_swiopen+0x3c>
    84d0:	e2866001 	add	r6, r6, #1	; 0x1
    84d4:	e3560014 	cmp	r6, #20	; 0x14
    84d8:	1afffff9 	bne	84c4 <_swiopen+0x14>
    84dc:	e3e07000 	mvn	r7, #0	; 0x0
    84e0:	e1a00007 	mov	r0, r7
    84e4:	e28dd00c 	add	sp, sp, #12	; 0xc
    84e8:	e8bd81f0 	pop	{r4, r5, r6, r7, r8, pc}
    84ec:	e1a03821 	lsr	r3, r1, #16
    84f0:	e2034001 	and	r4, r3, #1	; 0x1
    84f4:	e3110002 	tst	r1, #2	; 0x2
    84f8:	13844002 	orrne	r4, r4, #2	; 0x2
    84fc:	e3110c02 	tst	r1, #512	; 0x200
    8500:	13844004 	orrne	r4, r4, #4	; 0x4
    8504:	e3110b01 	tst	r1, #1024	; 0x400
    8508:	13844004 	orrne	r4, r4, #4	; 0x4
    850c:	e3110008 	tst	r1, #8	; 0x8
    8510:	13c43004 	bicne	r3, r4, #4	; 0x4
    8514:	e1a00002 	mov	r0, r2
    8518:	13834008 	orrne	r4, r3, #8	; 0x8
    851c:	e58d2000 	str	r2, [sp]
    8520:	ebfff3ef 	bl	54e4 <strlen>
    8524:	e58d4004 	str	r4, [sp, #4]
    8528:	e58d0008 	str	r0, [sp, #8]
    852c:	e1a0500d 	mov	r5, sp
    8530:	e3a04001 	mov	r4, #1	; 0x1
    8534:	e1a00004 	mov	r0, r4
    8538:	e1a0100d 	mov	r1, sp
    853c:	ef123456 	svc	0x00123456
    8540:	e1a07000 	mov	r7, r0
    8544:	e3570000 	cmp	r7, #0	; 0x0
    8548:	a1a03416 	lslge	r3, r6, r4
    854c:	a3a02000 	movge	r2, #0	; 0x0
    8550:	a0833004 	addge	r3, r3, r4
    8554:	a7887186 	strge	r7, [r8, r6, lsl #3]
    8558:	a7882103 	strge	r2, [r8, r3, lsl #2]
    855c:	a2877020 	addge	r7, r7, #32	; 0x20
    8560:	aaffffde 	bge	84e0 <_swiopen+0x30>
    8564:	eb000142 	bl	8a74 <__errno>
    8568:	e3a05000 	mov	r5, #0	; 0x0
    856c:	e1a06000 	mov	r6, r0
    8570:	e3a04013 	mov	r4, #19	; 0x13
    8574:	e1a00004 	mov	r0, r4
    8578:	e1a01005 	mov	r1, r5
    857c:	ef123456 	svc	0x00123456
    8580:	e1a04000 	mov	r4, r0
    8584:	e5864000 	str	r4, [r6]
    8588:	eaffffd4 	b	84e0 <_swiopen+0x30>
    858c:	400009c0 	.word	0x400009c0

00008590 <_open>:
    8590:	e92d000e 	push	{r1, r2, r3}
    8594:	e52de004 	push	{lr}		; (str lr, [sp, #-4]!)
    8598:	e59d1004 	ldr	r1, [sp, #4]
    859c:	ebffffc3 	bl	84b0 <_swiopen>
    85a0:	ebffff67 	bl	8344 <wrap>
    85a4:	e49de004 	pop	{lr}		; (ldr lr, [sp], #4)
    85a8:	e28dd00c 	add	sp, sp, #12	; 0xc
    85ac:	e12fff1e 	bx	lr

000085b0 <_sbrk>:
    85b0:	e59f2044 	ldr	r2, [pc, #68]	; 85fc <_sbrk+0x4c>
    85b4:	e5923000 	ldr	r3, [r2]
    85b8:	e3530000 	cmp	r3, #0	; 0x0
    85bc:	059f303c 	ldreq	r3, [pc, #60]	; 8600 <_sbrk+0x50>
    85c0:	e52de004 	push	{lr}		; (str lr, [sp, #-4]!)
    85c4:	05823000 	streq	r3, [r2]
    85c8:	e1a01000 	mov	r1, r0
    85cc:	e5920000 	ldr	r0, [r2]
    85d0:	e0802001 	add	r2, r0, r1
    85d4:	e152000d 	cmp	r2, sp
    85d8:	8a000002 	bhi	85e8 <_sbrk+0x38>
    85dc:	e59f3018 	ldr	r3, [pc, #24]	; 85fc <_sbrk+0x4c>
    85e0:	e5832000 	str	r2, [r3]
    85e4:	e49df004 	pop	{pc}		; (ldr pc, [sp], #4)
    85e8:	eb000121 	bl	8a74 <__errno>
    85ec:	e3a0300c 	mov	r3, #12	; 0xc
    85f0:	e5803000 	str	r3, [r0]
    85f4:	e3e00000 	mvn	r0, #0	; 0x0
    85f8:	e49df004 	pop	{pc}		; (ldr pc, [sp], #4)
    85fc:	400009b0 	.word	0x400009b0
    8600:	40000ea0 	.word	0x40000ea0

00008604 <remap_handle>:
    8604:	e59f3064 	ldr	r3, [pc, #100]	; 8670 <remap_handle+0x6c>
    8608:	e5932000 	ldr	r2, [r3]
    860c:	e3520000 	cmp	r2, #0	; 0x0
    8610:	e92d4010 	push	{r4, lr}
    8614:	e1a04000 	mov	r4, r0
    8618:	0a000002 	beq	8628 <remap_handle+0x24>
    861c:	e5923038 	ldr	r3, [r2, #56]
    8620:	e3530000 	cmp	r3, #0	; 0x0
    8624:	0a00000b 	beq	8658 <remap_handle+0x54>
    8628:	e3540000 	cmp	r4, #0	; 0x0
    862c:	0a000006 	beq	864c <remap_handle+0x48>
    8630:	e3540001 	cmp	r4, #1	; 0x1
    8634:	0a00000a 	beq	8664 <remap_handle+0x60>
    8638:	e3540002 	cmp	r4, #2	; 0x2
    863c:	059f3030 	ldreq	r3, [pc, #48]	; 8674 <remap_handle+0x70>
    8640:	12440020 	subne	r0, r4, #32	; 0x20
    8644:	05930000 	ldreq	r0, [r3]
    8648:	e8bd8010 	pop	{r4, pc}
    864c:	e59f3024 	ldr	r3, [pc, #36]	; 8678 <remap_handle+0x74>
    8650:	e5930000 	ldr	r0, [r3]
    8654:	e8bd8010 	pop	{r4, pc}
    8658:	e1a00002 	mov	r0, r2
    865c:	ebfff980 	bl	6c64 <__sinit>
    8660:	eafffff0 	b	8628 <remap_handle+0x24>
    8664:	e59f3010 	ldr	r3, [pc, #16]	; 867c <remap_handle+0x78>
    8668:	e5930000 	ldr	r0, [r3]
    866c:	e8bd8010 	pop	{r4, pc}
    8670:	4000045c 	.word	0x4000045c
    8674:	400009bc 	.word	0x400009bc
    8678:	400009b4 	.word	0x400009b4
    867c:	400009b8 	.word	0x400009b8

00008680 <isatty>:
    8680:	e92d4030 	push	{r4, r5, lr}
    8684:	e24dd004 	sub	sp, sp, #4	; 0x4
    8688:	ebffffdd 	bl	8604 <remap_handle>
    868c:	e28d5004 	add	r5, sp, #4	; 0x4
    8690:	e5250004 	str	r0, [r5, #-4]!
    8694:	e3a04009 	mov	r4, #9	; 0x9
    8698:	e1a00004 	mov	r0, r4
    869c:	e1a01005 	mov	r1, r5
    86a0:	ef123456 	svc	0x00123456
    86a4:	e1a04000 	mov	r4, r0
    86a8:	e1a00004 	mov	r0, r4
    86ac:	ebffff24 	bl	8344 <wrap>
    86b0:	e28dd004 	add	sp, sp, #4	; 0x4
    86b4:	e8bd8030 	pop	{r4, r5, pc}

000086b8 <_swiclose>:
    86b8:	e92d4030 	push	{r4, r5, lr}
    86bc:	e24dd004 	sub	sp, sp, #4	; 0x4
    86c0:	ebffffcf 	bl	8604 <remap_handle>
    86c4:	e59f2050 	ldr	r2, [pc, #80]	; 871c <_swiclose+0x64>
    86c8:	e3a01000 	mov	r1, #0	; 0x0
    86cc:	e7923181 	ldr	r3, [r2, r1, lsl #3]
    86d0:	e1500003 	cmp	r0, r3
    86d4:	0a00000c 	beq	870c <_swiclose+0x54>
    86d8:	e2811001 	add	r1, r1, #1	; 0x1
    86dc:	e3510014 	cmp	r1, #20	; 0x14
    86e0:	1afffff9 	bne	86cc <_swiclose+0x14>
    86e4:	e28d5004 	add	r5, sp, #4	; 0x4
    86e8:	e5250004 	str	r0, [r5, #-4]!
    86ec:	e3a04002 	mov	r4, #2	; 0x2
    86f0:	e1a00004 	mov	r0, r4
    86f4:	e1a01005 	mov	r1, r5
    86f8:	ef123456 	svc	0x00123456
    86fc:	e1a04000 	mov	r4, r0
    8700:	e1a00004 	mov	r0, r4
    8704:	e28dd004 	add	sp, sp, #4	; 0x4
    8708:	e8bd8030 	pop	{r4, r5, pc}
    870c:	e59f3008 	ldr	r3, [pc, #8]	; 871c <_swiclose+0x64>
    8710:	e3e02000 	mvn	r2, #0	; 0x0
    8714:	e7832181 	str	r2, [r3, r1, lsl #3]
    8718:	eafffff1 	b	86e4 <_swiclose+0x2c>
    871c:	400009c0 	.word	0x400009c0

00008720 <_close>:
    8720:	e52de004 	push	{lr}		; (str lr, [sp, #-4]!)
    8724:	ebffffe3 	bl	86b8 <_swiclose>
    8728:	e49de004 	pop	{lr}		; (ldr lr, [sp], #4)
    872c:	eaffff04 	b	8344 <wrap>

00008730 <_swiwrite>:
    8730:	e92d4070 	push	{r4, r5, r6, lr}
    8734:	e24dd00c 	sub	sp, sp, #12	; 0xc
    8738:	e1a04001 	mov	r4, r1
    873c:	e1a06002 	mov	r6, r2
    8740:	ebffffaf 	bl	8604 <remap_handle>
    8744:	e88d0051 	stm	sp, {r0, r4, r6}
    8748:	e1a0500d 	mov	r5, sp
    874c:	e3a04005 	mov	r4, #5	; 0x5
    8750:	e1a00004 	mov	r0, r4
    8754:	e1a0100d 	mov	r1, sp
    8758:	ef123456 	svc	0x00123456
    875c:	e1a04000 	mov	r4, r0
    8760:	e1a00004 	mov	r0, r4
    8764:	e28dd00c 	add	sp, sp, #12	; 0xc
    8768:	e8bd8070 	pop	{r4, r5, r6, pc}

0000876c <_write>:
    876c:	e92d41f0 	push	{r4, r5, r6, r7, r8, lr}
    8770:	e59f5098 	ldr	r5, [pc, #152]	; 8810 <_write+0xa4>
    8774:	e1a08001 	mov	r8, r1
    8778:	e1a06002 	mov	r6, r2
    877c:	e1a07000 	mov	r7, r0
    8780:	e3a04000 	mov	r4, #0	; 0x0
    8784:	ebffff9e 	bl	8604 <remap_handle>
    8788:	e7953184 	ldr	r3, [r5, r4, lsl #3]
    878c:	e1500003 	cmp	r0, r3
    8790:	0a000002 	beq	87a0 <_write+0x34>
    8794:	e2844001 	add	r4, r4, #1	; 0x1
    8798:	e3540014 	cmp	r4, #20	; 0x14
    879c:	1afffff9 	bne	8788 <_write+0x1c>
    87a0:	e1a00007 	mov	r0, r7
    87a4:	e1a01008 	mov	r1, r8
    87a8:	e1a02006 	mov	r2, r6
    87ac:	ebffffdf 	bl	8730 <_swiwrite>
    87b0:	e3700001 	cmn	r0, #1	; 0x1
    87b4:	11560000 	cmpne	r6, r0
    87b8:	0a000009 	beq	87e4 <_write+0x78>
    87bc:	e3540014 	cmp	r4, #20	; 0x14
    87c0:	0a000005 	beq	87dc <_write+0x70>
    87c4:	e1a02084 	lsl	r2, r4, #1
    87c8:	e2822001 	add	r2, r2, #1	; 0x1
    87cc:	e7953102 	ldr	r3, [r5, r2, lsl #2]
    87d0:	e0863003 	add	r3, r6, r3
    87d4:	e0603003 	rsb	r3, r0, r3
    87d8:	e7853102 	str	r3, [r5, r2, lsl #2]
    87dc:	e0600006 	rsb	r0, r0, r6
    87e0:	e8bd81f0 	pop	{r4, r5, r6, r7, r8, pc}
    87e4:	eb0000a2 	bl	8a74 <__errno>
    87e8:	e3a05000 	mov	r5, #0	; 0x0
    87ec:	e1a06000 	mov	r6, r0
    87f0:	e3a04013 	mov	r4, #19	; 0x13
    87f4:	e1a00004 	mov	r0, r4
    87f8:	e1a01005 	mov	r1, r5
    87fc:	ef123456 	svc	0x00123456
    8800:	e1a04000 	mov	r4, r0
    8804:	e3e00000 	mvn	r0, #0	; 0x0
    8808:	e5864000 	str	r4, [r6]
    880c:	e8bd81f0 	pop	{r4, r5, r6, r7, r8, pc}
    8810:	400009c0 	.word	0x400009c0

00008814 <_swilseek>:
    8814:	e92d45f0 	push	{r4, r5, r6, r7, r8, sl, lr}
    8818:	e24dd008 	sub	sp, sp, #8	; 0x8
    881c:	e59f80e0 	ldr	r8, [pc, #224]	; 8904 <_swilseek+0xf0>
    8820:	e1a07001 	mov	r7, r1
    8824:	e1a04002 	mov	r4, r2
    8828:	e1a0a000 	mov	sl, r0
    882c:	e3a05000 	mov	r5, #0	; 0x0
    8830:	ebffff73 	bl	8604 <remap_handle>
    8834:	e7983185 	ldr	r3, [r8, r5, lsl #3]
    8838:	e1500003 	cmp	r0, r3
    883c:	0a000002 	beq	884c <_swilseek+0x38>
    8840:	e2855001 	add	r5, r5, #1	; 0x1
    8844:	e3550014 	cmp	r5, #20	; 0x14
    8848:	1afffff9 	bne	8834 <_swilseek+0x20>
    884c:	e3540001 	cmp	r4, #1	; 0x1
    8850:	0a000023 	beq	88e4 <_swilseek+0xd0>
    8854:	e3540002 	cmp	r4, #2	; 0x2
    8858:	11a0600d 	movne	r6, sp
    885c:	0a000017 	beq	88c0 <_swilseek+0xac>
    8860:	e1a0000a 	mov	r0, sl
    8864:	ebffff66 	bl	8604 <remap_handle>
    8868:	e3a0400a 	mov	r4, #10	; 0xa
    886c:	e88d0081 	stm	sp, {r0, r7}
    8870:	e1a00004 	mov	r0, r4
    8874:	e1a01006 	mov	r1, r6
    8878:	ef123456 	svc	0x00123456
    887c:	e1a04000 	mov	r4, r0
    8880:	e2744001 	rsbs	r4, r4, #1	; 0x1
    8884:	33a04000 	movcc	r4, #0	; 0x0
    8888:	e3550014 	cmp	r5, #20	; 0x14
    888c:	03a03000 	moveq	r3, #0	; 0x0
    8890:	12043001 	andne	r3, r4, #1	; 0x1
    8894:	e3530000 	cmp	r3, #0	; 0x0
    8898:	11a03085 	lslne	r3, r5, #1
    889c:	12833001 	addne	r3, r3, #1	; 0x1
    88a0:	17887103 	strne	r7, [r8, r3, lsl #2]
    88a4:	1a000002 	bne	88b4 <_swilseek+0xa0>
    88a8:	e3540000 	cmp	r4, #0	; 0x0
    88ac:	1a000000 	bne	88b4 <_swilseek+0xa0>
    88b0:	e3e07000 	mvn	r7, #0	; 0x0
    88b4:	e1a00007 	mov	r0, r7
    88b8:	e28dd008 	add	sp, sp, #8	; 0x8
    88bc:	e8bd85f0 	pop	{r4, r5, r6, r7, r8, sl, pc}
    88c0:	e28d6008 	add	r6, sp, #8	; 0x8
    88c4:	e5260008 	str	r0, [r6, #-8]!
    88c8:	e3a0400c 	mov	r4, #12	; 0xc
    88cc:	e1a00004 	mov	r0, r4
    88d0:	e1a01006 	mov	r1, r6
    88d4:	ef123456 	svc	0x00123456
    88d8:	e1a04000 	mov	r4, r0
    88dc:	e0877004 	add	r7, r7, r4
    88e0:	eaffffde 	b	8860 <_swilseek+0x4c>
    88e4:	e3550014 	cmp	r5, #20	; 0x14
    88e8:	0afffff0 	beq	88b0 <_swilseek+0x9c>
    88ec:	e1a03085 	lsl	r3, r5, #1
    88f0:	e2833001 	add	r3, r3, #1	; 0x1
    88f4:	e7982103 	ldr	r2, [r8, r3, lsl #2]
    88f8:	e1a0600d 	mov	r6, sp
    88fc:	e0877002 	add	r7, r7, r2
    8900:	eaffffd6 	b	8860 <_swilseek+0x4c>
    8904:	400009c0 	.word	0x400009c0

00008908 <_lseek>:
    8908:	e52de004 	push	{lr}		; (str lr, [sp, #-4]!)
    890c:	ebffffc0 	bl	8814 <_swilseek>
    8910:	e49de004 	pop	{lr}		; (ldr lr, [sp], #4)
    8914:	eafffe8a 	b	8344 <wrap>

00008918 <_swiread>:
    8918:	e92d4070 	push	{r4, r5, r6, lr}
    891c:	e24dd00c 	sub	sp, sp, #12	; 0xc
    8920:	e1a04001 	mov	r4, r1
    8924:	e1a06002 	mov	r6, r2
    8928:	ebffff35 	bl	8604 <remap_handle>
    892c:	e88d0051 	stm	sp, {r0, r4, r6}
    8930:	e1a0500d 	mov	r5, sp
    8934:	e3a04006 	mov	r4, #6	; 0x6
    8938:	e1a00004 	mov	r0, r4
    893c:	e1a0100d 	mov	r1, sp
    8940:	ef123456 	svc	0x00123456
    8944:	e1a04000 	mov	r4, r0
    8948:	e1a00004 	mov	r0, r4
    894c:	e28dd00c 	add	sp, sp, #12	; 0xc
    8950:	e8bd8070 	pop	{r4, r5, r6, pc}

00008954 <_read>:
    8954:	e92d41f0 	push	{r4, r5, r6, r7, r8, lr}
    8958:	e59f5094 	ldr	r5, [pc, #148]	; 89f4 <_read+0xa0>
    895c:	e1a08001 	mov	r8, r1
    8960:	e1a06002 	mov	r6, r2
    8964:	e1a07000 	mov	r7, r0
    8968:	e3a04000 	mov	r4, #0	; 0x0
    896c:	ebffff24 	bl	8604 <remap_handle>
    8970:	e7953184 	ldr	r3, [r5, r4, lsl #3]
    8974:	e1500003 	cmp	r0, r3
    8978:	0a000002 	beq	8988 <_read+0x34>
    897c:	e2844001 	add	r4, r4, #1	; 0x1
    8980:	e3540014 	cmp	r4, #20	; 0x14
    8984:	1afffff9 	bne	8970 <_read+0x1c>
    8988:	e1a00007 	mov	r0, r7
    898c:	e1a01008 	mov	r1, r8
    8990:	e1a02006 	mov	r2, r6
    8994:	ebffffdf 	bl	8918 <_swiread>
    8998:	e3500000 	cmp	r0, #0	; 0x0
    899c:	ba000009 	blt	89c8 <_read+0x74>
    89a0:	e3540014 	cmp	r4, #20	; 0x14
    89a4:	0a000005 	beq	89c0 <_read+0x6c>
    89a8:	e1a02084 	lsl	r2, r4, #1
    89ac:	e2822001 	add	r2, r2, #1	; 0x1
    89b0:	e7953102 	ldr	r3, [r5, r2, lsl #2]
    89b4:	e0863003 	add	r3, r6, r3
    89b8:	e0603003 	rsb	r3, r0, r3
    89bc:	e7853102 	str	r3, [r5, r2, lsl #2]
    89c0:	e0600006 	rsb	r0, r0, r6
    89c4:	e8bd81f0 	pop	{r4, r5, r6, r7, r8, pc}
    89c8:	eb000029 	bl	8a74 <__errno>
    89cc:	e3a05000 	mov	r5, #0	; 0x0
    89d0:	e1a06000 	mov	r6, r0
    89d4:	e3a04013 	mov	r4, #19	; 0x13
    89d8:	e1a00004 	mov	r0, r4
    89dc:	e1a01005 	mov	r1, r5
    89e0:	ef123456 	svc	0x00123456
    89e4:	e1a04000 	mov	r4, r0
    89e8:	e3e00000 	mvn	r0, #0	; 0x0
    89ec:	e5864000 	str	r4, [r6]
    89f0:	e8bd81f0 	pop	{r4, r5, r6, r7, r8, pc}
    89f4:	400009c0 	.word	0x400009c0

000089f8 <_stat>:
    89f8:	e92d4030 	push	{r4, r5, lr}
    89fc:	e1a04001 	mov	r4, r1
    8a00:	e3a01000 	mov	r1, #0	; 0x0
    8a04:	ebfffee1 	bl	8590 <_open>
    8a08:	e2505000 	subs	r5, r0, #0	; 0x0
    8a0c:	b3e00000 	mvnlt	r0, #0	; 0x0
    8a10:	b8bd8030 	poplt	{r4, r5, pc}
    8a14:	e1a00004 	mov	r0, r4
    8a18:	e3a01000 	mov	r1, #0	; 0x0
    8a1c:	e3a0203c 	mov	r2, #60	; 0x3c
    8a20:	ebfff1de 	bl	51a0 <memset>
    8a24:	e3a03b01 	mov	r3, #1024	; 0x400
    8a28:	e3a02c81 	mov	r2, #33024	; 0x8100
    8a2c:	e584302c 	str	r3, [r4, #44]
    8a30:	e5842004 	str	r2, [r4, #4]
    8a34:	e1a00005 	mov	r0, r5
    8a38:	ebffff1e 	bl	86b8 <_swiclose>
    8a3c:	e3a00000 	mov	r0, #0	; 0x0
    8a40:	e8bd8030 	pop	{r4, r5, pc}

00008a44 <_fstat>:
    8a44:	e92d4010 	push	{r4, lr}
    8a48:	e1a00001 	mov	r0, r1
    8a4c:	e1a04001 	mov	r4, r1
    8a50:	e3a0203c 	mov	r2, #60	; 0x3c
    8a54:	e3a01000 	mov	r1, #0	; 0x0
    8a58:	ebfff1d0 	bl	51a0 <memset>
    8a5c:	e3a03b01 	mov	r3, #1024	; 0x400
    8a60:	e3a02a02 	mov	r2, #8192	; 0x2000
    8a64:	e584302c 	str	r3, [r4, #44]
    8a68:	e5842004 	str	r2, [r4, #4]
    8a6c:	e3a00000 	mov	r0, #0	; 0x0
    8a70:	e8bd8010 	pop	{r4, pc}

00008a74 <__errno>:
    8a74:	e59f3004 	ldr	r3, [pc, #4]	; 8a80 <__errno+0xc>
    8a78:	e5930000 	ldr	r0, [r3]
    8a7c:	e12fff1e 	bx	lr
    8a80:	4000045c 	.word	0x4000045c

00008a84 <_fclose_r>:
    8a84:	e92d4070 	push	{r4, r5, r6, lr}
    8a88:	e2514000 	subs	r4, r1, #0	; 0x0
    8a8c:	e1a05000 	mov	r5, r0
    8a90:	01a06004 	moveq	r6, r4
    8a94:	0a00002b 	beq	8b48 <_fclose_r+0xc4>
    8a98:	ebfff8b8 	bl	6d80 <__sfp_lock_acquire>
    8a9c:	e3550000 	cmp	r5, #0	; 0x0
    8aa0:	0a000002 	beq	8ab0 <_fclose_r+0x2c>
    8aa4:	e5953038 	ldr	r3, [r5, #56]
    8aa8:	e3530000 	cmp	r3, #0	; 0x0
    8aac:	0a00002b 	beq	8b60 <_fclose_r+0xdc>
    8ab0:	e1d400fc 	ldrsh	r0, [r4, #12]
    8ab4:	e3500000 	cmp	r0, #0	; 0x0
    8ab8:	0a000024 	beq	8b50 <_fclose_r+0xcc>
    8abc:	e1a00005 	mov	r0, r5
    8ac0:	e1a01004 	mov	r1, r4
    8ac4:	ebfff7ef 	bl	6a88 <_fflush_r>
    8ac8:	e594302c 	ldr	r3, [r4, #44]
    8acc:	e3530000 	cmp	r3, #0	; 0x0
    8ad0:	e1a06000 	mov	r6, r0
    8ad4:	0a000005 	beq	8af0 <_fclose_r+0x6c>
    8ad8:	e1a00005 	mov	r0, r5
    8adc:	e594101c 	ldr	r1, [r4, #28]
    8ae0:	e1a0e00f 	mov	lr, pc
    8ae4:	e12fff13 	bx	r3
    8ae8:	e3500000 	cmp	r0, #0	; 0x0
    8aec:	b3e06000 	mvnlt	r6, #0	; 0x0
    8af0:	e1d430bc 	ldrh	r3, [r4, #12]
    8af4:	e3130080 	tst	r3, #128	; 0x80
    8af8:	1a00001e 	bne	8b78 <_fclose_r+0xf4>
    8afc:	e5941030 	ldr	r1, [r4, #48]
    8b00:	e3510000 	cmp	r1, #0	; 0x0
    8b04:	0a000005 	beq	8b20 <_fclose_r+0x9c>
    8b08:	e2843040 	add	r3, r4, #64	; 0x40
    8b0c:	e1510003 	cmp	r1, r3
    8b10:	11a00005 	movne	r0, r5
    8b14:	1bfff93b 	blne	7008 <_free_r>
    8b18:	e3a03000 	mov	r3, #0	; 0x0
    8b1c:	e5843030 	str	r3, [r4, #48]
    8b20:	e5941044 	ldr	r1, [r4, #68]
    8b24:	e3510000 	cmp	r1, #0	; 0x0
    8b28:	0a000003 	beq	8b3c <_fclose_r+0xb8>
    8b2c:	e1a00005 	mov	r0, r5
    8b30:	ebfff934 	bl	7008 <_free_r>
    8b34:	e3a03000 	mov	r3, #0	; 0x0
    8b38:	e5843044 	str	r3, [r4, #68]
    8b3c:	e3a03000 	mov	r3, #0	; 0x0
    8b40:	e1c430bc 	strh	r3, [r4, #12]
    8b44:	ebfff88e 	bl	6d84 <__sfp_lock_release>
    8b48:	e1a00006 	mov	r0, r6
    8b4c:	e8bd8070 	pop	{r4, r5, r6, pc}
    8b50:	e1a06000 	mov	r6, r0
    8b54:	ebfff88a 	bl	6d84 <__sfp_lock_release>
    8b58:	e1a00006 	mov	r0, r6
    8b5c:	e8bd8070 	pop	{r4, r5, r6, pc}
    8b60:	e1a00005 	mov	r0, r5
    8b64:	ebfff83e 	bl	6c64 <__sinit>
    8b68:	e1d400fc 	ldrsh	r0, [r4, #12]
    8b6c:	e3500000 	cmp	r0, #0	; 0x0
    8b70:	1affffd1 	bne	8abc <_fclose_r+0x38>
    8b74:	eafffff5 	b	8b50 <_fclose_r+0xcc>
    8b78:	e1a00005 	mov	r0, r5
    8b7c:	e5941010 	ldr	r1, [r4, #16]
    8b80:	ebfff920 	bl	7008 <_free_r>
    8b84:	eaffffdc 	b	8afc <_fclose_r+0x78>

00008b88 <fclose>:
    8b88:	e59f3008 	ldr	r3, [pc, #8]	; 8b98 <fclose+0x10>
    8b8c:	e1a01000 	mov	r1, r0
    8b90:	e5930000 	ldr	r0, [r3]
    8b94:	eaffffba 	b	8a84 <_fclose_r>
    8b98:	4000045c 	.word	0x4000045c
