   1              		.file	"i2c.c"
   2              		.text
   3              		.align	2
   4              		.global	i2cStateMachine
   6              	i2cStateMachine:
   7              		@ args = 0, pretend = 0, frame = 0
   8              		@ frame_needed = 0, uses_anonymous_args = 0
   9 0000 30402DE9 		stmfd	sp!, {r4, r5, lr}
  10 0004 84539FE5 		ldr	r5, .L54
  11 0008 04C095E5 		ldr	ip, [r5, #4]
  12 000c 28005CE3 		cmp	ip, #40
  13 0010 4900000A 		beq	.L8
  14 0014 0C00008A 		bhi	.L15
  15 0018 10005CE3 		cmp	ip, #16
  16 001c 2200000A 		beq	.L5
  17 0020 0400008A 		bhi	.L16
  18 0024 00005CE3 		cmp	ip, #0
  19 0028 AD00000A 		beq	.L3
  20 002c 08005CE3 		cmp	ip, #8
  21 0030 C100001A 		bne	.L2
  22 0034 130000EA 		b	.L50
  23              	.L16:
  24 0038 18005CE3 		cmp	ip, #24
  25 003c 1E00000A 		beq	.L6
  26 0040 20005CE3 		cmp	ip, #32
  27 0044 BC00001A 		bne	.L2
  28 0048 2E0000EA 		b	.L51
  29              	.L15:
  30 004c 40005CE3 		cmp	ip, #64
  31 0050 6500000A 		beq	.L11
  32 0054 0400008A 		bhi	.L17
  33 0058 30005CE3 		cmp	ip, #48
  34 005c 5400000A 		beq	.L9
  35 0060 38005CE3 		cmp	ip, #56
  36 0064 B400001A 		bne	.L2
  37 0068 AB0000EA 		b	.L52
  38              	.L17:
  39 006c 50005CE3 		cmp	ip, #80
  40 0070 7200000A 		beq	.L13
  41 0074 58005CE3 		cmp	ip, #88
  42 0078 8600000A 		beq	.L14
  43 007c 48005CE3 		cmp	ip, #72
  44 0080 AD00001A 		bne	.L2
  45 0084 5F0000EA 		b	.L53
  46              	.L50:
  47 0088 04339FE5 		ldr	r3, .L54+4
  48 008c 0030D3E5 		ldrb	r3, [r3, #0]	@ zero_extendqisi2
  49 0090 083085E5 		str	r3, [r5, #8]
  50 0094 FC329FE5 		ldr	r3, .L54+8
  51 0098 0020A0E3 		mov	r2, #0
  52 009c 18C085E5 		str	ip, [r5, #24]
  53 00a0 002083E5 		str	r2, [r3, #0]
  54 00a4 0200A0E1 		mov	r0, r2
  55 00a8 3080BDE8 		ldmfd	sp!, {r4, r5, pc}
  56              	.L5:
  57 00ac E0329FE5 		ldr	r3, .L54+4
  58 00b0 0030D3E5 		ldrb	r3, [r3, #0]	@ zero_extendqisi2
  59 00b4 013083E3 		orr	r3, r3, #1
  60 00b8 100000EA 		b	.L48
  61              	.L6:
  62 00bc D0229FE5 		ldr	r2, .L54+4
  63 00c0 0C3092E5 		ldr	r3, [r2, #12]
  64 00c4 000053E3 		cmp	r3, #0
  65 00c8 2030A0E3 		mov	r3, #32
  66 00cc 183085E5 		str	r3, [r5, #24]
  67 00d0 0900001A 		bne	.L19
  68 00d4 183085E5 		str	r3, [r5, #24]
  69 00d8 1030A0E3 		mov	r3, #16
  70 00dc 003085E5 		str	r3, [r5, #0]
  71 00e0 0830A0E3 		mov	r3, #8
  72 00e4 183085E5 		str	r3, [r5, #24]
  73 00e8 0520A0E1 		mov	r2, r5
  74              	.L20:
  75 00ec 003092E5 		ldr	r3, [r2, #0]
  76 00f0 100013E3 		tst	r3, #16
  77 00f4 FCFFFF1A 		bne	.L20
  78 00f8 9C0000EA 		b	.L45
  79              	.L19:
  80 00fc 0130D2E5 		ldrb	r3, [r2, #1]	@ zero_extendqisi2
  81              	.L48:
  82 0100 083085E5 		str	r3, [r5, #8]
  83 0104 270000EA 		b	.L47
  84              	.L51:
  85 0108 042095E5 		ldr	r2, [r5, #4]
  86 010c 80329FE5 		ldr	r3, .L54+4
  87 0110 0220C3E5 		strb	r2, [r3, #2]
  88 0114 1030A0E3 		mov	r3, #16
  89 0118 18C085E5 		str	ip, [r5, #24]
  90 011c 003085E5 		str	r3, [r5, #0]
  91 0120 0830A0E3 		mov	r3, #8
  92 0124 183085E5 		str	r3, [r5, #24]
  93 0128 0520A0E1 		mov	r2, r5
  94              	.L23:
  95 012c 003092E5 		ldr	r3, [r2, #0]
  96 0130 100013E3 		tst	r3, #16
  97 0134 FCFFFF1A 		bne	.L23
  98 0138 8C0000EA 		b	.L45
  99              	.L8:
 100 013c 50229FE5 		ldr	r2, .L54+4
 101 0140 043092E5 		ldr	r3, [r2, #4]
 102 0144 010053E3 		cmp	r3, #1
 103 0148 1F308302 		addeq	r3, r3, #31
 104 014c 00308505 		streq	r3, [r5, #0]
 105 0150 1400000A 		beq	.L47
 106 0154 3C029FE5 		ldr	r0, .L54+8
 107 0158 0C3092E5 		ldr	r3, [r2, #12]
 108 015c 001090E5 		ldr	r1, [r0, #0]
 109 0160 030051E1 		cmp	r1, r3
 110 0164 0A0000BA 		blt	.L25
 111 0168 2030A0E3 		mov	r3, #32
 112 016c 183085E5 		str	r3, [r5, #24]
 113 0170 1030A0E3 		mov	r3, #16
 114 0174 003085E5 		str	r3, [r5, #0]
 115 0178 0830A0E3 		mov	r3, #8
 116 017c 183085E5 		str	r3, [r5, #24]
 117 0180 0520A0E1 		mov	r2, r5
 118              	.L26:
 119 0184 003092E5 		ldr	r3, [r2, #0]
 120 0188 100013E3 		tst	r3, #16
 121 018c FCFFFF1A 		bne	.L26
 122 0190 7A0000EA 		b	.L22
 123              	.L25:
 124 0194 013082E0 		add	r3, r2, r1
 125 0198 0820D3E5 		ldrb	r2, [r3, #8]	@ zero_extendqisi2
 126 019c 013081E2 		add	r3, r1, #1
 127 01a0 003080E5 		str	r3, [r0, #0]
 128 01a4 082085E5 		str	r2, [r5, #8]
 129              	.L47:
 130 01a8 0830A0E3 		mov	r3, #8
 131 01ac 183085E5 		str	r3, [r5, #24]
 132 01b0 360000EA 		b	.L46
 133              	.L9:
 134 01b4 042095E5 		ldr	r2, [r5, #4]
 135 01b8 D4319FE5 		ldr	r3, .L54+4
 136 01bc 0220C3E5 		strb	r2, [r3, #2]
 137 01c0 2030A0E3 		mov	r3, #32
 138 01c4 183085E5 		str	r3, [r5, #24]
 139 01c8 1030A0E3 		mov	r3, #16
 140 01cc 003085E5 		str	r3, [r5, #0]
 141 01d0 0830A0E3 		mov	r3, #8
 142 01d4 183085E5 		str	r3, [r5, #24]
 143 01d8 0520A0E1 		mov	r2, r5
 144              	.L27:
 145 01dc 003092E5 		ldr	r3, [r2, #0]
 146 01e0 100013E3 		tst	r3, #16
 147 01e4 FCFFFF1A 		bne	.L27
 148 01e8 600000EA 		b	.L45
 149              	.L11:
 150 01ec A0319FE5 		ldr	r3, .L54+4
 151 01f0 0C3093E5 		ldr	r3, [r3, #12]
 152 01f4 010053E3 		cmp	r3, #1
 153 01f8 2030A0E3 		mov	r3, #32
 154 01fc 183085E5 		str	r3, [r5, #24]
 155 0200 1D0000CA 		bgt	.L31
 156 0204 190000EA 		b	.L49
 157              	.L53:
 158 0208 042095E5 		ldr	r2, [r5, #4]
 159 020c 80319FE5 		ldr	r3, .L54+4
 160 0210 0220C3E5 		strb	r2, [r3, #2]
 161 0214 2030A0E3 		mov	r3, #32
 162 0218 183085E5 		str	r3, [r5, #24]
 163 021c 1030A0E3 		mov	r3, #16
 164 0220 003085E5 		str	r3, [r5, #0]
 165 0224 0830A0E3 		mov	r3, #8
 166 0228 183085E5 		str	r3, [r5, #24]
 167 022c 0520A0E1 		mov	r2, r5
 168              	.L30:
 169 0230 003092E5 		ldr	r3, [r2, #0]
 170 0234 100013E3 		tst	r3, #16
 171 0238 FCFFFF1A 		bne	.L30
 172 023c 4B0000EA 		b	.L45
 173              	.L13:
 174 0240 50419FE5 		ldr	r4, .L54+8
 175 0244 48219FE5 		ldr	r2, .L54+4
 176 0248 000094E5 		ldr	r0, [r4, #0]
 177 024c 0C3092E5 		ldr	r3, [r2, #12]
 178 0250 01C080E2 		add	ip, r0, #1
 179 0254 013043E2 		sub	r3, r3, #1
 180 0258 081095E5 		ldr	r1, [r5, #8]
 181 025c 002082E0 		add	r2, r2, r0
 182 0260 03005CE1 		cmp	ip, r3
 183 0264 0810C2E5 		strb	r1, [r2, #8]
 184 0268 00C084E5 		str	ip, [r4, #0]
 185 026c 020000BA 		blt	.L31
 186              	.L49:
 187 0270 0430A0E3 		mov	r3, #4
 188 0274 183085E5 		str	r3, [r5, #24]
 189 0278 010000EA 		b	.L32
 190              	.L31:
 191 027c 0430A0E3 		mov	r3, #4
 192 0280 003085E5 		str	r3, [r5, #0]
 193              	.L32:
 194 0284 04319FE5 		ldr	r3, .L54
 195 0288 0820A0E3 		mov	r2, #8
 196 028c 182083E5 		str	r2, [r3, #24]
 197              	.L46:
 198 0290 0000A0E3 		mov	r0, #0
 199 0294 3080BDE8 		ldmfd	sp!, {r4, r5, pc}
 200              	.L14:
 201 0298 F8009FE5 		ldr	r0, .L54+8
 202 029c F0309FE5 		ldr	r3, .L54+4
 203 02a0 002090E5 		ldr	r2, [r0, #0]
 204 02a4 081095E5 		ldr	r1, [r5, #8]
 205 02a8 023083E0 		add	r3, r3, r2
 206 02ac 0810C3E5 		strb	r1, [r3, #8]
 207 02b0 2030A0E3 		mov	r3, #32
 208 02b4 183085E5 		str	r3, [r5, #24]
 209 02b8 1030A0E3 		mov	r3, #16
 210 02bc 003085E5 		str	r3, [r5, #0]
 211 02c0 0830A0E3 		mov	r3, #8
 212 02c4 012082E2 		add	r2, r2, #1
 213 02c8 183085E5 		str	r3, [r5, #24]
 214 02cc 002080E5 		str	r2, [r0, #0]
 215 02d0 0520A0E1 		mov	r2, r5
 216              	.L33:
 217 02d4 003092E5 		ldr	r3, [r2, #0]
 218 02d8 100013E3 		tst	r3, #16
 219 02dc FCFFFF1A 		bne	.L33
 220 02e0 220000EA 		b	.L45
 221              	.L3:
 222 02e4 042095E5 		ldr	r2, [r5, #4]
 223 02e8 A4309FE5 		ldr	r3, .L54+4
 224 02ec 0220C3E5 		strb	r2, [r3, #2]
 225 02f0 2030A0E3 		mov	r3, #32
 226 02f4 183085E5 		str	r3, [r5, #24]
 227 02f8 1030A0E3 		mov	r3, #16
 228 02fc 003085E5 		str	r3, [r5, #0]
 229 0300 0830A0E3 		mov	r3, #8
 230 0304 183085E5 		str	r3, [r5, #24]
 231 0308 0520A0E1 		mov	r2, r5
 232              	.L34:
 233 030c 003092E5 		ldr	r3, [r2, #0]
 234 0310 100013E3 		tst	r3, #16
 235 0314 FCFFFF1A 		bne	.L34
 236 0318 140000EA 		b	.L45
 237              	.L52:
 238 031c 70309FE5 		ldr	r3, .L54+4
 239 0320 042095E5 		ldr	r2, [r5, #4]
 240 0324 0220C3E5 		strb	r2, [r3, #2]
 241 0328 68309FE5 		ldr	r3, .L54+8
 242 032c 0010A0E3 		mov	r1, #0
 243 0330 001083E5 		str	r1, [r3, #0]
 244 0334 0100A0E1 		mov	r0, r1
 245 0338 3080BDE8 		ldmfd	sp!, {r4, r5, pc}
 246              	.L2:
 247 033c 4C209FE5 		ldr	r2, .L54
 248 0340 4C309FE5 		ldr	r3, .L54+4
 249 0344 041092E5 		ldr	r1, [r2, #4]
 250 0348 0210C3E5 		strb	r1, [r3, #2]
 251 034c 2030A0E3 		mov	r3, #32
 252 0350 183082E5 		str	r3, [r2, #24]
 253 0354 1030A0E3 		mov	r3, #16
 254 0358 003082E5 		str	r3, [r2, #0]
 255 035c 0830A0E3 		mov	r3, #8
 256 0360 183082E5 		str	r3, [r2, #24]
 257              	.L35:
 258 0364 003092E5 		ldr	r3, [r2, #0]
 259 0368 100013E3 		tst	r3, #16
 260 036c FCFFFF1A 		bne	.L35
 261              	.L45:
 262 0370 1C309FE5 		ldr	r3, .L54+4
 263 0374 043093E5 		ldr	r3, [r3, #4]
 264 0378 010053E3 		cmp	r3, #1
 265 037c 0100000A 		beq	.L21
 266              	.L22:
 267 0380 0200A0E3 		mov	r0, #2
 268 0384 3080BDE8 		ldmfd	sp!, {r4, r5, pc}
 269              	.L21:
 270 0388 0100A0E3 		mov	r0, #1
 271 038c 3080BDE8 		ldmfd	sp!, {r4, r5, pc}
 272              	.L55:
 273              		.align	2
 274              	.L54:
 275 0390 00C001E0 		.word	-536756224
 276 0394 04000000 		.word	I2C_IOFRAME
 277 0398 00000000 		.word	bPointer.1898
 279              		.align	2
 280              		.global	i2cKickOffTransfer
 282              	i2cKickOffTransfer:
 283              		@ args = 4, pretend = 0, frame = 0
 284              		@ frame_needed = 0, uses_anonymous_args = 0
 285 039c 30402DE9 		stmfd	sp!, {r4, r5, lr}
 286 03a0 0C409DE5 		ldr	r4, [sp, #12]
 287 03a4 040054E3 		cmp	r4, #4
 288 03a8 00C0A0E1 		mov	ip, r0
 289 03ac 0350A0E1 		mov	r5, r3
 290 03b0 FF1001E2 		and	r1, r1, #255
 291 03b4 FF2002E2 		and	r2, r2, #255
 292 03b8 3080BDC8 		ldmgtfd	sp!, {r4, r5, pc}
 293 03bc 3C009FE5 		ldr	r0, .L60
 294 03c0 0030A0E3 		mov	r3, #0
 295 03c4 00005CE3 		cmp	ip, #0
 296 03c8 0230C0E5 		strb	r3, [r0, #2]
 297 03cc 0010C0E5 		strb	r1, [r0, #0]
 298 03d0 0120C0E5 		strb	r2, [r0, #1]
 299 03d4 04C080E5 		str	ip, [r0, #4]
 300 03d8 0C4080E5 		str	r4, [r0, #12]
 301 03dc 08008002 		addeq	r0, r0, #8
 302 03e0 0510A001 		moveq	r1, r5
 303 03e4 0420A001 		moveq	r2, r4
 304 03e8 FEFFFF0B 		bleq	memcpy
 305              	.L58:
 306 03ec 10209FE5 		ldr	r2, .L60+4
 307 03f0 003092E5 		ldr	r3, [r2, #0]
 308 03f4 203083E3 		orr	r3, r3, #32
 309 03f8 003082E5 		str	r3, [r2, #0]
 310 03fc 3080BDE8 		ldmfd	sp!, {r4, r5, pc}
 311              	.L61:
 312              		.align	2
 313              	.L60:
 314 0400 04000000 		.word	I2C_IOFRAME
 315 0404 00C001E0 		.word	-536756224
 317              		.align	2
 318              		.global	i2cWriteDeviceRegister
 320              	i2cWriteDeviceRegister:
 321              		@ args = 0, pretend = 0, frame = 4
 322              		@ frame_needed = 0, uses_anonymous_args = 0
 323 0408 70402DE9 		stmfd	sp!, {r4, r5, r6, lr}
 324 040c 08D04DE2 		sub	sp, sp, #8
 325 0410 08608DE2 		add	r6, sp, #8
 326 0414 48309FE5 		ldr	r3, .L64
 327 0418 042066E5 		strb	r2, [r6, #-4]!
 328 041c 0150A0E1 		mov	r5, r1
 329 0420 0010A0E3 		mov	r1, #0
 330 0424 FF4000E2 		and	r4, r0, #255
 331 0428 FF5005E2 		and	r5, r5, #255
 332 042c 000093E5 		ldr	r0, [r3, #0]
 333 0430 0020E0E3 		mvn	r2, #0
 334 0434 0130A0E1 		mov	r3, r1
 335 0438 FEFFFFEB 		bl	xQueueGenericReceive
 336 043c 01C0A0E3 		mov	ip, #1
 337 0440 0410A0E1 		mov	r1, r4
 338 0444 0520A0E1 		mov	r2, r5
 339 0448 0630A0E1 		mov	r3, r6
 340 044c 0000A0E3 		mov	r0, #0
 341 0450 00C08DE5 		str	ip, [sp, #0]
 342 0454 FEFFFFEB 		bl	i2cKickOffTransfer
 343 0458 0000A0E3 		mov	r0, #0
 344 045c 08D08DE2 		add	sp, sp, #8
 345 0460 7080BDE8 		ldmfd	sp!, {r4, r5, r6, pc}
 346              	.L65:
 347              		.align	2
 348              	.L64:
 349 0464 00000000 		.word	i2cLock
 351              		.align	2
 352              		.global	i2cReadDeviceRegister
 354              	i2cReadDeviceRegister:
 355              		@ args = 0, pretend = 0, frame = 4
 356              		@ frame_needed = 0, uses_anonymous_args = 0
 357 0468 F0412DE9 		stmfd	sp!, {r4, r5, r6, r7, r8, lr}
 358 046c 90809FE5 		ldr	r8, .L68
 359 0470 08D04DE2 		sub	sp, sp, #8
 360 0474 0060A0E3 		mov	r6, #0
 361 0478 08708DE2 		add	r7, sp, #8
 362 047c 016067E5 		strb	r6, [r7, #-1]!
 363 0480 0630A0E1 		mov	r3, r6
 364 0484 0040A0E1 		mov	r4, r0
 365 0488 0150A0E1 		mov	r5, r1
 366 048c 0020E0E3 		mvn	r2, #0
 367 0490 0610A0E1 		mov	r1, r6
 368 0494 000098E5 		ldr	r0, [r8, #0]
 369 0498 FEFFFFEB 		bl	xQueueGenericReceive
 370 049c FF4004E2 		and	r4, r4, #255
 371 04a0 01C0A0E3 		mov	ip, #1
 372 04a4 FF5005E2 		and	r5, r5, #255
 373 04a8 0C00A0E1 		mov	r0, ip
 374 04ac 0410A0E1 		mov	r1, r4
 375 04b0 0520A0E1 		mov	r2, r5
 376 04b4 0730A0E1 		mov	r3, r7
 377 04b8 00C08DE5 		str	ip, [sp, #0]
 378 04bc FEFFFFEB 		bl	i2cKickOffTransfer
 379 04c0 40309FE5 		ldr	r3, .L68+4
 380 04c4 0610A0E1 		mov	r1, r6
 381 04c8 000093E5 		ldr	r0, [r3, #0]
 382 04cc 0020E0E3 		mvn	r2, #0
 383 04d0 0630A0E1 		mov	r3, r6
 384 04d4 FEFFFFEB 		bl	xQueueGenericReceive
 385 04d8 2C309FE5 		ldr	r3, .L68+8
 386 04dc 08C0D3E5 		ldrb	ip, [r3, #8]	@ zero_extendqisi2
 387 04e0 0610A0E1 		mov	r1, r6
 388 04e4 000098E5 		ldr	r0, [r8, #0]
 389 04e8 0620A0E1 		mov	r2, r6
 390 04ec 0630A0E1 		mov	r3, r6
 391 04f0 07C0CDE5 		strb	ip, [sp, #7]
 392 04f4 FEFFFFEB 		bl	xQueueGenericSend
 393 04f8 0700DDE5 		ldrb	r0, [sp, #7]	@ zero_extendqisi2
 394 04fc 08D08DE2 		add	sp, sp, #8
 395 0500 F081BDE8 		ldmfd	sp!, {r4, r5, r6, r7, r8, pc}
 396              	.L69:
 397              		.align	2
 398              	.L68:
 399 0504 00000000 		.word	i2cLock
 400 0508 00000000 		.word	i2cReadCompleteSignal
 401 050c 04000000 		.word	I2C_IOFRAME
 403              		.global	__udivsi3
 404              		.align	2
 405              		.global	initialize_I2C0
 407              	initialize_I2C0:
 408              		@ args = 0, pretend = 0, frame = 0
 409              		@ frame_needed = 0, uses_anonymous_args = 0
 410 0510 F0C09FE5 		ldr	ip, .L74
 411 0514 00309CE5 		ldr	r3, [ip, #0]
 412 0518 F030C3E3 		bic	r3, r3, #240
 413 051c 00308CE5 		str	r3, [ip, #0]
 414 0520 E4309FE5 		ldr	r3, .L74+4
 415 0524 00209CE5 		ldr	r2, [ip, #0]
 416 0528 E0109FE5 		ldr	r1, .L74+8
 417 052c 030050E1 		cmp	r0, r3
 418 0530 30402DE9 		stmfd	sp!, {r4, r5, lr}
 419 0534 D8409FE5 		ldr	r4, .L74+12
 420 0538 0050A091 		movls	r5, r0
 421 053c 0150A081 		movhi	r5, r1
 422 0540 502082E3 		orr	r2, r2, #80
 423 0544 6C30A0E3 		mov	r3, #108
 424 0548 00208CE5 		str	r2, [ip, #0]
 425 054c 011085E2 		add	r1, r5, #1
 426 0550 183084E5 		str	r3, [r4, #24]
 427 0554 BC009FE5 		ldr	r0, .L74+16
 428 0558 FEFFFFEB 		bl	__udivsi3
 429 055c 0030A0E1 		mov	r3, r0
 430 0560 0510A0E1 		mov	r1, r5
 431 0564 103084E5 		str	r3, [r4, #16]
 432 0568 A8009FE5 		ldr	r0, .L74+16
 433 056c FEFFFFEB 		bl	__udivsi3
 434 0570 0050A0E3 		mov	r5, #0
 435 0574 4030A0E3 		mov	r3, #64
 436 0578 140084E5 		str	r0, [r4, #20]
 437 057c 0C5084E5 		str	r5, [r4, #12]
 438 0580 003084E5 		str	r3, [r4, #0]
 439 0584 0020E0E3 		mvn	r2, #0
 440 0588 F33F12E5 		ldr	r3, [r2, #-4083]
 441 058c 023CC3E3 		bic	r3, r3, #512
 442 0590 F33F02E5 		str	r3, [r2, #-4083]
 443 0594 2930A0E3 		mov	r3, #41
 444 0598 EF3D02E5 		str	r3, [r2, #-3567]
 445 059c 78309FE5 		ldr	r3, .L74+20
 446 05a0 0100A0E3 		mov	r0, #1
 447 05a4 EF3E02E5 		str	r3, [r2, #-3823]
 448 05a8 FEFFFFEB 		bl	xQueueCreateMutex
 449 05ac 6C309FE5 		ldr	r3, .L74+24
 450 05b0 0510A0E1 		mov	r1, r5
 451 05b4 000083E5 		str	r0, [r3, #0]
 452 05b8 0320A0E3 		mov	r2, #3
 453 05bc 0100A0E3 		mov	r0, #1
 454 05c0 FEFFFFEB 		bl	xQueueGenericCreate
 455 05c4 58309FE5 		ldr	r3, .L74+28
 456 05c8 050050E1 		cmp	r0, r5
 457 05cc 000083E5 		str	r0, [r3, #0]
 458 05d0 0510A011 		movne	r1, r5
 459 05d4 0520A011 		movne	r2, r5
 460 05d8 0530A011 		movne	r3, r5
 461 05dc FEFFFF1B 		blne	xQueueGenericSend
 462              	.L72:
 463 05e0 3C309FE5 		ldr	r3, .L74+28
 464 05e4 0010A0E3 		mov	r1, #0
 465 05e8 000093E5 		ldr	r0, [r3, #0]
 466 05ec 0120A0E1 		mov	r2, r1
 467 05f0 0130A0E1 		mov	r3, r1
 468 05f4 FEFFFFEB 		bl	xQueueGenericReceive
 469 05f8 022CA0E3 		mov	r2, #512
 470 05fc 0030E0E3 		mvn	r3, #0
 471 0600 EF2F03E5 		str	r2, [r3, #-4079]
 472 0604 3080BDE8 		ldmfd	sp!, {r4, r5, pc}
 473              	.L75:
 474              		.align	2
 475              	.L74:
 476 0608 00C002E0 		.word	-536690688
 477 060c 40420F00 		.word	1000000
 478 0610 801A0600 		.word	400000
 479 0614 00C001E0 		.word	-536756224
 480 0618 00366E01 		.word	24000000
 481 061c 00000000 		.word	i2cISR
 482 0620 00000000 		.word	i2cLock
 483 0624 00000000 		.word	i2cReadCompleteSignal
 485              		.align	2
 487              	i2cISR:
 488              		@ Naked Function: prologue and epilogue provided by programmer.
 489              		@ args = 0, pretend = 0, frame = 4
 490              		@ frame_needed = 0, uses_anonymous_args = 0
 491              	@ 267 "../drivers/i2c.c" 1
 492 0628 01002DE9 		STMDB	SP!, {R0}											
 493 062c 00204DE9 		STMDB	SP,{SP}^											
 494 0630 0000A0E1 		NOP														
 495 0634 04D04DE2 		SUB	SP, SP, #4											
 496 0638 0100BDE8 		LDMIA	SP!,{R0}											
 497 063c 004020E9 		STMDB	R0!, {LR}											
 498 0640 00E0A0E1 		MOV	LR, R0												
 499 0644 0100BDE8 		LDMIA	SP!, {R0}											
 500 0648 FF7F4EE9 		STMDB	LR,{R0-LR}^											
 501 064c 0000A0E1 		NOP														
 502 0650 3CE04EE2 		SUB	LR, LR, #60											
 503 0654 00004FE1 		MRS	R0, SPSR											
 504 0658 01002EE9 		STMDB	LR!, {R0}											
 505 065c CC009FE5 		LDR	R0, =ulCriticalNesting								
 506 0660 000090E5 		LDR	R0, [R0]											
 507 0664 01002EE9 		STMDB	LR!, {R0}											
 508 0668 C4009FE5 		LDR	R0, =pxCurrentTCB									
 509 066c 000090E5 		LDR	R0, [R0]											
 510 0670 00E080E5 		STR	LR, [R0]											
 511              		
 512              	@ 0 "" 2
 513 0674 A4309FE5 		ldr	r3, .L82
 514 0678 003093E5 		ldr	r3, [r3, #0]
 515 067c A0309FE5 		ldr	r3, .L82+4
 516 0680 0040A0E3 		mov	r4, #0
 517 0684 003093E5 		ldr	r3, [r3, #0]
 518 0688 FEFFFFEB 		bl	runTimeStatISREntry
 519 068c 00408DE5 		str	r4, [sp, #0]
 520 0690 FEFFFFEB 		bl	i2cStateMachine
 521 0694 010050E3 		cmp	r0, #1
 522 0698 0410A001 		moveq	r1, r4
 523 069c 84309F05 		ldreq	r3, .L82+8
 524 06a0 0300000A 		beq	.L81
 525 06a4 020050E3 		cmp	r0, #2
 526 06a8 0500001A 		bne	.L78
 527 06ac 78309FE5 		ldr	r3, .L82+12
 528 06b0 0410A0E1 		mov	r1, r4
 529              	.L81:
 530 06b4 000093E5 		ldr	r0, [r3, #0]
 531 06b8 0D20A0E1 		mov	r2, sp
 532 06bc 0130A0E1 		mov	r3, r1
 533 06c0 FEFFFFEB 		bl	xQueueGenericSendFromISR
 534              	.L78:
 535 06c4 00309DE5 		ldr	r3, [sp, #0]
 536 06c8 000053E3 		cmp	r3, #0
 537 06cc FEFFFF1B 		blne	vTaskSwitchContext
 538              	.L79:
 539 06d0 0020A0E3 		mov	r2, #0
 540 06d4 0030E0E3 		mvn	r3, #0
 541 06d8 CF2F03E5 		str	r2, [r3, #-4047]
 542 06dc FEFFFFEB 		bl	runTimeStatISRExit
 543              	@ 288 "../drivers/i2c.c" 1
 544 06e0 4C009FE5 		LDR		R0, =pxCurrentTCB								
 545 06e4 000090E5 		LDR		R0, [R0]										
 546 06e8 00E090E5 		LDR		LR, [R0]										
 547 06ec 3C009FE5 		LDR		R0, =ulCriticalNesting							
 548 06f0 0200BEE8 		LDMFD	LR!, {R1}											
 549 06f4 001080E5 		STR		R1, [R0]										
 550 06f8 0100BEE8 		LDMFD	LR!, {R0}											
 551 06fc 00F069E1 		MSR		SPSR, R0										
 552 0700 FF7FDEE8 		LDMFD	LR, {R0-R14}^										
 553 0704 0000A0E1 		NOP														
 554 0708 3CE09EE5 		LDR		LR, [LR, #+60]									
 555 070c 04F05EE2 		SUBS	PC, LR, #4											
 556              		
 557              	@ 0 "" 2
 558 0710 08309FE5 		ldr	r3, .L82
 559 0714 003093E5 		ldr	r3, [r3, #0]
 560 0718 04309FE5 		ldr	r3, .L82+4
 561 071c 003093E5 		ldr	r3, [r3, #0]
 562              	.L83:
 563              		.align	2
 564              	.L82:
 565 0720 00000000 		.word	ulCriticalNesting
 566 0724 00000000 		.word	pxCurrentTCB
 567 0728 00000000 		.word	i2cReadCompleteSignal
 568 072c 00000000 		.word	i2cLock
 570              		.bss
 571              		.align	2
 572              	bPointer.1898:
 573 0000 00000000 		.space	4
 574              		.align	2
 575              	I2C_IOFRAME:
 576 0004 00000000 		.space	16
 576      00000000 
 576      00000000 
 576      00000000 
 577              		.comm	i2cReadCompleteSignal,4,4
 578              		.comm	i2cLock,4,4
 579              		.ident	"GCC: (GNU) 4.3.2"