   1              		.file	"pcm1774.c"
   2              		.text
   3              		.align	2
   4              		.global	pcm1774_readByte
   6              	pcm1774_readByte:
   7              		@ args = 0, pretend = 0, frame = 0
   8              		@ frame_needed = 0, uses_anonymous_args = 0
   9              		@ link register save eliminated.
  10 0000 FF1000E2 		and	r1, r0, #255
  11 0004 8C00A0E3 		mov	r0, #140
  12 0008 FEFFFFEA 		b	i2cReadDeviceRegister
  14              		.align	2
  15              		.global	pcm1774_readShortCircuitStatusRight
  17              	pcm1774_readShortCircuitStatusRight:
  18              		@ args = 0, pretend = 0, frame = 0
  19              		@ frame_needed = 0, uses_anonymous_args = 0
  20 000c 04E02DE5 		str	lr, [sp, #-4]!
  21 0010 4D10A0E3 		mov	r1, #77
  22 0014 8C00A0E3 		mov	r0, #140
  23 0018 FEFFFFEB 		bl	i2cReadDeviceRegister
  24 001c A001A0E1 		mov	r0, r0, lsr #3
  25 0020 010020E2 		eor	r0, r0, #1
  26 0024 010000E2 		and	r0, r0, #1
  27 0028 04F09DE4 		ldr	pc, [sp], #4
  29              		.align	2
  30              		.global	pcm1774_readShortCircuitStatusLeft
  32              	pcm1774_readShortCircuitStatusLeft:
  33              		@ args = 0, pretend = 0, frame = 0
  34              		@ frame_needed = 0, uses_anonymous_args = 0
  35 002c 04E02DE5 		str	lr, [sp, #-4]!
  36 0030 4D10A0E3 		mov	r1, #77
  37 0034 8C00A0E3 		mov	r0, #140
  38 0038 FEFFFFEB 		bl	i2cReadDeviceRegister
  39 003c 2001A0E1 		mov	r0, r0, lsr #2
  40 0040 010020E2 		eor	r0, r0, #1
  41 0044 010000E2 		and	r0, r0, #1
  42 0048 04F09DE4 		ldr	pc, [sp], #4
  44              		.align	2
  45              		.global	pcm1774_GetVolume
  47              	pcm1774_GetVolume:
  48              		@ args = 0, pretend = 0, frame = 0
  49              		@ frame_needed = 0, uses_anonymous_args = 0
  50 004c 10402DE9 		stmfd	sp!, {r4, lr}
  51 0050 4010A0E3 		mov	r1, #64
  52 0054 8C00A0E3 		mov	r0, #140
  53 0058 FEFFFFEB 		bl	i2cReadDeviceRegister
  54 005c 4110A0E3 		mov	r1, #65
  55 0060 0040A0E1 		mov	r4, r0
  56 0064 8C00A0E3 		mov	r0, #140
  57 0068 FEFFFFEB 		bl	i2cReadDeviceRegister
  58 006c 040080E0 		add	r0, r0, r4
  59 0070 A000A0E1 		mov	r0, r0, lsr #1
  60 0074 FF0000E2 		and	r0, r0, #255
  61 0078 1080BDE8 		ldmfd	sp!, {r4, pc}
  63              		.align	2
  64              		.global	pcm1774_sendByte
  66              	pcm1774_sendByte:
  67              		@ args = 0, pretend = 0, frame = 0
  68              		@ frame_needed = 0, uses_anonymous_args = 0
  69              		@ link register save eliminated.
  70 007c FF0000E2 		and	r0, r0, #255
  71 0080 FF2001E2 		and	r2, r1, #255
  72 0084 0010A0E1 		mov	r1, r0
  73 0088 8C00A0E3 		mov	r0, #140
  74 008c FEFFFFEA 		b	i2cWriteDeviceRegister
  76              		.align	2
  77              		.global	pcm1774_trebleBoost
  79              	pcm1774_trebleBoost:
  80              		@ args = 0, pretend = 0, frame = 28
  81              		@ frame_needed = 0, uses_anonymous_args = 0
  82 0090 10402DE9 		stmfd	sp!, {r4, lr}
  83 0094 1CD04DE2 		sub	sp, sp, #28
  84 0098 004CA0E1 		mov	r4, r0, asl #24
  85 009c 38109FE5 		ldr	r1, .L14
  86 00a0 1920A0E3 		mov	r2, #25
  87 00a4 03008DE2 		add	r0, sp, #3
  88 00a8 FEFFFFEB 		bl	memcpy
  89 00ac 444CA0E1 		mov	r4, r4, asr #24
  90 00b0 0C3084E2 		add	r3, r4, #12
  91 00b4 180053E3 		cmp	r3, #24
  92 00b8 1C208DE2 		add	r2, sp, #28
  93 00bc 0040A083 		movhi	r4, #0
  94 00c0 043082E0 		add	r3, r2, r4
  95 00c4 0D2053E5 		ldrb	r2, [r3, #-13]	@ zero_extendqisi2
  96 00c8 8C00A0E3 		mov	r0, #140
  97 00cc 5E10A0E3 		mov	r1, #94
  98 00d0 1CD08DE2 		add	sp, sp, #28
  99 00d4 1040BDE8 		ldmfd	sp!, {r4, lr}
 100 00d8 FEFFFFEA 		b	i2cWriteDeviceRegister
 101              	.L15:
 102              		.align	2
 103              	.L14:
 104 00dc 00000000 		.word	C.6.1493
 106              		.align	2
 107              		.global	pcm1774_middleBoost
 109              	pcm1774_middleBoost:
 110              		@ args = 0, pretend = 0, frame = 28
 111              		@ frame_needed = 0, uses_anonymous_args = 0
 112 00e0 10402DE9 		stmfd	sp!, {r4, lr}
 113 00e4 1CD04DE2 		sub	sp, sp, #28
 114 00e8 004CA0E1 		mov	r4, r0, asl #24
 115 00ec 38109FE5 		ldr	r1, .L19
 116 00f0 1920A0E3 		mov	r2, #25
 117 00f4 03008DE2 		add	r0, sp, #3
 118 00f8 FEFFFFEB 		bl	memcpy
 119 00fc 444CA0E1 		mov	r4, r4, asr #24
 120 0100 0C3084E2 		add	r3, r4, #12
 121 0104 180053E3 		cmp	r3, #24
 122 0108 1C208DE2 		add	r2, sp, #28
 123 010c 0040A083 		movhi	r4, #0
 124 0110 043082E0 		add	r3, r2, r4
 125 0114 0D2053E5 		ldrb	r2, [r3, #-13]	@ zero_extendqisi2
 126 0118 8C00A0E3 		mov	r0, #140
 127 011c 5D10A0E3 		mov	r1, #93
 128 0120 1CD08DE2 		add	sp, sp, #28
 129 0124 1040BDE8 		ldmfd	sp!, {r4, lr}
 130 0128 FEFFFFEA 		b	i2cWriteDeviceRegister
 131              	.L20:
 132              		.align	2
 133              	.L19:
 134 012c 00000000 		.word	C.6.1493
 136              		.align	2
 137              		.global	pcm1774_bassBoost
 139              	pcm1774_bassBoost:
 140              		@ args = 0, pretend = 0, frame = 28
 141              		@ frame_needed = 0, uses_anonymous_args = 0
 142 0130 10402DE9 		stmfd	sp!, {r4, lr}
 143 0134 1CD04DE2 		sub	sp, sp, #28
 144 0138 004CA0E1 		mov	r4, r0, asl #24
 145 013c 38109FE5 		ldr	r1, .L24
 146 0140 1920A0E3 		mov	r2, #25
 147 0144 03008DE2 		add	r0, sp, #3
 148 0148 FEFFFFEB 		bl	memcpy
 149 014c 444CA0E1 		mov	r4, r4, asr #24
 150 0150 0C3084E2 		add	r3, r4, #12
 151 0154 180053E3 		cmp	r3, #24
 152 0158 1C208DE2 		add	r2, sp, #28
 153 015c 0040A083 		movhi	r4, #0
 154 0160 043082E0 		add	r3, r2, r4
 155 0164 0D2053E5 		ldrb	r2, [r3, #-13]	@ zero_extendqisi2
 156 0168 8C00A0E3 		mov	r0, #140
 157 016c 5C10A0E3 		mov	r1, #92
 158 0170 1CD08DE2 		add	sp, sp, #28
 159 0174 1040BDE8 		ldmfd	sp!, {r4, lr}
 160 0178 FEFFFFEA 		b	i2cWriteDeviceRegister
 161              	.L25:
 162              		.align	2
 163              	.L24:
 164 017c 00000000 		.word	C.6.1493
 166              		.global	__divsi3
 167              		.align	2
 168              		.global	pcm1774_DigitalVolume
 170              	pcm1774_DigitalVolume:
 171              		@ args = 0, pretend = 0, frame = 0
 172              		@ frame_needed = 0, uses_anonymous_args = 0
 173 0180 BE30A0E3 		mov	r3, #190
 174 0184 10402DE9 		stmfd	sp!, {r4, lr}
 175 0188 930000E0 		mul	r0, r3, r0
 176 018c 930104E0 		mul	r4, r3, r1
 177 0190 4B1FA0E3 		mov	r1, #300
 178 0194 FEFFFFEB 		bl	__divsi3
 179 0198 4410A0E3 		mov	r1, #68
 180 019c 3F2000E2 		and	r2, r0, #63
 181 01a0 8C00A0E3 		mov	r0, #140
 182 01a4 FEFFFFEB 		bl	i2cWriteDeviceRegister
 183 01a8 0400A0E1 		mov	r0, r4
 184 01ac 4B1FA0E3 		mov	r1, #300
 185 01b0 FEFFFFEB 		bl	__divsi3
 186 01b4 4510A0E3 		mov	r1, #69
 187 01b8 3F2000E2 		and	r2, r0, #63
 188 01bc 8C00A0E3 		mov	r0, #140
 189 01c0 1040BDE8 		ldmfd	sp!, {r4, lr}
 190 01c4 FEFFFFEA 		b	i2cWriteDeviceRegister
 192              		.align	2
 193              		.global	pcm1774_VolumeAdjust
 195              	pcm1774_VolumeAdjust:
 196              		@ args = 0, pretend = 0, frame = 0
 197              		@ frame_needed = 0, uses_anonymous_args = 0
 198 01c8 70402DE9 		stmfd	sp!, {r4, r5, r6, lr}
 199 01cc 4010A0E3 		mov	r1, #64
 200 01d0 0060A0E1 		mov	r6, r0
 201 01d4 8C00A0E3 		mov	r0, #140
 202 01d8 FEFFFFEB 		bl	i2cReadDeviceRegister
 203 01dc BE30A0E3 		mov	r3, #190
 204 01e0 0050A0E1 		mov	r5, r0
 205 01e4 4B1FA0E3 		mov	r1, #300
 206 01e8 930600E0 		mul	r0, r3, r6
 207 01ec FEFFFFEB 		bl	__divsi3
 208 01f0 4110A0E3 		mov	r1, #65
 209 01f4 FF4000E2 		and	r4, r0, #255
 210 01f8 8C00A0E3 		mov	r0, #140
 211 01fc FEFFFFEB 		bl	i2cReadDeviceRegister
 212 0200 055084E0 		add	r5, r4, r5
 213 0204 000056E3 		cmp	r6, #0
 214 0208 004084E0 		add	r4, r4, r0
 215 020c FF5005E2 		and	r5, r5, #255
 216 0210 FF4004E2 		and	r4, r4, #255
 217 0214 040000DA 		ble	.L29
 218 0218 3F0054E3 		cmp	r4, #63
 219 021c 3F005593 		cmpls	r5, #63
 220 0220 3F50A083 		movhi	r5, #63
 221 0224 0500008A 		bhi	.L33
 222 0228 050000EA 		b	.L31
 223              	.L29:
 224 022c 0400000A 		beq	.L31
 225 0230 3F0054E3 		cmp	r4, #63
 226 0234 3F005593 		cmpls	r5, #63
 227 0238 0100009A 		bls	.L31
 228 023c 0050A0E3 		mov	r5, #0
 229              	.L33:
 230 0240 0540A0E1 		mov	r4, r5
 231              	.L31:
 232 0244 0520A0E1 		mov	r2, r5
 233 0248 4010A0E3 		mov	r1, #64
 234 024c 8C00A0E3 		mov	r0, #140
 235 0250 FEFFFFEB 		bl	i2cWriteDeviceRegister
 236 0254 0420A0E1 		mov	r2, r4
 237 0258 8C00A0E3 		mov	r0, #140
 238 025c 4110A0E3 		mov	r1, #65
 239 0260 7040BDE8 		ldmfd	sp!, {r4, r5, r6, lr}
 240 0264 FEFFFFEA 		b	i2cWriteDeviceRegister
 242              		.align	2
 243              		.global	pcm1774_OutputVolume
 245              	pcm1774_OutputVolume:
 246              		@ args = 0, pretend = 0, frame = 0
 247              		@ frame_needed = 0, uses_anonymous_args = 0
 248 0268 BE30A0E3 		mov	r3, #190
 249 026c 10402DE9 		stmfd	sp!, {r4, lr}
 250 0270 930000E0 		mul	r0, r3, r0
 251 0274 930104E0 		mul	r4, r3, r1
 252 0278 4B1FA0E3 		mov	r1, #300
 253 027c FEFFFFEB 		bl	__divsi3
 254 0280 4010A0E3 		mov	r1, #64
 255 0284 3F2000E2 		and	r2, r0, #63
 256 0288 8C00A0E3 		mov	r0, #140
 257 028c FEFFFFEB 		bl	i2cWriteDeviceRegister
 258 0290 0400A0E1 		mov	r0, r4
 259 0294 4B1FA0E3 		mov	r1, #300
 260 0298 FEFFFFEB 		bl	__divsi3
 261 029c 4110A0E3 		mov	r1, #65
 262 02a0 3F2000E2 		and	r2, r0, #63
 263 02a4 8C00A0E3 		mov	r0, #140
 264 02a8 1040BDE8 		ldmfd	sp!, {r4, lr}
 265 02ac FEFFFFEA 		b	i2cWriteDeviceRegister
 267              		.align	2
 268              		.global	initialize_pcm1774
 270              	initialize_pcm1774:
 271              		@ args = 0, pretend = 0, frame = 0
 272              		@ frame_needed = 0, uses_anonymous_args = 0
 273 02b0 04E02DE5 		str	lr, [sp, #-4]!
 274 02b4 4010A0E3 		mov	r1, #64
 275 02b8 2720A0E3 		mov	r2, #39
 276 02bc 8C00A0E3 		mov	r0, #140
 277 02c0 FEFFFFEB 		bl	i2cWriteDeviceRegister
 278 02c4 4110A0E3 		mov	r1, #65
 279 02c8 2720A0E3 		mov	r2, #39
 280 02cc 8C00A0E3 		mov	r0, #140
 281 02d0 FEFFFFEB 		bl	i2cWriteDeviceRegister
 282 02d4 4410A0E3 		mov	r1, #68
 283 02d8 2720A0E3 		mov	r2, #39
 284 02dc 8C00A0E3 		mov	r0, #140
 285 02e0 FEFFFFEB 		bl	i2cWriteDeviceRegister
 286 02e4 4510A0E3 		mov	r1, #69
 287 02e8 2720A0E3 		mov	r2, #39
 288 02ec 8C00A0E3 		mov	r0, #140
 289 02f0 FEFFFFEB 		bl	i2cWriteDeviceRegister
 290 02f4 4610A0E3 		mov	r1, #70
 291 02f8 2020A0E3 		mov	r2, #32
 292 02fc 8C00A0E3 		mov	r0, #140
 293 0300 FEFFFFEB 		bl	i2cWriteDeviceRegister
 294 0304 4910A0E3 		mov	r1, #73
 295 0308 E020A0E3 		mov	r2, #224
 296 030c 8C00A0E3 		mov	r0, #140
 297 0310 FEFFFFEB 		bl	i2cWriteDeviceRegister
 298 0314 5610A0E3 		mov	r1, #86
 299 0318 0120A0E3 		mov	r2, #1
 300 031c 8C00A0E3 		mov	r0, #140
 301 0320 FEFFFFEB 		bl	i2cWriteDeviceRegister
 302 0324 4810A0E3 		mov	r1, #72
 303 0328 0320A0E3 		mov	r2, #3
 304 032c 8C00A0E3 		mov	r0, #140
 305 0330 FEFFFFEB 		bl	i2cWriteDeviceRegister
 306 0334 5810A0E3 		mov	r1, #88
 307 0338 1120A0E3 		mov	r2, #17
 308 033c 8C00A0E3 		mov	r0, #140
 309 0340 FEFFFFEB 		bl	i2cWriteDeviceRegister
 310 0344 4910A0E3 		mov	r1, #73
 311 0348 EC20A0E3 		mov	r2, #236
 312 034c 8C00A0E3 		mov	r0, #140
 313 0350 FEFFFFEB 		bl	i2cWriteDeviceRegister
 314 0354 4A10A0E3 		mov	r1, #74
 315 0358 0120A0E3 		mov	r2, #1
 316 035c 8C00A0E3 		mov	r0, #140
 317 0360 FEFFFFEB 		bl	i2cWriteDeviceRegister
 318 0364 5210A0E3 		mov	r1, #82
 319 0368 3020A0E3 		mov	r2, #48
 320 036c 8C00A0E3 		mov	r0, #140
 321 0370 FEFFFFEB 		bl	i2cWriteDeviceRegister
 322 0374 0020A0E3 		mov	r2, #0
 323 0378 5710A0E3 		mov	r1, #87
 324 037c 8C00A0E3 		mov	r0, #140
 325 0380 FEFFFFEB 		bl	i2cWriteDeviceRegister
 326 0384 5A00A0E3 		mov	r0, #90
 327 0388 0010A0E1 		mov	r1, r0
 328 038c FEFFFFEB 		bl	pcm1774_DigitalVolume
 329 0390 3200A0E3 		mov	r0, #50
 330 0394 0010A0E1 		mov	r1, r0
 331 0398 FEFFFFEB 		bl	pcm1774_OutputVolume
 332 039c 0100A0E3 		mov	r0, #1
 333 03a0 04F09DE4 		ldr	pc, [sp], #4
 335              		.align	2
 336              		.global	pcm1774_bitMask
 338              	pcm1774_bitMask:
 339              		@ args = 0, pretend = 0, frame = 0
 340              		@ frame_needed = 0, uses_anonymous_args = 0
 341 03a4 FF0012E3 		tst	r2, #255
 342 03a8 30402DE9 		stmfd	sp!, {r4, r5, lr}
 343 03ac FF4000E2 		and	r4, r0, #255
 344 03b0 FF5001E2 		and	r5, r1, #255
 345 03b4 0400000A 		beq	.L39
 346 03b8 8C00A0E3 		mov	r0, #140
 347 03bc 0410A0E1 		mov	r1, r4
 348 03c0 FEFFFFEB 		bl	i2cReadDeviceRegister
 349 03c4 000085E1 		orr	r0, r5, r0
 350 03c8 030000EA 		b	.L42
 351              	.L39:
 352 03cc 8C00A0E3 		mov	r0, #140
 353 03d0 0410A0E1 		mov	r1, r4
 354 03d4 FEFFFFEB 		bl	i2cReadDeviceRegister
 355 03d8 0500C0E1 		bic	r0, r0, r5
 356              	.L42:
 357 03dc FF2000E2 		and	r2, r0, #255
 358 03e0 0410A0E1 		mov	r1, r4
 359 03e4 8C00A0E3 		mov	r0, #140
 360 03e8 3040BDE8 		ldmfd	sp!, {r4, r5, lr}
 361 03ec FEFFFFEA 		b	i2cWriteDeviceRegister
 363              		.align	2
 364              		.global	pcm1774_redirectAnalogInputToRightOutput
 366              	pcm1774_redirectAnalogInputToRightOutput:
 367              		@ args = 0, pretend = 0, frame = 0
 368              		@ frame_needed = 0, uses_anonymous_args = 0
 369 03f0 30402DE9 		stmfd	sp!, {r4, r5, lr}
 370 03f4 0020A0E3 		mov	r2, #0
 371 03f8 0150A0E1 		mov	r5, r1
 372 03fc FF4000E2 		and	r4, r0, #255
 373 0400 6010A0E3 		mov	r1, #96
 374 0404 5800A0E3 		mov	r0, #88
 375 0408 FEFFFFEB 		bl	pcm1774_bitMask
 376 040c FF5005E2 		and	r5, r5, #255
 377 0410 0443A0E1 		mov	r4, r4, asl #6
 378 0414 854284E1 		orr	r4, r4, r5, asl #5
 379 0418 E01004E2 		and	r1, r4, #224
 380 041c 5800A0E3 		mov	r0, #88
 381 0420 0120A0E3 		mov	r2, #1
 382 0424 3040BDE8 		ldmfd	sp!, {r4, r5, lr}
 383 0428 FEFFFFEA 		b	pcm1774_bitMask
 385              		.align	2
 386              		.global	pcm1774_redirectAnalogInputToLeftOutput
 388              	pcm1774_redirectAnalogInputToLeftOutput:
 389              		@ args = 0, pretend = 0, frame = 0
 390              		@ frame_needed = 0, uses_anonymous_args = 0
 391 042c 30402DE9 		stmfd	sp!, {r4, r5, lr}
 392 0430 0020A0E3 		mov	r2, #0
 393 0434 0150A0E1 		mov	r5, r1
 394 0438 FF4000E2 		and	r4, r0, #255
 395 043c 0610A0E3 		mov	r1, #6
 396 0440 5800A0E3 		mov	r0, #88
 397 0444 FEFFFFEB 		bl	pcm1774_bitMask
 398 0448 FF5005E2 		and	r5, r5, #255
 399 044c 8440A0E1 		mov	r4, r4, asl #1
 400 0450 054184E1 		orr	r4, r4, r5, asl #2
 401 0454 FE1004E2 		and	r1, r4, #254
 402 0458 5800A0E3 		mov	r0, #88
 403 045c 0120A0E3 		mov	r2, #1
 404 0460 3040BDE8 		ldmfd	sp!, {r4, r5, lr}
 405 0464 FEFFFFEA 		b	pcm1774_bitMask
 407              		.align	2
 408              		.global	pcm1774_gainAmplifierAnalogInput
 410              	pcm1774_gainAmplifierAnalogInput:
 411              		@ args = 0, pretend = 0, frame = 0
 412              		@ frame_needed = 0, uses_anonymous_args = 0
 413 0468 30402DE9 		stmfd	sp!, {r4, r5, lr}
 414 046c 0020A0E3 		mov	r2, #0
 415 0470 0050A0E1 		mov	r5, r0
 416 0474 0140A0E1 		mov	r4, r1
 417 0478 5900A0E3 		mov	r0, #89
 418 047c 7710A0E3 		mov	r1, #119
 419 0480 FEFFFFEB 		bl	pcm1774_bitMask
 420 0484 074004E2 		and	r4, r4, #7
 421 0488 075005E2 		and	r5, r5, #7
 422 048c 041285E1 		orr	r1, r5, r4, asl #4
 423 0490 5900A0E3 		mov	r0, #89
 424 0494 0120A0E3 		mov	r2, #1
 425 0498 3040BDE8 		ldmfd	sp!, {r4, r5, lr}
 426 049c FEFFFFEA 		b	pcm1774_bitMask
 428              		.align	2
 429              		.global	pcm1774_selectAnalogInput
 431              	pcm1774_selectAnalogInput:
 432              		@ args = 0, pretend = 0, frame = 0
 433              		@ frame_needed = 0, uses_anonymous_args = 0
 434 04a0 10402DE9 		stmfd	sp!, {r4, lr}
 435 04a4 FF2000E2 		and	r2, r0, #255
 436 04a8 FF4001E2 		and	r4, r1, #255
 437 04ac 5700A0E3 		mov	r0, #87
 438 04b0 0110A0E3 		mov	r1, #1
 439 04b4 FEFFFFEB 		bl	pcm1774_bitMask
 440 04b8 0420A0E1 		mov	r2, r4
 441 04bc 5700A0E3 		mov	r0, #87
 442 04c0 1010A0E3 		mov	r1, #16
 443 04c4 1040BDE8 		ldmfd	sp!, {r4, lr}
 444 04c8 FEFFFFEA 		b	pcm1774_bitMask
 446              		.align	2
 447              		.global	pcm1774_PowerUpGainAmplifierAnalog
 449              	pcm1774_PowerUpGainAmplifierAnalog:
 450              		@ args = 0, pretend = 0, frame = 0
 451              		@ frame_needed = 0, uses_anonymous_args = 0
 452 04cc 10402DE9 		stmfd	sp!, {r4, lr}
 453 04d0 FF2000E2 		and	r2, r0, #255
 454 04d4 FF4001E2 		and	r4, r1, #255
 455 04d8 5200A0E3 		mov	r0, #82
 456 04dc 1010A0E3 		mov	r1, #16
 457 04e0 FEFFFFEB 		bl	pcm1774_bitMask
 458 04e4 0420A0E1 		mov	r2, r4
 459 04e8 5200A0E3 		mov	r0, #82
 460 04ec 2010A0E3 		mov	r1, #32
 461 04f0 1040BDE8 		ldmfd	sp!, {r4, lr}
 462 04f4 FEFFFFEA 		b	pcm1774_bitMask
 464              		.align	2
 465              		.global	pcm1774_setShortCircuitProtectionRight
 467              	pcm1774_setShortCircuitProtectionRight:
 468              		@ args = 0, pretend = 0, frame = 0
 469              		@ frame_needed = 0, uses_anonymous_args = 0
 470              		@ link register save eliminated.
 471 04f8 FF0010E3 		tst	r0, #255
 472 04fc 4A00A013 		movne	r0, #74
 473 0500 0810A013 		movne	r1, #8
 474 0504 0020A013 		movne	r2, #0
 475 0508 4A00A003 		moveq	r0, #74
 476 050c 0810A003 		moveq	r1, #8
 477 0510 0120A003 		moveq	r2, #1
 478 0514 FEFFFFEA 		b	pcm1774_bitMask
 480              		.align	2
 481              		.global	pcm1774_setShortCircuitProtectionLeft
 483              	pcm1774_setShortCircuitProtectionLeft:
 484              		@ args = 0, pretend = 0, frame = 0
 485              		@ frame_needed = 0, uses_anonymous_args = 0
 486              		@ link register save eliminated.
 487 0518 FF0010E3 		tst	r0, #255
 488 051c 4A00A013 		movne	r0, #74
 489 0520 0410A013 		movne	r1, #4
 490 0524 0020A013 		movne	r2, #0
 491 0528 4A00A003 		moveq	r0, #74
 492 052c 0410A003 		moveq	r1, #4
 493 0530 0120A003 		moveq	r2, #1
 494 0534 FEFFFFEA 		b	pcm1774_bitMask
 496              		.align	2
 497              		.global	pcm1774_PowerUpVcom
 499              	pcm1774_PowerUpVcom:
 500              		@ args = 0, pretend = 0, frame = 0
 501              		@ frame_needed = 0, uses_anonymous_args = 0
 502              		@ link register save eliminated.
 503 0538 FF2000E2 		and	r2, r0, #255
 504 053c 0110A0E3 		mov	r1, #1
 505 0540 4A00A0E3 		mov	r0, #74
 506 0544 FEFFFFEA 		b	pcm1774_bitMask
 508              		.align	2
 509              		.global	pcm1774_LineOutputConfiguration
 511              	pcm1774_LineOutputConfiguration:
 512              		@ args = 0, pretend = 0, frame = 0
 513              		@ frame_needed = 0, uses_anonymous_args = 0
 514 0548 10402DE9 		stmfd	sp!, {r4, lr}
 515 054c 0C10A0E3 		mov	r1, #12
 516 0550 FF4000E2 		and	r4, r0, #255
 517 0554 0020A0E3 		mov	r2, #0
 518 0558 4A00A0E3 		mov	r0, #74
 519 055c FEFFFFEB 		bl	pcm1774_bitMask
 520 0560 010054E3 		cmp	r4, #1
 521 0564 4A00A003 		moveq	r0, #74
 522 0568 C010A003 		moveq	r1, #192
 523 056c 0420A003 		moveq	r2, #4
 524 0570 0600000A 		beq	.L69
 525 0574 020054E3 		cmp	r4, #2
 526 0578 4A00A013 		movne	r0, #74
 527 057c C010A013 		movne	r1, #192
 528 0580 0020A013 		movne	r2, #0
 529 0584 4A00A003 		moveq	r0, #74
 530 0588 C010A003 		moveq	r1, #192
 531 058c 0820A003 		moveq	r2, #8
 532              	.L69:
 533 0590 1040BDE8 		ldmfd	sp!, {r4, lr}
 534 0594 FEFFFFEA 		b	pcm1774_bitMask
 536              		.align	2
 537              		.global	pcm1774_PowerUpAnalog
 539              	pcm1774_PowerUpAnalog:
 540              		@ args = 0, pretend = 0, frame = 0
 541              		@ frame_needed = 0, uses_anonymous_args = 0
 542 0598 10402DE9 		stmfd	sp!, {r4, lr}
 543 059c FF2000E2 		and	r2, r0, #255
 544 05a0 FF4001E2 		and	r4, r1, #255
 545 05a4 4900A0E3 		mov	r0, #73
 546 05a8 0410A0E3 		mov	r1, #4
 547 05ac FEFFFFEB 		bl	pcm1774_bitMask
 548 05b0 0420A0E1 		mov	r2, r4
 549 05b4 4900A0E3 		mov	r0, #73
 550 05b8 0810A0E3 		mov	r1, #8
 551 05bc 1040BDE8 		ldmfd	sp!, {r4, lr}
 552 05c0 FEFFFFEA 		b	pcm1774_bitMask
 554              		.align	2
 555              		.global	pcm1774_PowerUpDAC
 557              	pcm1774_PowerUpDAC:
 558              		@ args = 0, pretend = 0, frame = 0
 559              		@ frame_needed = 0, uses_anonymous_args = 0
 560 05c4 10402DE9 		stmfd	sp!, {r4, lr}
 561 05c8 FF2000E2 		and	r2, r0, #255
 562 05cc FF4001E2 		and	r4, r1, #255
 563 05d0 4900A0E3 		mov	r0, #73
 564 05d4 2010A0E3 		mov	r1, #32
 565 05d8 FEFFFFEB 		bl	pcm1774_bitMask
 566 05dc 0420A0E1 		mov	r2, r4
 567 05e0 4900A0E3 		mov	r0, #73
 568 05e4 4010A0E3 		mov	r1, #64
 569 05e8 1040BDE8 		ldmfd	sp!, {r4, lr}
 570 05ec FEFFFFEA 		b	pcm1774_bitMask
 572              		.align	2
 573              		.global	pcm1774_PowerUpAnalogBiasControl
 575              	pcm1774_PowerUpAnalogBiasControl:
 576              		@ args = 0, pretend = 0, frame = 0
 577              		@ frame_needed = 0, uses_anonymous_args = 0
 578              		@ link register save eliminated.
 579 05f0 FF2000E2 		and	r2, r0, #255
 580 05f4 8010A0E3 		mov	r1, #128
 581 05f8 4900A0E3 		mov	r0, #73
 582 05fc FEFFFFEA 		b	pcm1774_bitMask
 584              		.align	2
 585              		.global	pcm1774_PowerUpMixer
 587              	pcm1774_PowerUpMixer:
 588              		@ args = 0, pretend = 0, frame = 0
 589              		@ frame_needed = 0, uses_anonymous_args = 0
 590 0600 10402DE9 		stmfd	sp!, {r4, lr}
 591 0604 FF2000E2 		and	r2, r0, #255
 592 0608 FF4001E2 		and	r4, r1, #255
 593 060c 4800A0E3 		mov	r0, #72
 594 0610 0110A0E3 		mov	r1, #1
 595 0614 FEFFFFEB 		bl	pcm1774_bitMask
 596 0618 0420A0E1 		mov	r2, r4
 597 061c 4800A0E3 		mov	r0, #72
 598 0620 0210A0E3 		mov	r1, #2
 599 0624 1040BDE8 		ldmfd	sp!, {r4, lr}
 600 0628 FEFFFFEA 		b	pcm1774_bitMask
 602              		.align	2
 603              		.global	pcm1774_DigitalOversamplingControl
 605              	pcm1774_DigitalOversamplingControl:
 606              		@ args = 0, pretend = 0, frame = 0
 607              		@ frame_needed = 0, uses_anonymous_args = 0
 608              		@ link register save eliminated.
 609 062c FF2000E2 		and	r2, r0, #255
 610 0630 0110A0E3 		mov	r1, #1
 611 0634 4600A0E3 		mov	r0, #70
 612 0638 FEFFFFEA 		b	pcm1774_bitMask
 614              		.align	2
 615              		.global	pcm1774_DigitalGainControl
 617              	pcm1774_DigitalGainControl:
 618              		@ args = 0, pretend = 0, frame = 0
 619              		@ frame_needed = 0, uses_anonymous_args = 0
 620 063c 10402DE9 		stmfd	sp!, {r4, lr}
 621 0640 0C10A0E3 		mov	r1, #12
 622 0644 0040A0E1 		mov	r4, r0
 623 0648 0020A0E3 		mov	r2, #0
 624 064c 4600A0E3 		mov	r0, #70
 625 0650 FEFFFFEB 		bl	pcm1774_bitMask
 626 0654 034004E2 		and	r4, r4, #3
 627 0658 0411A0E1 		mov	r1, r4, asl #2
 628 065c 4600A0E3 		mov	r0, #70
 629 0660 0120A0E3 		mov	r2, #1
 630 0664 1040BDE8 		ldmfd	sp!, {r4, lr}
 631 0668 FEFFFFEA 		b	pcm1774_bitMask
 633              		.align	2
 634              		.global	pcm1774_DigitalInterfaceSelection
 636              	pcm1774_DigitalInterfaceSelection:
 637              		@ args = 0, pretend = 0, frame = 0
 638              		@ frame_needed = 0, uses_anonymous_args = 0
 639 066c 10402DE9 		stmfd	sp!, {r4, lr}
 640 0670 3010A0E3 		mov	r1, #48
 641 0674 0040A0E1 		mov	r4, r0
 642 0678 0020A0E3 		mov	r2, #0
 643 067c 4600A0E3 		mov	r0, #70
 644 0680 FEFFFFEB 		bl	pcm1774_bitMask
 645 0684 034004E2 		and	r4, r4, #3
 646 0688 0412A0E1 		mov	r1, r4, asl #4
 647 068c 4600A0E3 		mov	r0, #70
 648 0690 0120A0E3 		mov	r2, #1
 649 0694 1040BDE8 		ldmfd	sp!, {r4, lr}
 650 0698 FEFFFFEA 		b	pcm1774_bitMask
 652              		.align	2
 653              		.global	pcm1774_DigitalDeEmphasisFilter
 655              	pcm1774_DigitalDeEmphasisFilter:
 656              		@ args = 0, pretend = 0, frame = 0
 657              		@ frame_needed = 0, uses_anonymous_args = 0
 658 069c 10402DE9 		stmfd	sp!, {r4, lr}
 659 06a0 C010A0E3 		mov	r1, #192
 660 06a4 FF4000E2 		and	r4, r0, #255
 661 06a8 0020A0E3 		mov	r2, #0
 662 06ac 4600A0E3 		mov	r0, #70
 663 06b0 FEFFFFEB 		bl	pcm1774_bitMask
 664 06b4 0443A0E1 		mov	r4, r4, asl #6
 665 06b8 C01004E2 		and	r1, r4, #192
 666 06bc 4600A0E3 		mov	r0, #70
 667 06c0 0120A0E3 		mov	r2, #1
 668 06c4 1040BDE8 		ldmfd	sp!, {r4, lr}
 669 06c8 FEFFFFEA 		b	pcm1774_bitMask
 671              		.align	2
 672              		.global	pcm1774_ConnectDigitalOutputs
 674              	pcm1774_ConnectDigitalOutputs:
 675              		@ args = 0, pretend = 0, frame = 0
 676              		@ frame_needed = 0, uses_anonymous_args = 0
 677 06cc 10402DE9 		stmfd	sp!, {r4, lr}
 678 06d0 FF2000E2 		and	r2, r0, #255
 679 06d4 FF4001E2 		and	r4, r1, #255
 680 06d8 5800A0E3 		mov	r0, #88
 681 06dc 0110A0E3 		mov	r1, #1
 682 06e0 FEFFFFEB 		bl	pcm1774_bitMask
 683 06e4 0420A0E1 		mov	r2, r4
 684 06e8 5800A0E3 		mov	r0, #88
 685 06ec 1010A0E3 		mov	r1, #16
 686 06f0 1040BDE8 		ldmfd	sp!, {r4, lr}
 687 06f4 FEFFFFEA 		b	pcm1774_bitMask
 689              		.align	2
 690              		.global	pcm1774_LoadDefaultDigitalConfiguration
 692              	pcm1774_LoadDefaultDigitalConfiguration:
 693              		@ args = 0, pretend = 0, frame = 0
 694              		@ frame_needed = 0, uses_anonymous_args = 0
 695 06f8 04E02DE5 		str	lr, [sp, #-4]!
 696 06fc FEFFFFEB 		bl	initialize_pcm1774
 697 0700 0100A0E3 		mov	r0, #1
 698 0704 0010A0E1 		mov	r1, r0
 699 0708 FEFFFFEB 		bl	pcm1774_PowerUpMixer
 700 070c 0100A0E3 		mov	r0, #1
 701 0710 0010A0E1 		mov	r1, r0
 702 0714 FEFFFFEB 		bl	pcm1774_PowerUpAnalog
 703 0718 0100A0E3 		mov	r0, #1
 704 071c 0010A0E1 		mov	r1, r0
 705 0720 FEFFFFEB 		bl	pcm1774_PowerUpGainAmplifierAnalog
 706 0724 0000A0E3 		mov	r0, #0
 707 0728 0010A0E1 		mov	r1, r0
 708 072c FEFFFFEB 		bl	pcm1774_selectAnalogInput
 709 0730 0000A0E3 		mov	r0, #0
 710 0734 0010A0E1 		mov	r1, r0
 711 0738 FEFFFFEB 		bl	pcm1774_redirectAnalogInputToLeftOutput
 712 073c 0000A0E3 		mov	r0, #0
 713 0740 0010A0E1 		mov	r1, r0
 714 0744 FEFFFFEB 		bl	pcm1774_redirectAnalogInputToRightOutput
 715 0748 0400A0E3 		mov	r0, #4
 716 074c 0010A0E1 		mov	r1, r0
 717 0750 FEFFFFEB 		bl	pcm1774_gainAmplifierAnalogInput
 718 0754 0100A0E3 		mov	r0, #1
 719 0758 0010A0E1 		mov	r1, r0
 720 075c FEFFFFEB 		bl	pcm1774_ConnectDigitalOutputs
 721 0760 2800A0E3 		mov	r0, #40
 722 0764 0010A0E1 		mov	r1, r0
 723 0768 FEFFFFEB 		bl	pcm1774_DigitalVolume
 724 076c 3200A0E3 		mov	r0, #50
 725 0770 0010A0E1 		mov	r1, r0
 726 0774 04E09DE4 		ldr	lr, [sp], #4
 727 0778 FEFFFFEA 		b	pcm1774_OutputVolume
 729              		.align	2
 730              		.global	pcm1774_3dSoundEffect
 732              	pcm1774_3dSoundEffect:
 733              		@ args = 0, pretend = 0, frame = 0
 734              		@ frame_needed = 0, uses_anonymous_args = 0
 735              		@ link register save eliminated.
 736 077c FF2001E2 		and	r2, r1, #255
 737 0780 FF0010E3 		tst	r0, #255
 738 0784 0010A013 		movne	r1, #0
 739 0788 1010A003 		moveq	r1, #16
 740 078c 0A0052E3 		cmp	r2, #10
 741 0790 0A20A083 		movhi	r2, #10
 742 0794 0400008A 		bhi	.L94
 743 0798 000052E3 		cmp	r2, #0
 744 079c 0200001A 		bne	.L94
 745 07a0 8C00A0E3 		mov	r0, #140
 746 07a4 5F10A0E3 		mov	r1, #95
 747 07a8 FEFFFFEA 		b	i2cWriteDeviceRegister
 748              	.L94:
 749 07ac 401081E3 		orr	r1, r1, #64
 750 07b0 011082E1 		orr	r1, r2, r1
 751 07b4 5F00A0E3 		mov	r0, #95
 752 07b8 0120A0E3 		mov	r2, #1
 753 07bc FEFFFFEA 		b	pcm1774_bitMask
 755              		.align	2
 756              		.global	pcm1774_Reset
 758              	pcm1774_Reset:
 759              		@ args = 0, pretend = 0, frame = 4
 760              		@ frame_needed = 0, uses_anonymous_args = 0
 761 07c0 10402DE9 		stmfd	sp!, {r4, lr}
 762 07c4 8020A0E3 		mov	r2, #128
 763 07c8 04D04DE2 		sub	sp, sp, #4
 764 07cc 0040A0E3 		mov	r4, #0
 765 07d0 8C00A0E3 		mov	r0, #140
 766 07d4 5510A0E3 		mov	r1, #85
 767 07d8 00408DE5 		str	r4, [sp, #0]
 768 07dc FEFFFFEB 		bl	i2cWriteDeviceRegister
 769 07e0 00408DE5 		str	r4, [sp, #0]
 770 07e4 28209FE5 		ldr	r2, .L100
 771 07e8 020000EA 		b	.L97
 772              	.L98:
 773 07ec 00309DE5 		ldr	r3, [sp, #0]
 774 07f0 013083E2 		add	r3, r3, #1
 775 07f4 00308DE5 		str	r3, [sp, #0]
 776              	.L97:
 777 07f8 00309DE5 		ldr	r3, [sp, #0]
 778 07fc 020053E1 		cmp	r3, r2
 779 0800 F9FFFFDA 		ble	.L98
 780 0804 FEFFFFEB 		bl	initialize_pcm1774
 781 0808 04D08DE2 		add	sp, sp, #4
 782 080c 1040BDE8 		ldmfd	sp!, {r4, lr}
 783 0810 FEFFFFEA 		b	pcm1774_LoadDefaultDigitalConfiguration
 784              	.L101:
 785              		.align	2
 786              	.L100:
 787 0814 87130000 		.word	4999
 789              		.section	.rodata
 792              	C.6.1493:
 793 0000 9B       		.byte	-101
 794 0001 9A       		.byte	-102
 795 0002 99       		.byte	-103
 796 0003 98       		.byte	-104
 797 0004 97       		.byte	-105
 798 0005 96       		.byte	-106
 799 0006 95       		.byte	-107
 800 0007 94       		.byte	-108
 801 0008 93       		.byte	-109
 802 0009 92       		.byte	-110
 803 000a 91       		.byte	-111
 804 000b 90       		.byte	-112
 805 000c 80       		.byte	-128
 806 000d 8E       		.byte	-114
 807 000e 8D       		.byte	-115
 808 000f 8C       		.byte	-116
 809 0010 8B       		.byte	-117
 810 0011 8A       		.byte	-118
 811 0012 89       		.byte	-119
 812 0013 88       		.byte	-120
 813 0014 87       		.byte	-121
 814 0015 86       		.byte	-122
 815 0016 85       		.byte	-123
 816 0017 84       		.byte	-124
 817 0018 83       		.byte	-125
 818              		.ident	"GCC: (GNU) 4.3.2"