Archive member included because of file (symbol)

/cygdrive/c/Users/Public/Desktop/CmpE146Package/GNUARM/bin/../lib/gcc/arm-elf/4.3.2/libgcc.a(_udivsi3.o)
                              ./utils/src/rprintf.o (__udivsi3)
/cygdrive/c/Users/Public/Desktop/CmpE146Package/GNUARM/bin/../lib/gcc/arm-elf/4.3.2/libgcc.a(_divsi3.o)
                              ./utils/cString.o (__divsi3)
/cygdrive/c/Users/Public/Desktop/CmpE146Package/GNUARM/bin/../lib/gcc/arm-elf/4.3.2/libgcc.a(_umodsi3.o)
                              ./utils/src/rprintf.o (__umodsi3)
/cygdrive/c/Users/Public/Desktop/CmpE146Package/GNUARM/bin/../lib/gcc/arm-elf/4.3.2/libgcc.a(_dvmd_tls.o)
                              /cygdrive/c/Users/Public/Desktop/CmpE146Package/GNUARM/bin/../lib/gcc/arm-elf/4.3.2/libgcc.a(_udivsi3.o) (__div0)
/cygdrive/c/Users/Public/Desktop/CmpE146Package/GNUARM/bin/../lib/gcc/arm-elf/4.3.2/libgcc.a(_addsubdf3.o)
                              ./utils/cString.o (__extendsfdf2)
/cygdrive/c/Users/Public/Desktop/CmpE146Package/GNUARM/bin/../lib/gcc/arm-elf/4.3.2/libgcc.a(_truncdfsf2.o)
                              ./utils/cString.o (__truncdfsf2)
/cygdrive/c/Users/Public/Desktop/CmpE146Package/GNUARM/bin/../lib/gcc/arm-elf/4.3.2/libgcc.a(_addsubsf3.o)
                              ./utils/cString.o (__subsf3)
/cygdrive/c/Users/Public/Desktop/CmpE146Package/GNUARM/bin/../lib/gcc/arm-elf/4.3.2/../../../../arm-elf/lib/libc.a(lib_a-atof.o)
                              ./utils/cString.o (atof)
/cygdrive/c/Users/Public/Desktop/CmpE146Package/GNUARM/bin/../lib/gcc/arm-elf/4.3.2/../../../../arm-elf/lib/libc.a(lib_a-atoi.o)
                              ./utils/cString.o (atoi)
/cygdrive/c/Users/Public/Desktop/CmpE146Package/GNUARM/bin/../lib/gcc/arm-elf/4.3.2/../../../../arm-elf/lib/libc.a(lib_a-iprintf.o)
                              ./General/userInterface.o (iprintf)
/cygdrive/c/Users/Public/Desktop/CmpE146Package/GNUARM/bin/../lib/gcc/arm-elf/4.3.2/../../../../arm-elf/lib/libc.a(lib_a-malloc.o)
                              ./System/cppmem.o (free)
/cygdrive/c/Users/Public/Desktop/CmpE146Package/GNUARM/bin/../lib/gcc/arm-elf/4.3.2/../../../../arm-elf/lib/libc.a(lib_a-mallocr.o)
                              /cygdrive/c/Users/Public/Desktop/CmpE146Package/GNUARM/bin/../lib/gcc/arm-elf/4.3.2/../../../../arm-elf/lib/libc.a(lib_a-malloc.o) (_malloc_r)
/cygdrive/c/Users/Public/Desktop/CmpE146Package/GNUARM/bin/../lib/gcc/arm-elf/4.3.2/../../../../arm-elf/lib/libc.a(lib_a-memcmp.o)
                              ./FreeRTOS/src/tasks.o (memcmp)
/cygdrive/c/Users/Public/Desktop/CmpE146Package/GNUARM/bin/../lib/gcc/arm-elf/4.3.2/../../../../arm-elf/lib/libc.a(lib_a-memcpy.o)
                              ./utils/cString.o (memcpy)
/cygdrive/c/Users/Public/Desktop/CmpE146Package/GNUARM/bin/../lib/gcc/arm-elf/4.3.2/../../../../arm-elf/lib/libc.a(lib_a-memmove.o)
                              ./utils/cString.o (memmove)
/cygdrive/c/Users/Public/Desktop/CmpE146Package/GNUARM/bin/../lib/gcc/arm-elf/4.3.2/../../../../arm-elf/lib/libc.a(lib_a-memset.o)
                              ./utils/cString.o (memset)
/cygdrive/c/Users/Public/Desktop/CmpE146Package/GNUARM/bin/../lib/gcc/arm-elf/4.3.2/../../../../arm-elf/lib/libc.a(lib_a-mlock.o)
                              /cygdrive/c/Users/Public/Desktop/CmpE146Package/GNUARM/bin/../lib/gcc/arm-elf/4.3.2/../../../../arm-elf/lib/libc.a(lib_a-mallocr.o) (__malloc_lock)
/cygdrive/c/Users/Public/Desktop/CmpE146Package/GNUARM/bin/../lib/gcc/arm-elf/4.3.2/../../../../arm-elf/lib/libc.a(lib_a-realloc.o)
                              ./utils/cString.o (realloc)
/cygdrive/c/Users/Public/Desktop/CmpE146Package/GNUARM/bin/../lib/gcc/arm-elf/4.3.2/../../../../arm-elf/lib/libc.a(lib_a-reallocr.o)
                              /cygdrive/c/Users/Public/Desktop/CmpE146Package/GNUARM/bin/../lib/gcc/arm-elf/4.3.2/../../../../arm-elf/lib/libc.a(lib_a-realloc.o) (_realloc_r)
/cygdrive/c/Users/Public/Desktop/CmpE146Package/GNUARM/bin/../lib/gcc/arm-elf/4.3.2/../../../../arm-elf/lib/libc.a(lib_a-siprintf.o)
                              ./FreeRTOS/src/tasks.o (siprintf)
/cygdrive/c/Users/Public/Desktop/CmpE146Package/GNUARM/bin/../lib/gcc/arm-elf/4.3.2/../../../../arm-elf/lib/libc.a(lib_a-sprintf.o)
                              ./utils/cString.o (sprintf)
/cygdrive/c/Users/Public/Desktop/CmpE146Package/GNUARM/bin/../lib/gcc/arm-elf/4.3.2/../../../../arm-elf/lib/libc.a(lib_a-strcat.o)
                              ./utils/cString.o (strcat)
/cygdrive/c/Users/Public/Desktop/CmpE146Package/GNUARM/bin/../lib/gcc/arm-elf/4.3.2/../../../../arm-elf/lib/libc.a(lib_a-strchr.o)
                              ./utils/cString.o (strchr)
/cygdrive/c/Users/Public/Desktop/CmpE146Package/GNUARM/bin/../lib/gcc/arm-elf/4.3.2/../../../../arm-elf/lib/libc.a(lib_a-strcmp.o)
                              ./utils/cString.o (strcmp)
/cygdrive/c/Users/Public/Desktop/CmpE146Package/GNUARM/bin/../lib/gcc/arm-elf/4.3.2/../../../../arm-elf/lib/libc.a(lib_a-strcpy.o)
                              ./FreeRTOS/src/tasks.o (strcpy)
/cygdrive/c/Users/Public/Desktop/CmpE146Package/GNUARM/bin/../lib/gcc/arm-elf/4.3.2/../../../../arm-elf/lib/libc.a(lib_a-strlen.o)
                              ./utils/cString.o (strlen)
/cygdrive/c/Users/Public/Desktop/CmpE146Package/GNUARM/bin/../lib/gcc/arm-elf/4.3.2/../../../../arm-elf/lib/libc.a(lib_a-strncpy.o)
                              ./utils/cString.o (strncpy)
/cygdrive/c/Users/Public/Desktop/CmpE146Package/GNUARM/bin/../lib/gcc/arm-elf/4.3.2/../../../../arm-elf/lib/libc.a(lib_a-strstr.o)
                              ./utils/cString.o (strstr)
/cygdrive/c/Users/Public/Desktop/CmpE146Package/GNUARM/bin/../lib/gcc/arm-elf/4.3.2/../../../../arm-elf/lib/libc.a(lib_a-strtod.o)
                              /cygdrive/c/Users/Public/Desktop/CmpE146Package/GNUARM/bin/../lib/gcc/arm-elf/4.3.2/../../../../arm-elf/lib/libc.a(lib_a-atof.o) (strtod)
/cygdrive/c/Users/Public/Desktop/CmpE146Package/GNUARM/bin/../lib/gcc/arm-elf/4.3.2/../../../../arm-elf/lib/libc.a(lib_a-strtok.o)
                              ./General/userInterface.o (strtok)
/cygdrive/c/Users/Public/Desktop/CmpE146Package/GNUARM/bin/../lib/gcc/arm-elf/4.3.2/../../../../arm-elf/lib/libc.a(lib_a-strtok_r.o)
                              /cygdrive/c/Users/Public/Desktop/CmpE146Package/GNUARM/bin/../lib/gcc/arm-elf/4.3.2/../../../../arm-elf/lib/libc.a(lib_a-strtok.o) (__strtok_r)
/cygdrive/c/Users/Public/Desktop/CmpE146Package/GNUARM/bin/../lib/gcc/arm-elf/4.3.2/../../../../arm-elf/lib/libc.a(lib_a-strtol.o)
                              /cygdrive/c/Users/Public/Desktop/CmpE146Package/GNUARM/bin/../lib/gcc/arm-elf/4.3.2/../../../../arm-elf/lib/libc.a(lib_a-atoi.o) (_strtol_r)
/cygdrive/c/Users/Public/Desktop/CmpE146Package/GNUARM/bin/../lib/gcc/arm-elf/4.3.2/../../../../arm-elf/lib/libc.a(lib_a-tolower.o)
                              ./utils/cString.o (tolower)
/cygdrive/c/Users/Public/Desktop/CmpE146Package/GNUARM/bin/../lib/gcc/arm-elf/4.3.2/../../../../arm-elf/lib/libc.a(lib_a-toupper.o)
                              ./utils/cString.o (toupper)
/cygdrive/c/Users/Public/Desktop/CmpE146Package/GNUARM/bin/../lib/gcc/arm-elf/4.3.2/../../../../arm-elf/lib/libc.a(lib_a-vfiprintf.o)
                              /cygdrive/c/Users/Public/Desktop/CmpE146Package/GNUARM/bin/../lib/gcc/arm-elf/4.3.2/../../../../arm-elf/lib/libc.a(lib_a-iprintf.o) (_vfiprintf_r)
/cygdrive/c/Users/Public/Desktop/CmpE146Package/GNUARM/bin/../lib/gcc/arm-elf/4.3.2/../../../../arm-elf/lib/libc.a(lib_a-vfprintf.o)
                              /cygdrive/c/Users/Public/Desktop/CmpE146Package/GNUARM/bin/../lib/gcc/arm-elf/4.3.2/../../../../arm-elf/lib/libc.a(lib_a-sprintf.o) (_vfprintf_r)
/cygdrive/c/Users/Public/Desktop/CmpE146Package/GNUARM/bin/../lib/gcc/arm-elf/4.3.2/../../../../arm-elf/lib/libc.a(lib_a-wsetup.o)
                              /cygdrive/c/Users/Public/Desktop/CmpE146Package/GNUARM/bin/../lib/gcc/arm-elf/4.3.2/../../../../arm-elf/lib/libc.a(lib_a-vfiprintf.o) (__swsetup_r)
/cygdrive/c/Users/Public/Desktop/CmpE146Package/GNUARM/bin/../lib/gcc/arm-elf/4.3.2/../../../../arm-elf/lib/libc.a(lib_a-ctype_.o)
                              /cygdrive/c/Users/Public/Desktop/CmpE146Package/GNUARM/bin/../lib/gcc/arm-elf/4.3.2/../../../../arm-elf/lib/libc.a(lib_a-strtol.o) (__ctype_ptr)
/cygdrive/c/Users/Public/Desktop/CmpE146Package/GNUARM/bin/../lib/gcc/arm-elf/4.3.2/../../../../arm-elf/lib/libc.a(lib_a-dtoa.o)
                              /cygdrive/c/Users/Public/Desktop/CmpE146Package/GNUARM/bin/../lib/gcc/arm-elf/4.3.2/../../../../arm-elf/lib/libc.a(lib_a-vfprintf.o) (_dtoa_r)
/cygdrive/c/Users/Public/Desktop/CmpE146Package/GNUARM/bin/../lib/gcc/arm-elf/4.3.2/../../../../arm-elf/lib/libc.a(lib_a-fflush.o)
                              /cygdrive/c/Users/Public/Desktop/CmpE146Package/GNUARM/bin/../lib/gcc/arm-elf/4.3.2/../../../../arm-elf/lib/libc.a(lib_a-vfiprintf.o) (_fflush_r)
/cygdrive/c/Users/Public/Desktop/CmpE146Package/GNUARM/bin/../lib/gcc/arm-elf/4.3.2/../../../../arm-elf/lib/libc.a(lib_a-findfp.o)
                              /cygdrive/c/Users/Public/Desktop/CmpE146Package/GNUARM/bin/../lib/gcc/arm-elf/4.3.2/../../../../arm-elf/lib/libc.a(lib_a-vfiprintf.o) (__sinit)
/cygdrive/c/Users/Public/Desktop/CmpE146Package/GNUARM/bin/../lib/gcc/arm-elf/4.3.2/../../../../arm-elf/lib/libc.a(lib_a-freer.o)
                              /cygdrive/c/Users/Public/Desktop/CmpE146Package/GNUARM/bin/../lib/gcc/arm-elf/4.3.2/../../../../arm-elf/lib/libc.a(lib_a-malloc.o) (_free_r)
/cygdrive/c/Users/Public/Desktop/CmpE146Package/GNUARM/bin/../lib/gcc/arm-elf/4.3.2/../../../../arm-elf/lib/libc.a(lib_a-fvwrite.o)
                              /cygdrive/c/Users/Public/Desktop/CmpE146Package/GNUARM/bin/../lib/gcc/arm-elf/4.3.2/../../../../arm-elf/lib/libc.a(lib_a-vfiprintf.o) (__sfvwrite_r)
/cygdrive/c/Users/Public/Desktop/CmpE146Package/GNUARM/bin/../lib/gcc/arm-elf/4.3.2/../../../../arm-elf/lib/libc.a(lib_a-fwalk.o)
                              /cygdrive/c/Users/Public/Desktop/CmpE146Package/GNUARM/bin/../lib/gcc/arm-elf/4.3.2/../../../../arm-elf/lib/libc.a(lib_a-fflush.o) (_fwalk_reent)
/cygdrive/c/Users/Public/Desktop/CmpE146Package/GNUARM/bin/../lib/gcc/arm-elf/4.3.2/../../../../arm-elf/lib/libc.a(lib_a-gdtoa-gethex.o)
                              /cygdrive/c/Users/Public/Desktop/CmpE146Package/GNUARM/bin/../lib/gcc/arm-elf/4.3.2/../../../../arm-elf/lib/libc.a(lib_a-strtod.o) (__gethex)
/cygdrive/c/Users/Public/Desktop/CmpE146Package/GNUARM/bin/../lib/gcc/arm-elf/4.3.2/../../../../arm-elf/lib/libc.a(lib_a-gdtoa-hexnan.o)
                              /cygdrive/c/Users/Public/Desktop/CmpE146Package/GNUARM/bin/../lib/gcc/arm-elf/4.3.2/../../../../arm-elf/lib/libc.a(lib_a-strtod.o) (__hexnan)
/cygdrive/c/Users/Public/Desktop/CmpE146Package/GNUARM/bin/../lib/gcc/arm-elf/4.3.2/../../../../arm-elf/lib/libc.a(lib_a-impure.o)
                              /cygdrive/c/Users/Public/Desktop/CmpE146Package/GNUARM/bin/../lib/gcc/arm-elf/4.3.2/../../../../arm-elf/lib/libc.a(lib_a-iprintf.o) (_impure_ptr)
/cygdrive/c/Users/Public/Desktop/CmpE146Package/GNUARM/bin/../lib/gcc/arm-elf/4.3.2/../../../../arm-elf/lib/libc.a(lib_a-locale.o)
                              /cygdrive/c/Users/Public/Desktop/CmpE146Package/GNUARM/bin/../lib/gcc/arm-elf/4.3.2/../../../../arm-elf/lib/libc.a(lib_a-vfprintf.o) (_localeconv_r)
/cygdrive/c/Users/Public/Desktop/CmpE146Package/GNUARM/bin/../lib/gcc/arm-elf/4.3.2/../../../../arm-elf/lib/libc.a(lib_a-makebuf.o)
                              /cygdrive/c/Users/Public/Desktop/CmpE146Package/GNUARM/bin/../lib/gcc/arm-elf/4.3.2/../../../../arm-elf/lib/libc.a(lib_a-wsetup.o) (__smakebuf_r)
/cygdrive/c/Users/Public/Desktop/CmpE146Package/GNUARM/bin/../lib/gcc/arm-elf/4.3.2/../../../../arm-elf/lib/libc.a(lib_a-memchr.o)
                              /cygdrive/c/Users/Public/Desktop/CmpE146Package/GNUARM/bin/../lib/gcc/arm-elf/4.3.2/../../../../arm-elf/lib/libc.a(lib_a-vfiprintf.o) (memchr)
/cygdrive/c/Users/Public/Desktop/CmpE146Package/GNUARM/bin/../lib/gcc/arm-elf/4.3.2/../../../../arm-elf/lib/libc.a(lib_a-mprec.o)
                              /cygdrive/c/Users/Public/Desktop/CmpE146Package/GNUARM/bin/../lib/gcc/arm-elf/4.3.2/../../../../arm-elf/lib/libc.a(lib_a-strtod.o) (_Bfree)
/cygdrive/c/Users/Public/Desktop/CmpE146Package/GNUARM/bin/../lib/gcc/arm-elf/4.3.2/../../../../arm-elf/lib/libc.a(lib_a-s_isinfd.o)
                              /cygdrive/c/Users/Public/Desktop/CmpE146Package/GNUARM/bin/../lib/gcc/arm-elf/4.3.2/../../../../arm-elf/lib/libc.a(lib_a-vfprintf.o) (__isinfd)
/cygdrive/c/Users/Public/Desktop/CmpE146Package/GNUARM/bin/../lib/gcc/arm-elf/4.3.2/../../../../arm-elf/lib/libc.a(lib_a-s_isnand.o)
                              /cygdrive/c/Users/Public/Desktop/CmpE146Package/GNUARM/bin/../lib/gcc/arm-elf/4.3.2/../../../../arm-elf/lib/libc.a(lib_a-strtod.o) (__isnand)
/cygdrive/c/Users/Public/Desktop/CmpE146Package/GNUARM/bin/../lib/gcc/arm-elf/4.3.2/../../../../arm-elf/lib/libc.a(lib_a-sf_nan.o)
                              /cygdrive/c/Users/Public/Desktop/CmpE146Package/GNUARM/bin/../lib/gcc/arm-elf/4.3.2/../../../../arm-elf/lib/libc.a(lib_a-strtod.o) (nanf)
/cygdrive/c/Users/Public/Desktop/CmpE146Package/GNUARM/bin/../lib/gcc/arm-elf/4.3.2/../../../../arm-elf/lib/libc.a(lib_a-stdio.o)
                              /cygdrive/c/Users/Public/Desktop/CmpE146Package/GNUARM/bin/../lib/gcc/arm-elf/4.3.2/../../../../arm-elf/lib/libc.a(lib_a-findfp.o) (__sclose)
/cygdrive/c/Users/Public/Desktop/CmpE146Package/GNUARM/bin/../lib/gcc/arm-elf/4.3.2/../../../../arm-elf/lib/libc.a(lib_a-syscalls.o)
                              /cygdrive/c/Users/Public/Desktop/CmpE146Package/GNUARM/bin/../lib/gcc/arm-elf/4.3.2/../../../../arm-elf/lib/libc.a(lib_a-makebuf.o) (isatty)
/cygdrive/c/Users/Public/Desktop/CmpE146Package/GNUARM/bin/../lib/gcc/arm-elf/4.3.2/../../../../arm-elf/lib/libc.a(lib_a-callocr.o)
                              /cygdrive/c/Users/Public/Desktop/CmpE146Package/GNUARM/bin/../lib/gcc/arm-elf/4.3.2/../../../../arm-elf/lib/libc.a(lib_a-mprec.o) (_calloc_r)
/cygdrive/c/Users/Public/Desktop/CmpE146Package/GNUARM/bin/../lib/gcc/arm-elf/4.3.2/../../../../arm-elf/lib/libc.a(lib_a-errno.o)
                              /cygdrive/c/Users/Public/Desktop/CmpE146Package/GNUARM/bin/../lib/gcc/arm-elf/4.3.2/../../../../arm-elf/lib/libc.a(lib_a-syscalls.o) (__errno)
/cygdrive/c/Users/Public/Desktop/CmpE146Package/GNUARM/bin/../lib/gcc/arm-elf/4.3.2/../../../../arm-elf/lib/libc.a(lib_a-fclose.o)
                              /cygdrive/c/Users/Public/Desktop/CmpE146Package/GNUARM/bin/../lib/gcc/arm-elf/4.3.2/../../../../arm-elf/lib/libc.a(lib_a-findfp.o) (fclose)
/cygdrive/c/Users/Public/Desktop/CmpE146Package/GNUARM/bin/../lib/gcc/arm-elf/4.3.2/libgcc.a(_muldivdf3.o)
                              /cygdrive/c/Users/Public/Desktop/CmpE146Package/GNUARM/bin/../lib/gcc/arm-elf/4.3.2/../../../../arm-elf/lib/libc.a(lib_a-strtod.o) (__muldf3)
/cygdrive/c/Users/Public/Desktop/CmpE146Package/GNUARM/bin/../lib/gcc/arm-elf/4.3.2/libgcc.a(_cmpdf2.o)
                              /cygdrive/c/Users/Public/Desktop/CmpE146Package/GNUARM/bin/../lib/gcc/arm-elf/4.3.2/../../../../arm-elf/lib/libc.a(lib_a-strtod.o) (__gtdf2)
/cygdrive/c/Users/Public/Desktop/CmpE146Package/GNUARM/bin/../lib/gcc/arm-elf/4.3.2/libgcc.a(_fixdfsi.o)
                              /cygdrive/c/Users/Public/Desktop/CmpE146Package/GNUARM/bin/../lib/gcc/arm-elf/4.3.2/../../../../arm-elf/lib/libc.a(lib_a-strtod.o) (__fixdfsi)
/cygdrive/c/Users/Public/Desktop/CmpE146Package/GNUARM/bin/../lib/gcc/arm-elf/4.3.2/libgcc.a(_fixunsdfsi.o)
                              /cygdrive/c/Users/Public/Desktop/CmpE146Package/GNUARM/bin/../lib/gcc/arm-elf/4.3.2/../../../../arm-elf/lib/libc.a(lib_a-strtod.o) (__fixunsdfsi)

Allocating common symbols
Common symbol       size              file

i2cReadCompleteSignal
                    0x4               ./drivers/i2c.o
CardType            0x1               ./fat/diskio.o
i2cLock             0x4               ./drivers/i2c.o
__hexdig            0x100             /cygdrive/c/Users/Public/Desktop/CmpE146Package/GNUARM/bin/../lib/gcc/arm-elf/4.3.2/../../../../arm-elf/lib/libc.a(lib_a-gdtoa-gethex.o)
sspSpiDummyByte     0x1               ./drivers/ssp_spi.o
Timer2              0x1               ./fat/diskio.o
SPIAccessSemaphore  0x4               ./fat/diskio.o
Timer1              0x1               ./fat/diskio.o

Discarded input sections

 _ZN6VECTORI7cStringE14changeCapacityEj
                0x00000000        0x0 ./MP3/mp3.o
 _ZN6VECTORI7cStringE11rotateRightEv
                0x00000000        0x0 ./MP3/mp3.o
 _ZN6VECTORI7cStringE10rotateLeftEv
                0x00000000        0x0 ./MP3/mp3.o

Memory Configuration

Name             Origin             Length             Attributes
FLASH_BOOT       0x00000000         0x00001000         xr
FLASH_APP        0x00001000         0x0007c000         xr
SRAM             0x40000000         0x00008000         xw
USB_DMA_RAM      0x7fd00000         0x00002000         xw
*default*        0x00000000         0xffffffff

Linker script and memory map

LOAD ./main.o
LOAD ./utils/src/rprintf.o
LOAD ./utils/src/timer.o
LOAD ./utils/cString.o
LOAD ./fat/diskio.o
LOAD ./fat/ff.o
LOAD ./fat/rtc.o
LOAD ./fat/option/ccsbcs.o
LOAD ./fat/option/reentrant.o
LOAD ./drivers/i2c.o
LOAD ./drivers/pcm1774.o
LOAD ./drivers/ssp_spi.o
LOAD ./drivers/sta013.o
LOAD ./drivers/uart0.o
LOAD ./drivers/watchdog.o
LOAD ./System/cppmem.o
LOAD ./System/cpu.o
LOAD ./System/syscalls.o
LOAD ./System/startup/Arm7CStartup.o
LOAD ./System/startup/Lpc2000ExceptionVectors.o
LOAD ./System/startup/exceptionHandlers.o
LOAD ./MP3/button.o
LOAD ./MP3/control.o
LOAD ./MP3/mp3.o
LOAD ./General/userInterface.o
LOAD ./FreeRTOS/src/croutine.o
LOAD ./FreeRTOS/src/list.o
LOAD ./FreeRTOS/src/port.o
LOAD ./FreeRTOS/src/portISR.o
LOAD ./FreeRTOS/src/queue.o
LOAD ./FreeRTOS/src/tasks.o
LOAD ./FreeRTOS/src/timers.o
LOAD ./FreeRTOS/mem/heap_3.o
LOAD ./FreeRTOS/hooks/hooks.o
LOAD /cygdrive/c/Users/Public/Desktop/CmpE146Package/GNUARM/bin/../lib/gcc/arm-elf/4.3.2/../../../../arm-elf/lib/libstdc++.a
LOAD /cygdrive/c/Users/Public/Desktop/CmpE146Package/GNUARM/bin/../lib/gcc/arm-elf/4.3.2/../../../../arm-elf/lib/libm.a
START GROUP
LOAD /cygdrive/c/Users/Public/Desktop/CmpE146Package/GNUARM/bin/../lib/gcc/arm-elf/4.3.2/libgcc.a
LOAD /cygdrive/c/Users/Public/Desktop/CmpE146Package/GNUARM/bin/../lib/gcc/arm-elf/4.3.2/../../../../arm-elf/lib/libc.a
END GROUP
                0x00001000                __FLASH_segment_start__ = 0x1000
                0x40000000                __SRAM_segment_start__ = 0x40000000
                0x00000000                __STACKSIZE_SYS__ = 0x0
                0x00000000                __STACKSIZE_USER__ = 0x0
                0x00000200                __STACKSIZE_IRQ__ = 0x200
                0x00000040                __STACKSIZE_FIQ__ = 0x40
                0x00000200                __STACKSIZE_SVC__ = 0x200
                0x00000000                __STACKSIZE_ABT__ = 0x0
                0x00000000                __STACKSIZE_UND__ = 0x0
                0x00000000                __HEAPSIZE__ = 0x0
                0x0000003c                __EXCEPTION_VECTORS_SIZE__ = 0x3c
                0x40000000                __lpc2000ExceptionVectors_ram_load_start__ = __SRAM_segment_start__

.lpc2000ExceptionVectors_ram
                0x40000000       0x3c
                0x40000000                __lpc2000ExceptionVectors_ram_start__ = .
 *(.lpc2000ExceptionVectors_ram)
                0x4000003c                . = ((__lpc2000ExceptionVectors_ram_start__ + __EXCEPTION_VECTORS_SIZE__) MAX .)
 *fill*         0x40000000       0x3c 00
                0x4000003c                __lpc2000ExceptionVectors_ram_end__ = (__lpc2000ExceptionVectors_ram_start__ + SIZEOF (.lpc2000ExceptionVectors_ram))
                0x00001000                __lpc2000ExceptionVectors_load_start__ = __FLASH_segment_start__

.lpc2000ExceptionVectors
                0x00001000       0x38
                0x00001000                __lpc2000ExceptionVectors_start__ = .
 *(.lpc2000ExceptionVectors .lpc2000ExceptionVectors.*)
 .lpc2000ExceptionVectors
                0x00001000       0x38 ./System/startup/Lpc2000ExceptionVectors.o
                0x00001038                __lpc2000ExceptionVectors_end__ = (__lpc2000ExceptionVectors_start__ + SIZEOF (.lpc2000ExceptionVectors))
                0x00001038                __init_start__ = (__lpc2000ExceptionVectors_end__ ALIGN 0x4)

.init           0x00001038      0x1fc
                0x00001038                __init_start__ = .
 *(.init .init.*)
 *fill*         0x00001038        0x8 00
 .init          0x00001040      0x1b0 ./System/startup/Arm7CStartup.o
                0x00001040                Arm7StartupStart
 .init          0x000011f0       0x44 ./System/startup/Lpc2000ExceptionVectors.o
                0x00001228                _Lpc2000ExceptionVectorsFIQHandler
                0x0000121c                _Lpc2000ExceptionVectorsSoftwareIntHandler
                0x00001224                _Lpc2000ExceptionVectorsAbortDataHandler
                0x00001218                _Lpc2000ExceptionVectorsUndefinedHandler
                0x00001220                _Lpc2000ExceptionVectorsAbortPrefetchHandler
                0x00001234                __init_end__ = (__init_start__ + SIZEOF (.init))
                0x00001234                __text_load_start__ = (__init_end__ ALIGN 0x4)

.text           0x00001234    0x16e8c
                0x00001234                __text_start__ = .
 *(.text .text.* .glue_7t .glue_7 .gnu.linkonce.t.* .gcc_except_table)
 .text          0x00001234      0x1ec ./main.o
                0x0000141c                _Z14FatFsDiskTimerPv
                0x00001234                main
 .glue_7        0x00001420        0x0 ./main.o
 .glue_7t       0x00001420        0x0 ./main.o
 .text          0x00001420      0x264 ./utils/src/rprintf.o
                0x00001420                rprintf_devopen
                0x00001470                rprintf
 .glue_7        0x00001684        0x0 ./utils/src/rprintf.o
 .glue_7t       0x00001684        0x0 ./utils/src/rprintf.o
 .text          0x00001684      0x294 ./utils/src/timer.o
                0x00001798                _ZN5Timer12resetFromISREv
                0x00001828                _ZN5Timer9isRunningEv
                0x000018e0                _ZN5TimerC2EPFvPvEm9TimerType
                0x000018a8                _ZN5TimerC1EPFvPvEm9TimerType
                0x00001724                _ZN5Timer19changePeriodFromISREm
                0x000017e0                _ZN5Timer12startFromISREv
                0x00001840                _ZN5Timer5resetEv
                0x000016ac                _ZN5Timer4stopEv
                0x00001684                _ZN5Timer12changePeriodEm
                0x000016d4                _ZN5TimerD1Ev
                0x000016fc                _ZN5TimerD2Ev
                0x00001874                _ZN5Timer5startEv
                0x00001760                _ZN5Timer11stopFromISREv
 .glue_7        0x00001918        0x0 ./utils/src/timer.o
 .glue_7t       0x00001918        0x0 ./utils/src/timer.o
 .text          0x00001918     0x12a0 ./utils/cString.o
                0x00001c38                _ZN7cString10isAllAlphaEv
                0x00002800                _ZN7cString8containsEPKc
                0x00002a10                _ZN7cStringneEPKc
                0x00002b30                _ZN7cString6appendEi
                0x00002b90                _ZN7cStringD2Ev
                0x00002b68                _ZN7cStringD1Ev
                0x00002698                _ZN7cString9subStringEci
                0x000024a8                _ZN7cString11lastIndexOfEPKc
                0x00002a58                _ZN7cStringpLEc
                0x00001f00                _ZN7cStringC1EPKc
                0x00002a54                _ZN7cString6appendEPKc
                0x00001dc4                _ZN7cString8copyFromEPKc
                0x00002214                _ZN7cString10eraseFirstEi
                0x000019bc                _ZNK7cStringclEv
                0x000019c4                _ZN7cString18singleHexCharToIntEh
                0x00001acc                _ZN7cStringixEi
                0x00001918                _ZN7cString4itoaEiPci
                0x00001ac4                _ZNK7cString6getLenEv
                0x000026c0                _ZN7cString9subStringEPKc
                0x00002aec                _ZN7cString6appendEf
                0x00001fa0                _ZN7cString15toBaseNumberStrEi
                0x00002598                _ZN7cString11replaceLastEPKcS1_
                0x0000287c                _ZN7cString7toLowerEv
                0x000021c0                _ZN7cString11eraseCharAtEi
                0x00001f70                _ZN7cString27ensureMemoryForBackupStringEi
                0x00001e38                _ZN7cStringaSERKS_
                0x000023b0                _ZN7cString7isFloatEv
                0x000029b0                _ZN7cString7toUpperEv
                0x00001bec                _ZN7cString14isAlphaNumericEv
                0x00001d6c                _ZN7cString5clearEv
                0x0000299c                _ZN7cString18containsIgnoreCaseEPKc
                0x00002030                _ZN7cStringmIEi
                0x00002814                _ZN7cString19compareToIgnoreCaseEPKc
                0x00001ba8                _ZN7cString6isUintEv
                0x00002060                _ZN7cStringmmEi
                0x00002068                _ZN7cStringmmEv
                0x00001e34                _ZN7cStringaSEPKc
                0x00002070                _ZN7cStringpLEi
                0x00002430                _ZN7cStringmIEf
                0x00001f68                _ZN7cStringC2Ev
                0x00001f30                _ZN7cStringC2EPKc
                0x00002768                _ZN7cString12replaceFirstEPKcS1_
                0x00001abc                _ZN7cString7decryptEPKc
                0x00001af0                _ZN7cString12checksum_GetEv
                0x00001b28                _ZN7cString7encryptEPKc
                0x00001b54                _ZN7cString5isIntEv
                0x00001ea0                _ZN7cStringC1ERKS_
                0x00002704                _ZN7cString10replaceAllEPKcS1_
                0x00001a68                _ZN7cString7encryptEPKci
                0x00002014                _ZN7cStringneEi
                0x0000235c                _ZN7cString7countOfEPKc
                0x00002abc                _ZN7cString15checksum_AppendEv
                0x000020a8                _ZN7cStringppEv
                0x00002574                _ZN7cString15checksum_RemoveEv
                0x00001f98                _ZN7cStringcviEv
                0x00002508                _ZN7cString15checksum_VerifyEv
                0x000028b8                _ZN7cString22getWordIndexIgnoreCaseEPKc
                0x0000225c                _ZN7cString9trimStartEPKc
                0x000022d4                _ZN7cString8insertAtEiPKc
                0x00001cb0                _ZN7cString7trimEndEPKc
                0x00001e04                _ZN7cStringaSEi
                0x00001ed0                _ZN7cStringC2ERKS_
                0x00001f60                _ZN7cStringC1Ev
                0x00002a0c                _ZN7cStringeqEPKc
                0x000025ec                _ZN7cString12firstIndexOfEPKc
                0x00002674                _ZN7cString9subStringEPKci
                0x00001d44                _ZN7cString9eraseLastEi
                0x00002a24                _ZN7cString11insertAtEndEPKc
                0x0000215c                _ZN7cString10eraseAfterEii
                0x000020b0                _ZN7cStringaSEf
                0x000020a0                _ZN7cStringppEi
                0x00002a84                _ZN7cString11appendAsHexEj
                0x00002a80                _ZN7cStringpLEPKc
                0x000029ec                _ZN7cString9compareToEPKc
                0x000020f4                _ZN7cString9subStringEii
                0x00001a00                _ZN7cString17hexStrDigitsToIntEPc
                0x000021c8                _ZN7cString20eraseAllSpecialCharsEv
                0x000027bc                _ZN7cString5eraseEPKc
                0x00001ff4                _ZN7cStringeqEi
                0x00001d7c                _ZN7cString13reAllocateMemEi
                0x00001e54                _ZN7cString26ensureMemoryToInsertNCharsEi
                0x00001e84                _ZN7cString4initEi
                0x000026dc                _ZN7cString9subStringEc
                0x0000260c                _ZN7cString9subStringEcc
                0x0000246c                _ZN7cStringpLEf
                0x000027fc                _ZN7cStringmIEPKc
                0x00001d1c                _ZN7cString13eraseAllAfterEi
                0x00001c7c                _ZN7cString9subStringEi
                0x00002350                _ZN7cString11insertAtBegEPKc
 .glue_7        0x00002bb8        0x0 ./utils/cString.o
 .glue_7t       0x00002bb8        0x0 ./utils/cString.o
 .text          0x00002bb8      0xcc4 ./fat/diskio.o
                0x00002d90                wait_ready
                0x00003680                disk_initialize
                0x00002c4c                disk_status
                0x000032f0                disk_ioctl
                0x00002fa4                getSDCardInfo
                0x00002ea0                xmit_datablock
                0x00002bb8                diskio_initializeSPIMutex
                0x00002cec                rcvr_datablock
                0x00002c68                disk_timerproc
                0x00002c30                chk_power
                0x000032c0                power_off
                0x00002f60                get_spi
                0x00002dcc                send_cmd
                0x000030b8                disk_write
                0x00002bc8                initialize_SdCardSignals
                0x00002f20                release_spi
                0x000031d0                disk_read
                0x00002c2c                power_on
 .glue_7        0x0000387c        0x0 ./fat/diskio.o
 .glue_7t       0x0000387c        0x0 ./fat/diskio.o
 .text          0x0000387c     0x3514 ./fat/ff.o
                0x000042d4                get_fat
                0x0000555c                f_rename
                0x00005a6c                f_truncate
                0x000038a0                gen_numname
                0x00005914                f_unlink
                0x00006ac0                f_close
                0x00006478                f_read
                0x00005d68                f_readdir
                0x00005860                f_chmod
                0x000069d8                f_sync
                0x00006d1c                f_mount
                0x00005e24                f_opendir
                0x0000414c                put_fat
                0x00005ef0                f_lseek
                0x00005ce0                f_stat
                0x0000387c                clust2sect
                0x000057a4                f_utime
                0x00006144                f_write
                0x00006ad8                f_open
                0x000066e4                f_mkdir
                0x00005b70                f_getfree
 .glue_7        0x00006d90        0x0 ./fat/ff.o
 .glue_7t       0x00006d90        0x0 ./fat/ff.o
 .text          0x00006d90      0x15c ./fat/rtc.o
                0x00006db8                rtc_gettime
                0x00006d90                initialize_RTC
                0x00006e9c                get_fattime
                0x00006e38                rtc_settime
 .glue_7        0x00006eec        0x0 ./fat/rtc.o
 .glue_7t       0x00006eec        0x0 ./fat/rtc.o
 .text          0x00006eec       0xb4 ./fat/option/ccsbcs.o
                0x00006f60                ff_wtoupper
                0x00006eec                ff_convert
 .glue_7        0x00006fa0        0x0 ./fat/option/ccsbcs.o
 .glue_7t       0x00006fa0        0x0 ./fat/option/ccsbcs.o
 .text          0x00006fa0       0x60 ./fat/option/reentrant.o
                0x00006fa0                ff_del_syncobj
                0x00006fe0                ff_cre_syncobj
                0x00006fa8                ff_rel_grant
                0x00006fb8                ff_req_grant
 .glue_7        0x00007000        0x0 ./fat/option/reentrant.o
 .glue_7t       0x00007000        0x0 ./fat/option/reentrant.o
 .text          0x00007000      0x738 ./drivers/i2c.o
                0x00007510                initialize_I2C0
                0x00007408                i2cWriteDeviceRegister
                0x00007000                i2cStateMachine
                0x00007468                i2cReadDeviceRegister
                0x0000739c                i2cKickOffTransfer
 .glue_7        0x00007738        0x0 ./drivers/i2c.o
 .glue_7t       0x00007738        0x0 ./drivers/i2c.o
 .text          0x00007738      0x818 ./drivers/pcm1774.o
                0x00007868                pcm1774_bassBoost
                0x000077b4                pcm1774_sendByte
                0x00007c80                pcm1774_LineOutputConfiguration
                0x00007e04                pcm1774_ConnectDigitalOutputs
                0x00007738                pcm1774_readByte
                0x00007c70                pcm1774_PowerUpVcom
                0x00007da4                pcm1774_DigitalInterfaceSelection
                0x00007dd4                pcm1774_DigitalDeEmphasisFilter
                0x00007d38                pcm1774_PowerUpMixer
                0x00007c30                pcm1774_setShortCircuitProtectionRight
                0x00007b64                pcm1774_redirectAnalogInputToLeftOutput
                0x00007d28                pcm1774_PowerUpAnalogBiasControl
                0x00007eb4                pcm1774_3dSoundEffect
                0x00007b28                pcm1774_redirectAnalogInputToRightOutput
                0x00007900                pcm1774_VolumeAdjust
                0x00007764                pcm1774_readShortCircuitStatusLeft
                0x000078b8                pcm1774_DigitalVolume
                0x000079e8                initialize_pcm1774
                0x000077c8                pcm1774_trebleBoost
                0x00007ef8                pcm1774_Reset
                0x00007818                pcm1774_middleBoost
                0x00007d74                pcm1774_DigitalGainControl
                0x00007c04                pcm1774_PowerUpGainAmplifierAnalog
                0x00007adc                pcm1774_bitMask
                0x00007cd0                pcm1774_PowerUpAnalog
                0x00007cfc                pcm1774_PowerUpDAC
                0x00007bd8                pcm1774_selectAnalogInput
                0x00007c50                pcm1774_setShortCircuitProtectionLeft
                0x000079a0                pcm1774_OutputVolume
                0x00007d64                pcm1774_DigitalOversamplingControl
                0x00007784                pcm1774_GetVolume
                0x00007ba0                pcm1774_gainAmplifierAnalogInput
                0x00007744                pcm1774_readShortCircuitStatusRight
                0x00007e30                pcm1774_LoadDefaultDigitalConfiguration
 .glue_7        0x00007f50        0x0 ./drivers/pcm1774.o
 .glue_7t       0x00007f50        0x0 ./drivers/pcm1774.o
 .text          0x00007f50       0x88 ./drivers/ssp_spi.o
                0x00007f50                initialize_SSPSPI
                0x00007fc4                setSSPSPI_Divider
                0x00007f94                rxTxByteSSPSPI
 .glue_7        0x00007fd8        0x0 ./drivers/ssp_spi.o
 .glue_7t       0x00007fd8        0x0 ./drivers/ssp_spi.o
 .text          0x00007fd8      0x58c ./drivers/sta013.o
                0x00008414                sta013GetAverageBitrate
                0x00008110                sta013SetVolume
                0x000081e4                sta013StopDecoder
                0x00008194                sta013ResumeDecoder
                0x000083e0                sta013Mute
                0x000081bc                sta013PauseDecoder
                0x00008388                sta013DownloadUpdate
                0x0000821c                sta013StartDecoder
                0x000083d4                sta013ReadReg
                0x000084c0                initialize_sta013
                0x00008430                sta013GetMP3Info
                0x00007fd8                sta013HWReset
                0x0000804c                sta013WriteReg
                0x00008060                sta013SetTone
 .glue_7        0x00008564        0x0 ./drivers/sta013.o
 .glue_7t       0x00008564        0x0 ./drivers/sta013.o
 .text          0x00008564      0x468 ./drivers/uart0.o
                0x000085c0                uart0GetChar
                0x00008598                uart0PutCharPolling
                0x000086a4                uart0Init
                0x00008564                uart0Deinit
                0x000087ec                uart0ISR
                0x000085f0                uart0PutChar
 .glue_7        0x000089cc        0x0 ./drivers/uart0.o
 .glue_7t       0x000089cc        0x0 ./drivers/uart0.o
 .text          0x000089cc       0xd4 ./drivers/watchdog.o
                0x000089fc                watchdog_Start
                0x000089cc                watchdog_Reset
                0x000089e4                watchdog_Feed
                0x00008a44                watchdogDelayUs
                0x00008a24                watchdog_Stop
 .glue_7        0x00008aa0        0x0 ./drivers/watchdog.o
 .glue_7t       0x00008aa0        0x0 ./drivers/watchdog.o
 .text          0x00008aa0       0x10 ./System/cppmem.o
                0x00008aac                _Znwm
                0x00008aa4                _ZdlPv
                0x00008aa0                _ZdaPv
                0x00008aa8                _Znam
 .glue_7        0x00008ab0        0x0 ./System/cppmem.o
 .glue_7t       0x00008ab0        0x0 ./System/cppmem.o
 .text          0x00008ab0      0x170 ./System/cpu.o
                0x00008b50                cpuPrintMemoryInfo
                0x00008ab0                cpuSetupHardware
 .glue_7        0x00008c20        0x0 ./System/cpu.o
 .glue_7t       0x00008c20        0x0 ./System/cpu.o
 .text          0x00008c20       0xfc ./System/syscalls.o
                0x00008c28                _lseek_r
                0x00008cec                _kill_r
                0x00008c30                _fstat_r
                0x00008d04                _getpid_r
                0x00008c40                _sbrk_r
                0x00008cac                _read_r
                0x00008c20                _close_r
                0x00008c70                _write_r
 .glue_7        0x00008d1c        0x0 ./System/syscalls.o
 .glue_7t       0x00008d1c        0x0 ./System/syscalls.o
 .text          0x00008d1c        0x0 ./System/startup/Arm7CStartup.o
 .glue_7        0x00008d1c        0x0 ./System/startup/Arm7CStartup.o
 .glue_7t       0x00008d1c        0x0 ./System/startup/Arm7CStartup.o
 .text          0x00008d1c        0x0 ./System/startup/Lpc2000ExceptionVectors.o
 .glue_7        0x00008d1c        0x0 ./System/startup/Lpc2000ExceptionVectors.o
 .glue_7t       0x00008d1c        0x0 ./System/startup/Lpc2000ExceptionVectors.o
 .text          0x00008d1c       0x9c ./System/startup/exceptionHandlers.o
                0x00008d88                Exception_PrefetchAbort
                0x00008da0                Exception_UndefinedAddress
                0x00008d58                Exception_FIQHandler
                0x00008d70                Exception_DataAbort
                0x00008d1c                printExceptionInfo
 .glue_7        0x00008db8        0x0 ./System/startup/exceptionHandlers.o
 .glue_7t       0x00008db8        0x0 ./System/startup/exceptionHandlers.o
 .text          0x00008db8      0x158 ./MP3/button.o
                0x00008db8                _Z10buttonTaskPv
 .glue_7        0x00008f10        0x0 ./MP3/button.o
 .glue_7t       0x00008f10        0x0 ./MP3/button.o
 .text          0x00008f10      0x314 ./MP3/control.o
                0x00008f10                _Z11controlTaskPv
 .glue_7        0x00009224        0x0 ./MP3/control.o
 .glue_7t       0x00009224        0x0 ./MP3/control.o
 .text          0x00009224      0x2a0 ./MP3/mp3.o
                0x00009224                _Z7mp3TaskPv
 .text._ZN6VECTORI7cStringE14changeCapacityEj
                0x000094c4       0xe0 ./MP3/mp3.o
                0x000094c4                _ZN6VECTORI7cStringE14changeCapacityEj
 .text._ZN6VECTORI7cStringE11rotateRightEv
                0x000095a4       0xbc ./MP3/mp3.o
                0x000095a4                _ZN6VECTORI7cStringE11rotateRightEv
 .text._ZN6VECTORI7cStringE10rotateLeftEv
                0x00009660       0xb0 ./MP3/mp3.o
                0x00009660                _ZN6VECTORI7cStringE10rotateLeftEv
 .glue_7        0x00009710        0x0 ./MP3/mp3.o
 .glue_7t       0x00009710        0x0 ./MP3/mp3.o
 .text          0x00009710      0x6c0 ./General/userInterface.o
                0x000097b4                _Z9printLinev
                0x00009710                _Z11getUartLinePc
                0x000097c0                _Z6uartUIPv
 .glue_7        0x00009dd0        0x0 ./General/userInterface.o
 .glue_7t       0x00009dd0        0x0 ./General/userInterface.o
 .text          0x00009dd0        0x0 ./FreeRTOS/src/croutine.o
 .glue_7        0x00009dd0        0x0 ./FreeRTOS/src/croutine.o
 .glue_7t       0x00009dd0        0x0 ./FreeRTOS/src/croutine.o
 .text          0x00009dd0       0xf4 ./FreeRTOS/src/list.o
                0x00009e00                vListInsertEnd
                0x00009e88                vListRemove
                0x00009df4                vListInitialiseItem
                0x00009dd0                vListInitialise
                0x00009e34                vListInsert
 .glue_7        0x00009ec4        0x0 ./FreeRTOS/src/list.o
 .glue_7t       0x00009ec4        0x0 ./FreeRTOS/src/list.o
 .text          0x00009ec4      0x1c0 ./FreeRTOS/src/port.o
                0x0000a018                xPortStartScheduler
                0x0000a014                vPortEndScheduler
                0x00009ec4                pxPortInitialiseStack
 .glue_7        0x0000a084        0x0 ./FreeRTOS/src/port.o
 .glue_7t       0x0000a084        0x0 ./FreeRTOS/src/port.o
 .text          0x0000a084      0x228 ./FreeRTOS/src/portISR.o
                0x0000a174                vTickISR
                0x0000a260                vPortExitCritical
                0x0000a0d0                vPortYieldProcessor
                0x0000a084                vPortISRStartFirstTask
                0x0000a234                vPortEnterCritical
 .glue_7        0x0000a2ac        0x0 ./FreeRTOS/src/portISR.o
 .glue_7t       0x0000a2ac        0x0 ./FreeRTOS/src/portISR.o
 .text          0x0000a2ac      0x77c ./FreeRTOS/src/queue.o
                0x0000a3b4                vQueueWaitForMessageRestricted
                0x0000a74c                xQueueGenericSendFromISR
                0x0000a408                vQueueDelete
                0x0000a7bc                xQueueGenericSend
                0x0000a2b4                ucQueueGetQueueNumber
                0x0000a2c4                ucQueueGetQueueType
                0x0000a424                xQueueReceiveFromISR
                0x0000a980                xQueueGenericCreate
                0x0000a2bc                vQueueSetQueueNumber
                0x0000a2dc                xQueueIsQueueFullFromISR
                0x0000a2f4                uxQueueMessagesWaiting
                0x0000a4cc                xQueueGenericReceive
                0x0000a2ac                uxQueueMessagesWaitingFromISR
                0x0000a2cc                xQueueIsQueueEmptyFromISR
                0x0000a904                xQueueCreateMutex
 .glue_7        0x0000aa28        0x0 ./FreeRTOS/src/queue.o
 .glue_7t       0x0000aa28        0x0 ./FreeRTOS/src/queue.o
 .text          0x0000aa28     0x13d8 ./FreeRTOS/src/tasks.o
                0x0000b760                vTaskGetRunTimeStats
                0x0000baa8                vTaskEndScheduler
                0x0000b3fc                vTaskPlaceOnEventList
                0x0000badc                xTaskGenericCreate
                0x0000aa28                xTaskIsTaskSuspended
                0x0000ab5c                uxTaskGetStackHighWaterMark
                0x0000aecc                xTaskResumeFromISR
                0x0000aad8                runTimeStatISRExit
                0x0000b030                xTaskGetTickCount
                0x0000acd8                xTaskRemoveFromEventList
                0x0000af94                xTaskCheckForTimeOut
                0x0000aa64                vTaskSuspendAll
                0x0000aa7c                xTaskGetTickCountFromISR
                0x0000abd0                vTaskPriorityDisinherit
                0x0000ac38                vTaskPriorityInherit
                0x0000b190                vTaskResume
                0x0000b45c                vTaskSwitchContext
                0x0000b2c4                vTaskPlaceOnEventListRestricted
                0x0000ab50                vTaskSetTaskNumber
                0x0000b590                vTaskSuspend
                0x0000aa8c                uxTaskGetNumberOfTasks
                0x0000ad70                vTaskIncrementTick
                0x0000b9cc                vTaskList
                0x0000ab44                uxTaskGetTaskNumber
                0x0000b360                vTaskDelayUntil
                0x0000ab90                xTaskGetCurrentTaskHandle
                0x0000b050                xTaskResumeAll
                0x0000bd54                vTaskStartScheduler
                0x0000ab30                vTaskMissedYield
                0x0000aa9c                runTimeStatISREntry
                0x0000b304                vTaskDelay
                0x0000aba0                xTaskGetSchedulerState
                0x0000ab10                vTaskSetTimeOutState
 .glue_7        0x0000be00        0x0 ./FreeRTOS/src/tasks.o
 .glue_7t       0x0000be00        0x0 ./FreeRTOS/src/tasks.o
 .text          0x0000be00      0x53c ./FreeRTOS/src/timers.o
                0x0000bf1c                xTimerCreate
                0x0000be2c                xTimerGenericCommand
                0x0000bf74                xTimerCreateTimerTask
                0x0000be00                pvTimerGetTimerID
                0x0000be08                xTimerIsTimerActive
 .glue_7        0x0000c33c        0x0 ./FreeRTOS/src/timers.o
 .glue_7t       0x0000c33c        0x0 ./FreeRTOS/src/timers.o
 .text          0x0000c33c       0x4c ./FreeRTOS/mem/heap_3.o
                0x0000c33c                vPortFree
                0x0000c35c                pvPortMalloc
 .glue_7        0x0000c388        0x0 ./FreeRTOS/mem/heap_3.o
 .glue_7t       0x0000c388        0x0 ./FreeRTOS/mem/heap_3.o
 .text          0x0000c388       0x6c ./FreeRTOS/hooks/hooks.o
                0x0000c3a0                vApplicationMallocFailedHook
                0x0000c3c0                vApplicationStackOverflowHook
                0x0000c388                vApplicationIdleHook
 .glue_7        0x0000c3f4        0x0 ./FreeRTOS/hooks/hooks.o
 .glue_7t       0x0000c3f4        0x0 ./FreeRTOS/hooks/hooks.o
 .text          0x0000c3f4      0x110 /cygdrive/c/Users/Public/Desktop/CmpE146Package/GNUARM/bin/../lib/gcc/arm-elf/4.3.2/libgcc.a(_udivsi3.o)
                0x0000c3f4                __udivsi3
                0x0000c3f4                __aeabi_uidiv
                0x0000c4ec                __aeabi_uidivmod
 .glue_7        0x0000c504        0x0 /cygdrive/c/Users/Public/Desktop/CmpE146Package/GNUARM/bin/../lib/gcc/arm-elf/4.3.2/libgcc.a(_udivsi3.o)
 .glue_7t       0x0000c504        0x0 /cygdrive/c/Users/Public/Desktop/CmpE146Package/GNUARM/bin/../lib/gcc/arm-elf/4.3.2/libgcc.a(_udivsi3.o)
 .text          0x0000c504      0x140 /cygdrive/c/Users/Public/Desktop/CmpE146Package/GNUARM/bin/../lib/gcc/arm-elf/4.3.2/libgcc.a(_divsi3.o)
                0x0000c504                __aeabi_idiv
                0x0000c504                __divsi3
                0x0000c62c                __aeabi_idivmod
 .glue_7        0x0000c644        0x0 /cygdrive/c/Users/Public/Desktop/CmpE146Package/GNUARM/bin/../lib/gcc/arm-elf/4.3.2/libgcc.a(_divsi3.o)
 .glue_7t       0x0000c644        0x0 /cygdrive/c/Users/Public/Desktop/CmpE146Package/GNUARM/bin/../lib/gcc/arm-elf/4.3.2/libgcc.a(_divsi3.o)
 .text          0x0000c644       0xcc /cygdrive/c/Users/Public/Desktop/CmpE146Package/GNUARM/bin/../lib/gcc/arm-elf/4.3.2/libgcc.a(_umodsi3.o)
                0x0000c644                __umodsi3
 .glue_7        0x0000c710        0x0 /cygdrive/c/Users/Public/Desktop/CmpE146Package/GNUARM/bin/../lib/gcc/arm-elf/4.3.2/libgcc.a(_umodsi3.o)
 .glue_7t       0x0000c710        0x0 /cygdrive/c/Users/Public/Desktop/CmpE146Package/GNUARM/bin/../lib/gcc/arm-elf/4.3.2/libgcc.a(_umodsi3.o)
 .text          0x0000c710        0x4 /cygdrive/c/Users/Public/Desktop/CmpE146Package/GNUARM/bin/../lib/gcc/arm-elf/4.3.2/libgcc.a(_dvmd_tls.o)
                0x0000c710                __aeabi_ldiv0
                0x0000c710                __div0
                0x0000c710                __aeabi_idiv0
 .glue_7        0x0000c714        0x0 /cygdrive/c/Users/Public/Desktop/CmpE146Package/GNUARM/bin/../lib/gcc/arm-elf/4.3.2/libgcc.a(_dvmd_tls.o)
 .glue_7t       0x0000c714        0x0 /cygdrive/c/Users/Public/Desktop/CmpE146Package/GNUARM/bin/../lib/gcc/arm-elf/4.3.2/libgcc.a(_dvmd_tls.o)
 .text          0x0000c714      0x400 /cygdrive/c/Users/Public/Desktop/CmpE146Package/GNUARM/bin/../lib/gcc/arm-elf/4.3.2/libgcc.a(_addsubdf3.o)
                0x0000caa8                __floatdidf
                0x0000ca28                __floatsidf
                0x0000ca00                __aeabi_ui2d
                0x0000c714                __aeabi_drsub
                0x0000ca54                __extendsfdf2
                0x0000c720                __adddf3
                0x0000ca00                __floatunsidf
                0x0000c720                __aeabi_dadd
                0x0000ca94                __aeabi_ul2d
                0x0000c71c                __aeabi_dsub
                0x0000ca94                __floatundidf
                0x0000ca28                __aeabi_i2d
                0x0000caa8                __aeabi_l2d
                0x0000ca54                __aeabi_f2d
                0x0000c71c                __subdf3
 .glue_7        0x0000cb14        0x0 /cygdrive/c/Users/Public/Desktop/CmpE146Package/GNUARM/bin/../lib/gcc/arm-elf/4.3.2/libgcc.a(_addsubdf3.o)
 .glue_7t       0x0000cb14        0x0 /cygdrive/c/Users/Public/Desktop/CmpE146Package/GNUARM/bin/../lib/gcc/arm-elf/4.3.2/libgcc.a(_addsubdf3.o)
 .text          0x0000cb14       0xa0 /cygdrive/c/Users/Public/Desktop/CmpE146Package/GNUARM/bin/../lib/gcc/arm-elf/4.3.2/libgcc.a(_truncdfsf2.o)
                0x0000cb14                __aeabi_d2f
                0x0000cb14                __truncdfsf2
 .glue_7        0x0000cbb4        0x0 /cygdrive/c/Users/Public/Desktop/CmpE146Package/GNUARM/bin/../lib/gcc/arm-elf/4.3.2/libgcc.a(_truncdfsf2.o)
 .glue_7t       0x0000cbb4        0x0 /cygdrive/c/Users/Public/Desktop/CmpE146Package/GNUARM/bin/../lib/gcc/arm-elf/4.3.2/libgcc.a(_truncdfsf2.o)
 .text          0x0000cbb4      0x2ac /cygdrive/c/Users/Public/Desktop/CmpE146Package/GNUARM/bin/../lib/gcc/arm-elf/4.3.2/libgcc.a(_addsubsf3.o)
                0x0000cbc0                __aeabi_fadd
                0x0000cbbc                __subsf3
                0x0000cd84                __aeabi_i2f
                0x0000cbbc                __aeabi_fsub
                0x0000cdb4                __floatdisf
                0x0000cd84                __floatsisf
                0x0000cda4                __floatundisf
                0x0000cd7c                __aeabi_ui2f
                0x0000cdb4                __aeabi_l2f
                0x0000cda4                __aeabi_ul2f
                0x0000cbb4                __aeabi_frsub
                0x0000cd7c                __floatunsisf
                0x0000cbc0                __addsf3
 .glue_7        0x0000ce60        0x0 /cygdrive/c/Users/Public/Desktop/CmpE146Package/GNUARM/bin/../lib/gcc/arm-elf/4.3.2/libgcc.a(_addsubsf3.o)
 .glue_7t       0x0000ce60        0x0 /cygdrive/c/Users/Public/Desktop/CmpE146Package/GNUARM/bin/../lib/gcc/arm-elf/4.3.2/libgcc.a(_addsubsf3.o)
 .text          0x0000ce60        0x8 /cygdrive/c/Users/Public/Desktop/CmpE146Package/GNUARM/bin/../lib/gcc/arm-elf/4.3.2/../../../../arm-elf/lib/libc.a(lib_a-atof.o)
                0x0000ce60                atof
 .glue_7        0x0000ce68        0x0 /cygdrive/c/Users/Public/Desktop/CmpE146Package/GNUARM/bin/../lib/gcc/arm-elf/4.3.2/../../../../arm-elf/lib/libc.a(lib_a-atof.o)
 .glue_7t       0x0000ce68        0x0 /cygdrive/c/Users/Public/Desktop/CmpE146Package/GNUARM/bin/../lib/gcc/arm-elf/4.3.2/../../../../arm-elf/lib/libc.a(lib_a-atof.o)
 .text          0x0000ce68       0x18 /cygdrive/c/Users/Public/Desktop/CmpE146Package/GNUARM/bin/../lib/gcc/arm-elf/4.3.2/../../../../arm-elf/lib/libc.a(lib_a-atoi.o)
                0x0000ce68                _atoi_r
                0x0000ce74                atoi
 .glue_7        0x0000ce80        0x0 /cygdrive/c/Users/Public/Desktop/CmpE146Package/GNUARM/bin/../lib/gcc/arm-elf/4.3.2/../../../../arm-elf/lib/libc.a(lib_a-atoi.o)
 .glue_7t       0x0000ce80        0x0 /cygdrive/c/Users/Public/Desktop/CmpE146Package/GNUARM/bin/../lib/gcc/arm-elf/4.3.2/../../../../arm-elf/lib/libc.a(lib_a-atoi.o)
 .text          0x0000ce80       0x54 /cygdrive/c/Users/Public/Desktop/CmpE146Package/GNUARM/bin/../lib/gcc/arm-elf/4.3.2/../../../../arm-elf/lib/libc.a(lib_a-iprintf.o)
                0x0000ce80                _iprintf_r
                0x0000cea4                iprintf
 .glue_7        0x0000ced4        0x0 /cygdrive/c/Users/Public/Desktop/CmpE146Package/GNUARM/bin/../lib/gcc/arm-elf/4.3.2/../../../../arm-elf/lib/libc.a(lib_a-iprintf.o)
 .glue_7t       0x0000ced4        0x0 /cygdrive/c/Users/Public/Desktop/CmpE146Package/GNUARM/bin/../lib/gcc/arm-elf/4.3.2/../../../../arm-elf/lib/libc.a(lib_a-iprintf.o)
 .text          0x0000ced4       0x28 /cygdrive/c/Users/Public/Desktop/CmpE146Package/GNUARM/bin/../lib/gcc/arm-elf/4.3.2/../../../../arm-elf/lib/libc.a(lib_a-malloc.o)
                0x0000cee8                malloc
                0x0000ced4                free
 .glue_7        0x0000cefc        0x0 /cygdrive/c/Users/Public/Desktop/CmpE146Package/GNUARM/bin/../lib/gcc/arm-elf/4.3.2/../../../../arm-elf/lib/libc.a(lib_a-malloc.o)
 .glue_7t       0x0000cefc        0x0 /cygdrive/c/Users/Public/Desktop/CmpE146Package/GNUARM/bin/../lib/gcc/arm-elf/4.3.2/../../../../arm-elf/lib/libc.a(lib_a-malloc.o)
 .text          0x0000cefc      0x734 /cygdrive/c/Users/Public/Desktop/CmpE146Package/GNUARM/bin/../lib/gcc/arm-elf/4.3.2/../../../../arm-elf/lib/libc.a(lib_a-mallocr.o)
                0x0000cefc                _malloc_r
 .glue_7        0x0000d630        0x0 /cygdrive/c/Users/Public/Desktop/CmpE146Package/GNUARM/bin/../lib/gcc/arm-elf/4.3.2/../../../../arm-elf/lib/libc.a(lib_a-mallocr.o)
 .glue_7t       0x0000d630        0x0 /cygdrive/c/Users/Public/Desktop/CmpE146Package/GNUARM/bin/../lib/gcc/arm-elf/4.3.2/../../../../arm-elf/lib/libc.a(lib_a-mallocr.o)
 .text          0x0000d630       0xac /cygdrive/c/Users/Public/Desktop/CmpE146Package/GNUARM/bin/../lib/gcc/arm-elf/4.3.2/../../../../arm-elf/lib/libc.a(lib_a-memcmp.o)
                0x0000d630                memcmp
 .glue_7        0x0000d6dc        0x0 /cygdrive/c/Users/Public/Desktop/CmpE146Package/GNUARM/bin/../lib/gcc/arm-elf/4.3.2/../../../../arm-elf/lib/libc.a(lib_a-memcmp.o)
 .glue_7t       0x0000d6dc        0x0 /cygdrive/c/Users/Public/Desktop/CmpE146Package/GNUARM/bin/../lib/gcc/arm-elf/4.3.2/../../../../arm-elf/lib/libc.a(lib_a-memcmp.o)
 .text          0x0000d6dc       0xfc /cygdrive/c/Users/Public/Desktop/CmpE146Package/GNUARM/bin/../lib/gcc/arm-elf/4.3.2/../../../../arm-elf/lib/libc.a(lib_a-memcpy.o)
                0x0000d6dc                memcpy
 .glue_7        0x0000d7d8        0x0 /cygdrive/c/Users/Public/Desktop/CmpE146Package/GNUARM/bin/../lib/gcc/arm-elf/4.3.2/../../../../arm-elf/lib/libc.a(lib_a-memcpy.o)
 .glue_7t       0x0000d7d8        0x0 /cygdrive/c/Users/Public/Desktop/CmpE146Package/GNUARM/bin/../lib/gcc/arm-elf/4.3.2/../../../../arm-elf/lib/libc.a(lib_a-memcpy.o)
 .text          0x0000d7d8      0x144 /cygdrive/c/Users/Public/Desktop/CmpE146Package/GNUARM/bin/../lib/gcc/arm-elf/4.3.2/../../../../arm-elf/lib/libc.a(lib_a-memmove.o)
                0x0000d7d8                memmove
 .glue_7        0x0000d91c        0x0 /cygdrive/c/Users/Public/Desktop/CmpE146Package/GNUARM/bin/../lib/gcc/arm-elf/4.3.2/../../../../arm-elf/lib/libc.a(lib_a-memmove.o)
 .glue_7t       0x0000d91c        0x0 /cygdrive/c/Users/Public/Desktop/CmpE146Package/GNUARM/bin/../lib/gcc/arm-elf/4.3.2/../../../../arm-elf/lib/libc.a(lib_a-memmove.o)
 .text          0x0000d91c       0xd0 /cygdrive/c/Users/Public/Desktop/CmpE146Package/GNUARM/bin/../lib/gcc/arm-elf/4.3.2/../../../../arm-elf/lib/libc.a(lib_a-memset.o)
                0x0000d91c                memset
 .glue_7        0x0000d9ec        0x0 /cygdrive/c/Users/Public/Desktop/CmpE146Package/GNUARM/bin/../lib/gcc/arm-elf/4.3.2/../../../../arm-elf/lib/libc.a(lib_a-memset.o)
 .glue_7t       0x0000d9ec        0x0 /cygdrive/c/Users/Public/Desktop/CmpE146Package/GNUARM/bin/../lib/gcc/arm-elf/4.3.2/../../../../arm-elf/lib/libc.a(lib_a-memset.o)
 .text          0x0000d9ec        0x8 /cygdrive/c/Users/Public/Desktop/CmpE146Package/GNUARM/bin/../lib/gcc/arm-elf/4.3.2/../../../../arm-elf/lib/libc.a(lib_a-mlock.o)
                0x0000d9f0                __malloc_unlock
                0x0000d9ec                __malloc_lock
 .glue_7        0x0000d9f4        0x0 /cygdrive/c/Users/Public/Desktop/CmpE146Package/GNUARM/bin/../lib/gcc/arm-elf/4.3.2/../../../../arm-elf/lib/libc.a(lib_a-mlock.o)
 .glue_7t       0x0000d9f4        0x0 /cygdrive/c/Users/Public/Desktop/CmpE146Package/GNUARM/bin/../lib/gcc/arm-elf/4.3.2/../../../../arm-elf/lib/libc.a(lib_a-mlock.o)
 .text          0x0000d9f4       0x1c /cygdrive/c/Users/Public/Desktop/CmpE146Package/GNUARM/bin/../lib/gcc/arm-elf/4.3.2/../../../../arm-elf/lib/libc.a(lib_a-realloc.o)
                0x0000d9f4                realloc
 .glue_7        0x0000da10        0x0 /cygdrive/c/Users/Public/Desktop/CmpE146Package/GNUARM/bin/../lib/gcc/arm-elf/4.3.2/../../../../arm-elf/lib/libc.a(lib_a-realloc.o)
 .glue_7t       0x0000da10        0x0 /cygdrive/c/Users/Public/Desktop/CmpE146Package/GNUARM/bin/../lib/gcc/arm-elf/4.3.2/../../../../arm-elf/lib/libc.a(lib_a-realloc.o)
 .text          0x0000da10      0x510 /cygdrive/c/Users/Public/Desktop/CmpE146Package/GNUARM/bin/../lib/gcc/arm-elf/4.3.2/../../../../arm-elf/lib/libc.a(lib_a-reallocr.o)
                0x0000da10                _realloc_r
 .glue_7        0x0000df20        0x0 /cygdrive/c/Users/Public/Desktop/CmpE146Package/GNUARM/bin/../lib/gcc/arm-elf/4.3.2/../../../../arm-elf/lib/libc.a(lib_a-reallocr.o)
 .glue_7t       0x0000df20        0x0 /cygdrive/c/Users/Public/Desktop/CmpE146Package/GNUARM/bin/../lib/gcc/arm-elf/4.3.2/../../../../arm-elf/lib/libc.a(lib_a-reallocr.o)
 .text          0x0000df20       0xcc /cygdrive/c/Users/Public/Desktop/CmpE146Package/GNUARM/bin/../lib/gcc/arm-elf/4.3.2/../../../../arm-elf/lib/libc.a(lib_a-siprintf.o)
                0x0000df8c                _siprintf_r
                0x0000df20                siprintf
 .glue_7        0x0000dfec        0x0 /cygdrive/c/Users/Public/Desktop/CmpE146Package/GNUARM/bin/../lib/gcc/arm-elf/4.3.2/../../../../arm-elf/lib/libc.a(lib_a-siprintf.o)
 .glue_7t       0x0000dfec        0x0 /cygdrive/c/Users/Public/Desktop/CmpE146Package/GNUARM/bin/../lib/gcc/arm-elf/4.3.2/../../../../arm-elf/lib/libc.a(lib_a-siprintf.o)
 .text          0x0000dfec       0xcc /cygdrive/c/Users/Public/Desktop/CmpE146Package/GNUARM/bin/../lib/gcc/arm-elf/4.3.2/../../../../arm-elf/lib/libc.a(lib_a-sprintf.o)
                0x0000e058                _sprintf_r
                0x0000dfec                sprintf
 .glue_7        0x0000e0b8        0x0 /cygdrive/c/Users/Public/Desktop/CmpE146Package/GNUARM/bin/../lib/gcc/arm-elf/4.3.2/../../../../arm-elf/lib/libc.a(lib_a-sprintf.o)
 .glue_7t       0x0000e0b8        0x0 /cygdrive/c/Users/Public/Desktop/CmpE146Package/GNUARM/bin/../lib/gcc/arm-elf/4.3.2/../../../../arm-elf/lib/libc.a(lib_a-sprintf.o)
 .text          0x0000e0b8       0xa4 /cygdrive/c/Users/Public/Desktop/CmpE146Package/GNUARM/bin/../lib/gcc/arm-elf/4.3.2/../../../../arm-elf/lib/libc.a(lib_a-strcat.o)
                0x0000e0b8                strcat
 .glue_7        0x0000e15c        0x0 /cygdrive/c/Users/Public/Desktop/CmpE146Package/GNUARM/bin/../lib/gcc/arm-elf/4.3.2/../../../../arm-elf/lib/libc.a(lib_a-strcat.o)
 .glue_7t       0x0000e15c        0x0 /cygdrive/c/Users/Public/Desktop/CmpE146Package/GNUARM/bin/../lib/gcc/arm-elf/4.3.2/../../../../arm-elf/lib/libc.a(lib_a-strcat.o)
 .text          0x0000e15c      0x134 /cygdrive/c/Users/Public/Desktop/CmpE146Package/GNUARM/bin/../lib/gcc/arm-elf/4.3.2/../../../../arm-elf/lib/libc.a(lib_a-strchr.o)
                0x0000e15c                strchr
 .glue_7        0x0000e290        0x0 /cygdrive/c/Users/Public/Desktop/CmpE146Package/GNUARM/bin/../lib/gcc/arm-elf/4.3.2/../../../../arm-elf/lib/libc.a(lib_a-strchr.o)
 .glue_7t       0x0000e290        0x0 /cygdrive/c/Users/Public/Desktop/CmpE146Package/GNUARM/bin/../lib/gcc/arm-elf/4.3.2/../../../../arm-elf/lib/libc.a(lib_a-strchr.o)
 .text          0x0000e290       0xe8 /cygdrive/c/Users/Public/Desktop/CmpE146Package/GNUARM/bin/../lib/gcc/arm-elf/4.3.2/../../../../arm-elf/lib/libc.a(lib_a-strcmp.o)
                0x0000e290                strcmp
 .glue_7        0x0000e378        0x0 /cygdrive/c/Users/Public/Desktop/CmpE146Package/GNUARM/bin/../lib/gcc/arm-elf/4.3.2/../../../../arm-elf/lib/libc.a(lib_a-strcmp.o)
 .glue_7t       0x0000e378        0x0 /cygdrive/c/Users/Public/Desktop/CmpE146Package/GNUARM/bin/../lib/gcc/arm-elf/4.3.2/../../../../arm-elf/lib/libc.a(lib_a-strcmp.o)
 .text          0x0000e378       0xb8 /cygdrive/c/Users/Public/Desktop/CmpE146Package/GNUARM/bin/../lib/gcc/arm-elf/4.3.2/../../../../arm-elf/lib/libc.a(lib_a-strcpy.o)
                0x0000e378                strcpy
 .glue_7        0x0000e430        0x0 /cygdrive/c/Users/Public/Desktop/CmpE146Package/GNUARM/bin/../lib/gcc/arm-elf/4.3.2/../../../../arm-elf/lib/libc.a(lib_a-strcpy.o)
 .glue_7t       0x0000e430        0x0 /cygdrive/c/Users/Public/Desktop/CmpE146Package/GNUARM/bin/../lib/gcc/arm-elf/4.3.2/../../../../arm-elf/lib/libc.a(lib_a-strcpy.o)
 .text          0x0000e430       0x9c /cygdrive/c/Users/Public/Desktop/CmpE146Package/GNUARM/bin/../lib/gcc/arm-elf/4.3.2/../../../../arm-elf/lib/libc.a(lib_a-strlen.o)
                0x0000e430                strlen
 .glue_7        0x0000e4cc        0x0 /cygdrive/c/Users/Public/Desktop/CmpE146Package/GNUARM/bin/../lib/gcc/arm-elf/4.3.2/../../../../arm-elf/lib/libc.a(lib_a-strlen.o)
 .glue_7t       0x0000e4cc        0x0 /cygdrive/c/Users/Public/Desktop/CmpE146Package/GNUARM/bin/../lib/gcc/arm-elf/4.3.2/../../../../arm-elf/lib/libc.a(lib_a-strlen.o)
 .text          0x0000e4cc      0x10c /cygdrive/c/Users/Public/Desktop/CmpE146Package/GNUARM/bin/../lib/gcc/arm-elf/4.3.2/../../../../arm-elf/lib/libc.a(lib_a-strncpy.o)
                0x0000e4cc                strncpy
 .glue_7        0x0000e5d8        0x0 /cygdrive/c/Users/Public/Desktop/CmpE146Package/GNUARM/bin/../lib/gcc/arm-elf/4.3.2/../../../../arm-elf/lib/libc.a(lib_a-strncpy.o)
 .glue_7t       0x0000e5d8        0x0 /cygdrive/c/Users/Public/Desktop/CmpE146Package/GNUARM/bin/../lib/gcc/arm-elf/4.3.2/../../../../arm-elf/lib/libc.a(lib_a-strncpy.o)
 .text          0x0000e5d8       0x5c /cygdrive/c/Users/Public/Desktop/CmpE146Package/GNUARM/bin/../lib/gcc/arm-elf/4.3.2/../../../../arm-elf/lib/libc.a(lib_a-strstr.o)
                0x0000e5d8                strstr
 .glue_7        0x0000e634        0x0 /cygdrive/c/Users/Public/Desktop/CmpE146Package/GNUARM/bin/../lib/gcc/arm-elf/4.3.2/../../../../arm-elf/lib/libc.a(lib_a-strstr.o)
 .glue_7t       0x0000e634        0x0 /cygdrive/c/Users/Public/Desktop/CmpE146Package/GNUARM/bin/../lib/gcc/arm-elf/4.3.2/../../../../arm-elf/lib/libc.a(lib_a-strstr.o)
 .text          0x0000e634     0x1630 /cygdrive/c/Users/Public/Desktop/CmpE146Package/GNUARM/bin/../lib/gcc/arm-elf/4.3.2/../../../../arm-elf/lib/libc.a(lib_a-strtod.o)
                0x0000e634                _strtod_r
                0x0000fc48                strtod
                0x0000fbf8                strtof
 .glue_7        0x0000fc64        0x0 /cygdrive/c/Users/Public/Desktop/CmpE146Package/GNUARM/bin/../lib/gcc/arm-elf/4.3.2/../../../../arm-elf/lib/libc.a(lib_a-strtod.o)
 .glue_7t       0x0000fc64        0x0 /cygdrive/c/Users/Public/Desktop/CmpE146Package/GNUARM/bin/../lib/gcc/arm-elf/4.3.2/../../../../arm-elf/lib/libc.a(lib_a-strtod.o)
 .text          0x0000fc64       0x18 /cygdrive/c/Users/Public/Desktop/CmpE146Package/GNUARM/bin/../lib/gcc/arm-elf/4.3.2/../../../../arm-elf/lib/libc.a(lib_a-strtok.o)
                0x0000fc64                strtok
 .glue_7        0x0000fc7c        0x0 /cygdrive/c/Users/Public/Desktop/CmpE146Package/GNUARM/bin/../lib/gcc/arm-elf/4.3.2/../../../../arm-elf/lib/libc.a(lib_a-strtok.o)
 .glue_7t       0x0000fc7c        0x0 /cygdrive/c/Users/Public/Desktop/CmpE146Package/GNUARM/bin/../lib/gcc/arm-elf/4.3.2/../../../../arm-elf/lib/libc.a(lib_a-strtok.o)
 .text          0x0000fc7c       0xd0 /cygdrive/c/Users/Public/Desktop/CmpE146Package/GNUARM/bin/../lib/gcc/arm-elf/4.3.2/../../../../arm-elf/lib/libc.a(lib_a-strtok_r.o)
                0x0000fd44                strtok_r
                0x0000fc7c                __strtok_r
 .glue_7        0x0000fd4c        0x0 /cygdrive/c/Users/Public/Desktop/CmpE146Package/GNUARM/bin/../lib/gcc/arm-elf/4.3.2/../../../../arm-elf/lib/libc.a(lib_a-strtok_r.o)
 .glue_7t       0x0000fd4c        0x0 /cygdrive/c/Users/Public/Desktop/CmpE146Package/GNUARM/bin/../lib/gcc/arm-elf/4.3.2/../../../../arm-elf/lib/libc.a(lib_a-strtok_r.o)
 .text          0x0000fd4c      0x1e0 /cygdrive/c/Users/Public/Desktop/CmpE146Package/GNUARM/bin/../lib/gcc/arm-elf/4.3.2/../../../../arm-elf/lib/libc.a(lib_a-strtol.o)
                0x0000ff00                strtol
                0x0000fd4c                _strtol_r
 .glue_7        0x0000ff2c        0x0 /cygdrive/c/Users/Public/Desktop/CmpE146Package/GNUARM/bin/../lib/gcc/arm-elf/4.3.2/../../../../arm-elf/lib/libc.a(lib_a-strtol.o)
 .glue_7t       0x0000ff2c        0x0 /cygdrive/c/Users/Public/Desktop/CmpE146Package/GNUARM/bin/../lib/gcc/arm-elf/4.3.2/../../../../arm-elf/lib/libc.a(lib_a-strtol.o)
 .text          0x0000ff2c       0x1c /cygdrive/c/Users/Public/Desktop/CmpE146Package/GNUARM/bin/../lib/gcc/arm-elf/4.3.2/../../../../arm-elf/lib/libc.a(lib_a-tolower.o)
                0x0000ff2c                tolower
 .glue_7        0x0000ff48        0x0 /cygdrive/c/Users/Public/Desktop/CmpE146Package/GNUARM/bin/../lib/gcc/arm-elf/4.3.2/../../../../arm-elf/lib/libc.a(lib_a-tolower.o)
 .glue_7t       0x0000ff48        0x0 /cygdrive/c/Users/Public/Desktop/CmpE146Package/GNUARM/bin/../lib/gcc/arm-elf/4.3.2/../../../../arm-elf/lib/libc.a(lib_a-tolower.o)
 .text          0x0000ff48       0x1c /cygdrive/c/Users/Public/Desktop/CmpE146Package/GNUARM/bin/../lib/gcc/arm-elf/4.3.2/../../../../arm-elf/lib/libc.a(lib_a-toupper.o)
                0x0000ff48                toupper
 .glue_7        0x0000ff64        0x0 /cygdrive/c/Users/Public/Desktop/CmpE146Package/GNUARM/bin/../lib/gcc/arm-elf/4.3.2/../../../../arm-elf/lib/libc.a(lib_a-toupper.o)
 .glue_7t       0x0000ff64        0x0 /cygdrive/c/Users/Public/Desktop/CmpE146Package/GNUARM/bin/../lib/gcc/arm-elf/4.3.2/../../../../arm-elf/lib/libc.a(lib_a-toupper.o)
 .text          0x0000ff64      0xff0 /cygdrive/c/Users/Public/Desktop/CmpE146Package/GNUARM/bin/../lib/gcc/arm-elf/4.3.2/../../../../arm-elf/lib/libc.a(lib_a-vfiprintf.o)
                0x00010f28                vfiprintf
                0x0000ff94                _vfiprintf_r
 .glue_7        0x00010f54        0x0 /cygdrive/c/Users/Public/Desktop/CmpE146Package/GNUARM/bin/../lib/gcc/arm-elf/4.3.2/../../../../arm-elf/lib/libc.a(lib_a-vfiprintf.o)
 .glue_7t       0x00010f54        0x0 /cygdrive/c/Users/Public/Desktop/CmpE146Package/GNUARM/bin/../lib/gcc/arm-elf/4.3.2/../../../../arm-elf/lib/libc.a(lib_a-vfiprintf.o)
 .text          0x00010f54     0x1dd8 /cygdrive/c/Users/Public/Desktop/CmpE146Package/GNUARM/bin/../lib/gcc/arm-elf/4.3.2/../../../../arm-elf/lib/libc.a(lib_a-vfprintf.o)
                0x00010f84                _vfprintf_r
                0x00012d00                vfprintf
 .glue_7        0x00012d2c        0x0 /cygdrive/c/Users/Public/Desktop/CmpE146Package/GNUARM/bin/../lib/gcc/arm-elf/4.3.2/../../../../arm-elf/lib/libc.a(lib_a-vfprintf.o)
 .glue_7t       0x00012d2c        0x0 /cygdrive/c/Users/Public/Desktop/CmpE146Package/GNUARM/bin/../lib/gcc/arm-elf/4.3.2/../../../../arm-elf/lib/libc.a(lib_a-vfprintf.o)
 .text          0x00012d2c      0x144 /cygdrive/c/Users/Public/Desktop/CmpE146Package/GNUARM/bin/../lib/gcc/arm-elf/4.3.2/../../../../arm-elf/lib/libc.a(lib_a-wsetup.o)
                0x00012d2c                __swsetup_r
 .glue_7        0x00012e70        0x0 /cygdrive/c/Users/Public/Desktop/CmpE146Package/GNUARM/bin/../lib/gcc/arm-elf/4.3.2/../../../../arm-elf/lib/libc.a(lib_a-wsetup.o)
 .glue_7t       0x00012e70        0x0 /cygdrive/c/Users/Public/Desktop/CmpE146Package/GNUARM/bin/../lib/gcc/arm-elf/4.3.2/../../../../arm-elf/lib/libc.a(lib_a-wsetup.o)
 .text          0x00012e70        0x0 /cygdrive/c/Users/Public/Desktop/CmpE146Package/GNUARM/bin/../lib/gcc/arm-elf/4.3.2/../../../../arm-elf/lib/libc.a(lib_a-ctype_.o)
 .glue_7        0x00012e70        0x0 /cygdrive/c/Users/Public/Desktop/CmpE146Package/GNUARM/bin/../lib/gcc/arm-elf/4.3.2/../../../../arm-elf/lib/libc.a(lib_a-ctype_.o)
 .glue_7t       0x00012e70        0x0 /cygdrive/c/Users/Public/Desktop/CmpE146Package/GNUARM/bin/../lib/gcc/arm-elf/4.3.2/../../../../arm-elf/lib/libc.a(lib_a-ctype_.o)
 .text          0x00012e70     0x16e8 /cygdrive/c/Users/Public/Desktop/CmpE146Package/GNUARM/bin/../lib/gcc/arm-elf/4.3.2/../../../../arm-elf/lib/libc.a(lib_a-dtoa.o)
                0x00013060                _dtoa_r
 .glue_7        0x00014558        0x0 /cygdrive/c/Users/Public/Desktop/CmpE146Package/GNUARM/bin/../lib/gcc/arm-elf/4.3.2/../../../../arm-elf/lib/libc.a(lib_a-dtoa.o)
 .glue_7t       0x00014558        0x0 /cygdrive/c/Users/Public/Desktop/CmpE146Package/GNUARM/bin/../lib/gcc/arm-elf/4.3.2/../../../../arm-elf/lib/libc.a(lib_a-dtoa.o)
 .text          0x00014558      0x1dc /cygdrive/c/Users/Public/Desktop/CmpE146Package/GNUARM/bin/../lib/gcc/arm-elf/4.3.2/../../../../arm-elf/lib/libc.a(lib_a-fflush.o)
                0x00014700                fflush
                0x00014558                _fflush_r
 .glue_7        0x00014734        0x0 /cygdrive/c/Users/Public/Desktop/CmpE146Package/GNUARM/bin/../lib/gcc/arm-elf/4.3.2/../../../../arm-elf/lib/libc.a(lib_a-fflush.o)
 .glue_7t       0x00014734        0x0 /cygdrive/c/Users/Public/Desktop/CmpE146Package/GNUARM/bin/../lib/gcc/arm-elf/4.3.2/../../../../arm-elf/lib/libc.a(lib_a-fflush.o)
 .text          0x00014734      0x2ac /cygdrive/c/Users/Public/Desktop/CmpE146Package/GNUARM/bin/../lib/gcc/arm-elf/4.3.2/../../../../arm-elf/lib/libc.a(lib_a-findfp.o)
                0x00014734                __sinit
                0x000148c4                __sfmoreglue
                0x000148ac                _cleanup
                0x000148a0                _cleanup_r
                0x00014888                __fp_lock_all
                0x00014850                __sfp_lock_acquire
                0x0001490c                __sfp
                0x0001485c                __sinit_lock_release
                0x00014870                __fp_unlock_all
                0x00014854                __sfp_lock_release
                0x00014858                __sinit_lock_acquire
 .glue_7        0x000149e0        0x0 /cygdrive/c/Users/Public/Desktop/CmpE146Package/GNUARM/bin/../lib/gcc/arm-elf/4.3.2/../../../../arm-elf/lib/libc.a(lib_a-findfp.o)
 .glue_7t       0x000149e0        0x0 /cygdrive/c/Users/Public/Desktop/CmpE146Package/GNUARM/bin/../lib/gcc/arm-elf/4.3.2/../../../../arm-elf/lib/libc.a(lib_a-findfp.o)
 .text          0x000149e0      0x370 /cygdrive/c/Users/Public/Desktop/CmpE146Package/GNUARM/bin/../lib/gcc/arm-elf/4.3.2/../../../../arm-elf/lib/libc.a(lib_a-freer.o)
                0x00014ad8                _free_r
                0x000149e0                _malloc_trim_r
 .glue_7        0x00014d50        0x0 /cygdrive/c/Users/Public/Desktop/CmpE146Package/GNUARM/bin/../lib/gcc/arm-elf/4.3.2/../../../../arm-elf/lib/libc.a(lib_a-freer.o)
 .glue_7t       0x00014d50        0x0 /cygdrive/c/Users/Public/Desktop/CmpE146Package/GNUARM/bin/../lib/gcc/arm-elf/4.3.2/../../../../arm-elf/lib/libc.a(lib_a-freer.o)
 .text          0x00014d50      0x46c /cygdrive/c/Users/Public/Desktop/CmpE146Package/GNUARM/bin/../lib/gcc/arm-elf/4.3.2/../../../../arm-elf/lib/libc.a(lib_a-fvwrite.o)
                0x00014d50                __sfvwrite_r
 .glue_7        0x000151bc        0x0 /cygdrive/c/Users/Public/Desktop/CmpE146Package/GNUARM/bin/../lib/gcc/arm-elf/4.3.2/../../../../arm-elf/lib/libc.a(lib_a-fvwrite.o)
 .glue_7t       0x000151bc        0x0 /cygdrive/c/Users/Public/Desktop/CmpE146Package/GNUARM/bin/../lib/gcc/arm-elf/4.3.2/../../../../arm-elf/lib/libc.a(lib_a-fvwrite.o)
 .text          0x000151bc      0x10c /cygdrive/c/Users/Public/Desktop/CmpE146Package/GNUARM/bin/../lib/gcc/arm-elf/4.3.2/../../../../arm-elf/lib/libc.a(lib_a-fwalk.o)
                0x00015244                _fwalk
                0x000151bc                _fwalk_reent
 .glue_7        0x000152c8        0x0 /cygdrive/c/Users/Public/Desktop/CmpE146Package/GNUARM/bin/../lib/gcc/arm-elf/4.3.2/../../../../arm-elf/lib/libc.a(lib_a-fwalk.o)
 .glue_7t       0x000152c8        0x0 /cygdrive/c/Users/Public/Desktop/CmpE146Package/GNUARM/bin/../lib/gcc/arm-elf/4.3.2/../../../../arm-elf/lib/libc.a(lib_a-fwalk.o)
 .text          0x000152c8      0x8ac /cygdrive/c/Users/Public/Desktop/CmpE146Package/GNUARM/bin/../lib/gcc/arm-elf/4.3.2/../../../../arm-elf/lib/libc.a(lib_a-gdtoa-gethex.o)
                0x000152c8                __hexdig_init
                0x00015450                __gethex
 .glue_7        0x00015b74        0x0 /cygdrive/c/Users/Public/Desktop/CmpE146Package/GNUARM/bin/../lib/gcc/arm-elf/4.3.2/../../../../arm-elf/lib/libc.a(lib_a-gdtoa-gethex.o)
 .glue_7t       0x00015b74        0x0 /cygdrive/c/Users/Public/Desktop/CmpE146Package/GNUARM/bin/../lib/gcc/arm-elf/4.3.2/../../../../arm-elf/lib/libc.a(lib_a-gdtoa-gethex.o)
 .text          0x00015b74      0x274 /cygdrive/c/Users/Public/Desktop/CmpE146Package/GNUARM/bin/../lib/gcc/arm-elf/4.3.2/../../../../arm-elf/lib/libc.a(lib_a-gdtoa-hexnan.o)
                0x00015b74                __hexnan
 .glue_7        0x00015de8        0x0 /cygdrive/c/Users/Public/Desktop/CmpE146Package/GNUARM/bin/../lib/gcc/arm-elf/4.3.2/../../../../arm-elf/lib/libc.a(lib_a-gdtoa-hexnan.o)
 .glue_7t       0x00015de8        0x0 /cygdrive/c/Users/Public/Desktop/CmpE146Package/GNUARM/bin/../lib/gcc/arm-elf/4.3.2/../../../../arm-elf/lib/libc.a(lib_a-gdtoa-hexnan.o)
 .text          0x00015de8        0x0 /cygdrive/c/Users/Public/Desktop/CmpE146Package/GNUARM/bin/../lib/gcc/arm-elf/4.3.2/../../../../arm-elf/lib/libc.a(lib_a-impure.o)
 .glue_7        0x00015de8        0x0 /cygdrive/c/Users/Public/Desktop/CmpE146Package/GNUARM/bin/../lib/gcc/arm-elf/4.3.2/../../../../arm-elf/lib/libc.a(lib_a-impure.o)
 .glue_7t       0x00015de8        0x0 /cygdrive/c/Users/Public/Desktop/CmpE146Package/GNUARM/bin/../lib/gcc/arm-elf/4.3.2/../../../../arm-elf/lib/libc.a(lib_a-impure.o)
 .text          0x00015de8       0xa4 /cygdrive/c/Users/Public/Desktop/CmpE146Package/GNUARM/bin/../lib/gcc/arm-elf/4.3.2/../../../../arm-elf/lib/libc.a(lib_a-locale.o)
                0x00015e10                _setlocale_r
                0x00015de8                __locale_charset
                0x00015df8                _localeconv_r
                0x00015e70                setlocale
                0x00015e04                localeconv
 .glue_7        0x00015e8c        0x0 /cygdrive/c/Users/Public/Desktop/CmpE146Package/GNUARM/bin/../lib/gcc/arm-elf/4.3.2/../../../../arm-elf/lib/libc.a(lib_a-locale.o)
 .glue_7t       0x00015e8c        0x0 /cygdrive/c/Users/Public/Desktop/CmpE146Package/GNUARM/bin/../lib/gcc/arm-elf/4.3.2/../../../../arm-elf/lib/libc.a(lib_a-locale.o)
 .text          0x00015e8c      0x164 /cygdrive/c/Users/Public/Desktop/CmpE146Package/GNUARM/bin/../lib/gcc/arm-elf/4.3.2/../../../../arm-elf/lib/libc.a(lib_a-makebuf.o)
                0x00015e8c                __smakebuf_r
 .glue_7        0x00015ff0        0x0 /cygdrive/c/Users/Public/Desktop/CmpE146Package/GNUARM/bin/../lib/gcc/arm-elf/4.3.2/../../../../arm-elf/lib/libc.a(lib_a-makebuf.o)
 .glue_7t       0x00015ff0        0x0 /cygdrive/c/Users/Public/Desktop/CmpE146Package/GNUARM/bin/../lib/gcc/arm-elf/4.3.2/../../../../arm-elf/lib/libc.a(lib_a-makebuf.o)
 .text          0x00015ff0      0x118 /cygdrive/c/Users/Public/Desktop/CmpE146Package/GNUARM/bin/../lib/gcc/arm-elf/4.3.2/../../../../arm-elf/lib/libc.a(lib_a-memchr.o)
                0x00015ff0                memchr
 .glue_7        0x00016108        0x0 /cygdrive/c/Users/Public/Desktop/CmpE146Package/GNUARM/bin/../lib/gcc/arm-elf/4.3.2/../../../../arm-elf/lib/libc.a(lib_a-memchr.o)
 .glue_7t       0x00016108        0x0 /cygdrive/c/Users/Public/Desktop/CmpE146Package/GNUARM/bin/../lib/gcc/arm-elf/4.3.2/../../../../arm-elf/lib/libc.a(lib_a-memchr.o)
 .text          0x00016108      0xd88 /cygdrive/c/Users/Public/Desktop/CmpE146Package/GNUARM/bin/../lib/gcc/arm-elf/4.3.2/../../../../arm-elf/lib/libc.a(lib_a-mprec.o)
                0x0001640c                _mprec_log10
                0x000164e8                __any_on
                0x00016584                _Balloc
                0x00016390                __ratio
                0x00016bb8                __i2b
                0x000162d0                __b2d
                0x00016dac                __s2b
                0x00016210                __mcmp
                0x00016124                __hi0bits
                0x00016cb4                __pow5mult
                0x000168a8                __lshift
                0x000169cc                __multiply
                0x00016608                __d2b
                0x00016460                __copybits
                0x00016270                __ulp
                0x00016724                __mdiff
                0x0001617c                __lo0bits
                0x00016bd8                __multadd
                0x00016108                _Bfree
 .glue_7        0x00016e90        0x0 /cygdrive/c/Users/Public/Desktop/CmpE146Package/GNUARM/bin/../lib/gcc/arm-elf/4.3.2/../../../../arm-elf/lib/libc.a(lib_a-mprec.o)
 .glue_7t       0x00016e90        0x0 /cygdrive/c/Users/Public/Desktop/CmpE146Package/GNUARM/bin/../lib/gcc/arm-elf/4.3.2/../../../../arm-elf/lib/libc.a(lib_a-mprec.o)
 .text          0x00016e90       0x3c /cygdrive/c/Users/Public/Desktop/CmpE146Package/GNUARM/bin/../lib/gcc/arm-elf/4.3.2/../../../../arm-elf/lib/libc.a(lib_a-s_isinfd.o)
                0x00016e90                __isinfd
 .glue_7        0x00016ecc        0x0 /cygdrive/c/Users/Public/Desktop/CmpE146Package/GNUARM/bin/../lib/gcc/arm-elf/4.3.2/../../../../arm-elf/lib/libc.a(lib_a-s_isinfd.o)
 .glue_7t       0x00016ecc        0x0 /cygdrive/c/Users/Public/Desktop/CmpE146Package/GNUARM/bin/../lib/gcc/arm-elf/4.3.2/../../../../arm-elf/lib/libc.a(lib_a-s_isinfd.o)
 .text          0x00016ecc       0x30 /cygdrive/c/Users/Public/Desktop/CmpE146Package/GNUARM/bin/../lib/gcc/arm-elf/4.3.2/../../../../arm-elf/lib/libc.a(lib_a-s_isnand.o)
                0x00016ecc                __isnand
 .glue_7        0x00016efc        0x0 /cygdrive/c/Users/Public/Desktop/CmpE146Package/GNUARM/bin/../lib/gcc/arm-elf/4.3.2/../../../../arm-elf/lib/libc.a(lib_a-s_isnand.o)
 .glue_7t       0x00016efc        0x0 /cygdrive/c/Users/Public/Desktop/CmpE146Package/GNUARM/bin/../lib/gcc/arm-elf/4.3.2/../../../../arm-elf/lib/libc.a(lib_a-s_isnand.o)
 .text          0x00016efc        0xc /cygdrive/c/Users/Public/Desktop/CmpE146Package/GNUARM/bin/../lib/gcc/arm-elf/4.3.2/../../../../arm-elf/lib/libc.a(lib_a-sf_nan.o)
                0x00016efc                nanf
 .glue_7        0x00016f08        0x0 /cygdrive/c/Users/Public/Desktop/CmpE146Package/GNUARM/bin/../lib/gcc/arm-elf/4.3.2/../../../../arm-elf/lib/libc.a(lib_a-sf_nan.o)
 .glue_7t       0x00016f08        0x0 /cygdrive/c/Users/Public/Desktop/CmpE146Package/GNUARM/bin/../lib/gcc/arm-elf/4.3.2/../../../../arm-elf/lib/libc.a(lib_a-sf_nan.o)
 .text          0x00016f08       0xc0 /cygdrive/c/Users/Public/Desktop/CmpE146Package/GNUARM/bin/../lib/gcc/arm-elf/4.3.2/../../../../arm-elf/lib/libc.a(lib_a-stdio.o)
                0x00016f10                __sseek
                0x00016f98                __sread
                0x00016f08                __sclose
                0x00016f44                __swrite
 .glue_7        0x00016fc8        0x0 /cygdrive/c/Users/Public/Desktop/CmpE146Package/GNUARM/bin/../lib/gcc/arm-elf/4.3.2/../../../../arm-elf/lib/libc.a(lib_a-stdio.o)
 .glue_7t       0x00016fc8        0x0 /cygdrive/c/Users/Public/Desktop/CmpE146Package/GNUARM/bin/../lib/gcc/arm-elf/4.3.2/../../../../arm-elf/lib/libc.a(lib_a-stdio.o)
 .text          0x00016fc8      0x8ec /cygdrive/c/Users/Public/Desktop/CmpE146Package/GNUARM/bin/../lib/gcc/arm-elf/4.3.2/../../../../arm-elf/lib/libc.a(lib_a-syscalls.o)
                0x000170f0                _getpid
                0x00016fc8                initialise_monitor_handles
                0x000174c0                isatty
                0x00017884                _fstat
                0x000173d0                _open
                0x000173f0                _sbrk
                0x00017100                _raise
                0x00017148                _times
                0x00017838                _stat
                0x00017748                _lseek
                0x000170f8                _link
                0x00017570                _swiwrite
                0x000171c4                _rename
                0x00017654                _swilseek
                0x000174f8                _swiclose
                0x000172f0                _swiopen
                0x000172ac                _unlink
                0x000175ac                _write
                0x0001707c                _kill
                0x00017104                _gettimeofday
                0x00017794                _read
                0x000170d0                _exit
                0x0001721c                _system
                0x00017758                _swiread
                0x00017560                _close
 .glue_7        0x000178b4        0x0 /cygdrive/c/Users/Public/Desktop/CmpE146Package/GNUARM/bin/../lib/gcc/arm-elf/4.3.2/../../../../arm-elf/lib/libc.a(lib_a-syscalls.o)
 .glue_7t       0x000178b4        0x0 /cygdrive/c/Users/Public/Desktop/CmpE146Package/GNUARM/bin/../lib/gcc/arm-elf/4.3.2/../../../../arm-elf/lib/libc.a(lib_a-syscalls.o)
 .text          0x000178b4       0x9c /cygdrive/c/Users/Public/Desktop/CmpE146Package/GNUARM/bin/../lib/gcc/arm-elf/4.3.2/../../../../arm-elf/lib/libc.a(lib_a-callocr.o)
                0x000178b4                _calloc_r
 .glue_7        0x00017950        0x0 /cygdrive/c/Users/Public/Desktop/CmpE146Package/GNUARM/bin/../lib/gcc/arm-elf/4.3.2/../../../../arm-elf/lib/libc.a(lib_a-callocr.o)
 .glue_7t       0x00017950        0x0 /cygdrive/c/Users/Public/Desktop/CmpE146Package/GNUARM/bin/../lib/gcc/arm-elf/4.3.2/../../../../arm-elf/lib/libc.a(lib_a-callocr.o)
 .text          0x00017950       0x10 /cygdrive/c/Users/Public/Desktop/CmpE146Package/GNUARM/bin/../lib/gcc/arm-elf/4.3.2/../../../../arm-elf/lib/libc.a(lib_a-errno.o)
                0x00017950                __errno
 .glue_7        0x00017960        0x0 /cygdrive/c/Users/Public/Desktop/CmpE146Package/GNUARM/bin/../lib/gcc/arm-elf/4.3.2/../../../../arm-elf/lib/libc.a(lib_a-errno.o)
 .glue_7t       0x00017960        0x0 /cygdrive/c/Users/Public/Desktop/CmpE146Package/GNUARM/bin/../lib/gcc/arm-elf/4.3.2/../../../../arm-elf/lib/libc.a(lib_a-errno.o)
 .text          0x00017960      0x118 /cygdrive/c/Users/Public/Desktop/CmpE146Package/GNUARM/bin/../lib/gcc/arm-elf/4.3.2/../../../../arm-elf/lib/libc.a(lib_a-fclose.o)
                0x00017960                _fclose_r
                0x00017a64                fclose
 .glue_7        0x00017a78        0x0 /cygdrive/c/Users/Public/Desktop/CmpE146Package/GNUARM/bin/../lib/gcc/arm-elf/4.3.2/../../../../arm-elf/lib/libc.a(lib_a-fclose.o)
 .glue_7t       0x00017a78        0x0 /cygdrive/c/Users/Public/Desktop/CmpE146Package/GNUARM/bin/../lib/gcc/arm-elf/4.3.2/../../../../arm-elf/lib/libc.a(lib_a-fclose.o)
 .text          0x00017a78      0x470 /cygdrive/c/Users/Public/Desktop/CmpE146Package/GNUARM/bin/../lib/gcc/arm-elf/4.3.2/libgcc.a(_muldivdf3.o)
                0x00017ce4                __aeabi_ddiv
                0x00017a78                __aeabi_dmul
                0x00017ce4                __divdf3
                0x00017a78                __muldf3
 .glue_7        0x00017ee8        0x0 /cygdrive/c/Users/Public/Desktop/CmpE146Package/GNUARM/bin/../lib/gcc/arm-elf/4.3.2/libgcc.a(_muldivdf3.o)
 .glue_7t       0x00017ee8        0x0 /cygdrive/c/Users/Public/Desktop/CmpE146Package/GNUARM/bin/../lib/gcc/arm-elf/4.3.2/libgcc.a(_muldivdf3.o)
 .text          0x00017ee8      0x128 /cygdrive/c/Users/Public/Desktop/CmpE146Package/GNUARM/bin/../lib/gcc/arm-elf/4.3.2/libgcc.a(_cmpdf2.o)
                0x00017fd4                __aeabi_dcmple
                0x00017ef8                __cmpdf2
                0x00017ef8                __eqdf2
                0x00017ee8                __gtdf2
                0x00017f98                __aeabi_cdcmple
                0x00017f7c                __aeabi_cdrcmple
                0x00017ef0                __ltdf2
                0x00017fc0                __aeabi_dcmplt
                0x00017ef0                __ledf2
                0x00017ffc                __aeabi_dcmpgt
                0x00017fe8                __aeabi_dcmpge
                0x00017ef8                __nedf2
                0x00017fac                __aeabi_dcmpeq
                0x00017f98                __aeabi_cdcmpeq
                0x00017ee8                __gedf2
 .glue_7        0x00018010        0x0 /cygdrive/c/Users/Public/Desktop/CmpE146Package/GNUARM/bin/../lib/gcc/arm-elf/4.3.2/libgcc.a(_cmpdf2.o)
 .glue_7t       0x00018010        0x0 /cygdrive/c/Users/Public/Desktop/CmpE146Package/GNUARM/bin/../lib/gcc/arm-elf/4.3.2/libgcc.a(_cmpdf2.o)
 .text          0x00018010       0x5c /cygdrive/c/Users/Public/Desktop/CmpE146Package/GNUARM/bin/../lib/gcc/arm-elf/4.3.2/libgcc.a(_fixdfsi.o)
                0x00018010                __fixdfsi
                0x00018010                __aeabi_d2iz
 .glue_7        0x0001806c        0x0 /cygdrive/c/Users/Public/Desktop/CmpE146Package/GNUARM/bin/../lib/gcc/arm-elf/4.3.2/libgcc.a(_fixdfsi.o)
 .glue_7t       0x0001806c        0x0 /cygdrive/c/Users/Public/Desktop/CmpE146Package/GNUARM/bin/../lib/gcc/arm-elf/4.3.2/libgcc.a(_fixdfsi.o)
 .text          0x0001806c       0x54 /cygdrive/c/Users/Public/Desktop/CmpE146Package/GNUARM/bin/../lib/gcc/arm-elf/4.3.2/libgcc.a(_fixunsdfsi.o)
                0x0001806c                __fixunsdfsi
                0x0001806c                __aeabi_d2uiz
 .glue_7        0x000180c0        0x0 /cygdrive/c/Users/Public/Desktop/CmpE146Package/GNUARM/bin/../lib/gcc/arm-elf/4.3.2/libgcc.a(_fixunsdfsi.o)
 .glue_7t       0x000180c0        0x0 /cygdrive/c/Users/Public/Desktop/CmpE146Package/GNUARM/bin/../lib/gcc/arm-elf/4.3.2/libgcc.a(_fixunsdfsi.o)
                0x000180c0                __text_end__ = (__text_start__ + SIZEOF (.text))
                0x000180c0                __dtors_load_start__ = (__text_end__ ALIGN 0x4)

.vfp11_veneer   0x00000000        0x0
 .vfp11_veneer  0x00000000        0x0 ./main.o
 .vfp11_veneer  0x00000000        0x0 ./utils/src/rprintf.o
 .vfp11_veneer  0x00000000        0x0 ./utils/src/timer.o
 .vfp11_veneer  0x00000000        0x0 ./utils/cString.o
 .vfp11_veneer  0x00000000        0x0 ./fat/diskio.o
 .vfp11_veneer  0x00000000        0x0 ./fat/ff.o
 .vfp11_veneer  0x00000000        0x0 ./fat/rtc.o
 .vfp11_veneer  0x00000000        0x0 ./fat/option/ccsbcs.o
 .vfp11_veneer  0x00000000        0x0 ./fat/option/reentrant.o
 .vfp11_veneer  0x00000000        0x0 ./drivers/i2c.o
 .vfp11_veneer  0x00000000        0x0 ./drivers/pcm1774.o
 .vfp11_veneer  0x00000000        0x0 ./drivers/ssp_spi.o
 .vfp11_veneer  0x00000000        0x0 ./drivers/sta013.o
 .vfp11_veneer  0x00000000        0x0 ./drivers/uart0.o
 .vfp11_veneer  0x00000000        0x0 ./drivers/watchdog.o
 .vfp11_veneer  0x00000000        0x0 ./System/cppmem.o
 .vfp11_veneer  0x00000000        0x0 ./System/cpu.o
 .vfp11_veneer  0x00000000        0x0 ./System/syscalls.o
 .vfp11_veneer  0x00000000        0x0 ./System/startup/Arm7CStartup.o
 .vfp11_veneer  0x00000000        0x0 ./System/startup/Lpc2000ExceptionVectors.o
 .vfp11_veneer  0x00000000        0x0 ./System/startup/exceptionHandlers.o
 .vfp11_veneer  0x00000000        0x0 ./MP3/button.o
 .vfp11_veneer  0x00000000        0x0 ./MP3/control.o
 .vfp11_veneer  0x00000000        0x0 ./MP3/mp3.o
 .vfp11_veneer  0x00000000        0x0 ./General/userInterface.o
 .vfp11_veneer  0x00000000        0x0 ./FreeRTOS/src/croutine.o
 .vfp11_veneer  0x00000000        0x0 ./FreeRTOS/src/list.o
 .vfp11_veneer  0x00000000        0x0 ./FreeRTOS/src/port.o
 .vfp11_veneer  0x00000000        0x0 ./FreeRTOS/src/portISR.o
 .vfp11_veneer  0x00000000        0x0 ./FreeRTOS/src/queue.o
 .vfp11_veneer  0x00000000        0x0 ./FreeRTOS/src/tasks.o
 .vfp11_veneer  0x00000000        0x0 ./FreeRTOS/src/timers.o
 .vfp11_veneer  0x00000000        0x0 ./FreeRTOS/mem/heap_3.o
 .vfp11_veneer  0x00000000        0x0 ./FreeRTOS/hooks/hooks.o
 .vfp11_veneer  0x00000000        0x0 /cygdrive/c/Users/Public/Desktop/CmpE146Package/GNUARM/bin/../lib/gcc/arm-elf/4.3.2/libgcc.a(_udivsi3.o)
 .vfp11_veneer  0x00000000        0x0 /cygdrive/c/Users/Public/Desktop/CmpE146Package/GNUARM/bin/../lib/gcc/arm-elf/4.3.2/libgcc.a(_divsi3.o)
 .vfp11_veneer  0x00000000        0x0 /cygdrive/c/Users/Public/Desktop/CmpE146Package/GNUARM/bin/../lib/gcc/arm-elf/4.3.2/libgcc.a(_umodsi3.o)
 .vfp11_veneer  0x00000000        0x0 /cygdrive/c/Users/Public/Desktop/CmpE146Package/GNUARM/bin/../lib/gcc/arm-elf/4.3.2/libgcc.a(_dvmd_tls.o)
 .vfp11_veneer  0x00000000        0x0 /cygdrive/c/Users/Public/Desktop/CmpE146Package/GNUARM/bin/../lib/gcc/arm-elf/4.3.2/libgcc.a(_addsubdf3.o)
 .vfp11_veneer  0x00000000        0x0 /cygdrive/c/Users/Public/Desktop/CmpE146Package/GNUARM/bin/../lib/gcc/arm-elf/4.3.2/libgcc.a(_truncdfsf2.o)
 .vfp11_veneer  0x00000000        0x0 /cygdrive/c/Users/Public/Desktop/CmpE146Package/GNUARM/bin/../lib/gcc/arm-elf/4.3.2/libgcc.a(_addsubsf3.o)
 .vfp11_veneer  0x00000000        0x0 /cygdrive/c/Users/Public/Desktop/CmpE146Package/GNUARM/bin/../lib/gcc/arm-elf/4.3.2/../../../../arm-elf/lib/libc.a(lib_a-atof.o)
 .vfp11_veneer  0x00000000        0x0 /cygdrive/c/Users/Public/Desktop/CmpE146Package/GNUARM/bin/../lib/gcc/arm-elf/4.3.2/../../../../arm-elf/lib/libc.a(lib_a-atoi.o)
 .vfp11_veneer  0x00000000        0x0 /cygdrive/c/Users/Public/Desktop/CmpE146Package/GNUARM/bin/../lib/gcc/arm-elf/4.3.2/../../../../arm-elf/lib/libc.a(lib_a-iprintf.o)
 .vfp11_veneer  0x00000000        0x0 /cygdrive/c/Users/Public/Desktop/CmpE146Package/GNUARM/bin/../lib/gcc/arm-elf/4.3.2/../../../../arm-elf/lib/libc.a(lib_a-malloc.o)
 .vfp11_veneer  0x00000000        0x0 /cygdrive/c/Users/Public/Desktop/CmpE146Package/GNUARM/bin/../lib/gcc/arm-elf/4.3.2/../../../../arm-elf/lib/libc.a(lib_a-mallocr.o)
 .vfp11_veneer  0x00000000        0x0 /cygdrive/c/Users/Public/Desktop/CmpE146Package/GNUARM/bin/../lib/gcc/arm-elf/4.3.2/../../../../arm-elf/lib/libc.a(lib_a-memcmp.o)
 .vfp11_veneer  0x00000000        0x0 /cygdrive/c/Users/Public/Desktop/CmpE146Package/GNUARM/bin/../lib/gcc/arm-elf/4.3.2/../../../../arm-elf/lib/libc.a(lib_a-memcpy.o)
 .vfp11_veneer  0x00000000        0x0 /cygdrive/c/Users/Public/Desktop/CmpE146Package/GNUARM/bin/../lib/gcc/arm-elf/4.3.2/../../../../arm-elf/lib/libc.a(lib_a-memmove.o)
 .vfp11_veneer  0x00000000        0x0 /cygdrive/c/Users/Public/Desktop/CmpE146Package/GNUARM/bin/../lib/gcc/arm-elf/4.3.2/../../../../arm-elf/lib/libc.a(lib_a-memset.o)
 .vfp11_veneer  0x00000000        0x0 /cygdrive/c/Users/Public/Desktop/CmpE146Package/GNUARM/bin/../lib/gcc/arm-elf/4.3.2/../../../../arm-elf/lib/libc.a(lib_a-mlock.o)
 .vfp11_veneer  0x00000000        0x0 /cygdrive/c/Users/Public/Desktop/CmpE146Package/GNUARM/bin/../lib/gcc/arm-elf/4.3.2/../../../../arm-elf/lib/libc.a(lib_a-realloc.o)
 .vfp11_veneer  0x00000000        0x0 /cygdrive/c/Users/Public/Desktop/CmpE146Package/GNUARM/bin/../lib/gcc/arm-elf/4.3.2/../../../../arm-elf/lib/libc.a(lib_a-reallocr.o)
 .vfp11_veneer  0x00000000        0x0 /cygdrive/c/Users/Public/Desktop/CmpE146Package/GNUARM/bin/../lib/gcc/arm-elf/4.3.2/../../../../arm-elf/lib/libc.a(lib_a-siprintf.o)
 .vfp11_veneer  0x00000000        0x0 /cygdrive/c/Users/Public/Desktop/CmpE146Package/GNUARM/bin/../lib/gcc/arm-elf/4.3.2/../../../../arm-elf/lib/libc.a(lib_a-sprintf.o)
 .vfp11_veneer  0x00000000        0x0 /cygdrive/c/Users/Public/Desktop/CmpE146Package/GNUARM/bin/../lib/gcc/arm-elf/4.3.2/../../../../arm-elf/lib/libc.a(lib_a-strcat.o)
 .vfp11_veneer  0x00000000        0x0 /cygdrive/c/Users/Public/Desktop/CmpE146Package/GNUARM/bin/../lib/gcc/arm-elf/4.3.2/../../../../arm-elf/lib/libc.a(lib_a-strchr.o)
 .vfp11_veneer  0x00000000        0x0 /cygdrive/c/Users/Public/Desktop/CmpE146Package/GNUARM/bin/../lib/gcc/arm-elf/4.3.2/../../../../arm-elf/lib/libc.a(lib_a-strcmp.o)
 .vfp11_veneer  0x00000000        0x0 /cygdrive/c/Users/Public/Desktop/CmpE146Package/GNUARM/bin/../lib/gcc/arm-elf/4.3.2/../../../../arm-elf/lib/libc.a(lib_a-strcpy.o)
 .vfp11_veneer  0x00000000        0x0 /cygdrive/c/Users/Public/Desktop/CmpE146Package/GNUARM/bin/../lib/gcc/arm-elf/4.3.2/../../../../arm-elf/lib/libc.a(lib_a-strlen.o)
 .vfp11_veneer  0x00000000        0x0 /cygdrive/c/Users/Public/Desktop/CmpE146Package/GNUARM/bin/../lib/gcc/arm-elf/4.3.2/../../../../arm-elf/lib/libc.a(lib_a-strncpy.o)
 .vfp11_veneer  0x00000000        0x0 /cygdrive/c/Users/Public/Desktop/CmpE146Package/GNUARM/bin/../lib/gcc/arm-elf/4.3.2/../../../../arm-elf/lib/libc.a(lib_a-strstr.o)
 .vfp11_veneer  0x00000000        0x0 /cygdrive/c/Users/Public/Desktop/CmpE146Package/GNUARM/bin/../lib/gcc/arm-elf/4.3.2/../../../../arm-elf/lib/libc.a(lib_a-strtod.o)
 .vfp11_veneer  0x00000000        0x0 /cygdrive/c/Users/Public/Desktop/CmpE146Package/GNUARM/bin/../lib/gcc/arm-elf/4.3.2/../../../../arm-elf/lib/libc.a(lib_a-strtok.o)
 .vfp11_veneer  0x00000000        0x0 /cygdrive/c/Users/Public/Desktop/CmpE146Package/GNUARM/bin/../lib/gcc/arm-elf/4.3.2/../../../../arm-elf/lib/libc.a(lib_a-strtok_r.o)
 .vfp11_veneer  0x00000000        0x0 /cygdrive/c/Users/Public/Desktop/CmpE146Package/GNUARM/bin/../lib/gcc/arm-elf/4.3.2/../../../../arm-elf/lib/libc.a(lib_a-strtol.o)
 .vfp11_veneer  0x00000000        0x0 /cygdrive/c/Users/Public/Desktop/CmpE146Package/GNUARM/bin/../lib/gcc/arm-elf/4.3.2/../../../../arm-elf/lib/libc.a(lib_a-tolower.o)
 .vfp11_veneer  0x00000000        0x0 /cygdrive/c/Users/Public/Desktop/CmpE146Package/GNUARM/bin/../lib/gcc/arm-elf/4.3.2/../../../../arm-elf/lib/libc.a(lib_a-toupper.o)
 .vfp11_veneer  0x00000000        0x0 /cygdrive/c/Users/Public/Desktop/CmpE146Package/GNUARM/bin/../lib/gcc/arm-elf/4.3.2/../../../../arm-elf/lib/libc.a(lib_a-vfiprintf.o)
 .vfp11_veneer  0x00000000        0x0 /cygdrive/c/Users/Public/Desktop/CmpE146Package/GNUARM/bin/../lib/gcc/arm-elf/4.3.2/../../../../arm-elf/lib/libc.a(lib_a-vfprintf.o)
 .vfp11_veneer  0x00000000        0x0 /cygdrive/c/Users/Public/Desktop/CmpE146Package/GNUARM/bin/../lib/gcc/arm-elf/4.3.2/../../../../arm-elf/lib/libc.a(lib_a-wsetup.o)
 .vfp11_veneer  0x00000000        0x0 /cygdrive/c/Users/Public/Desktop/CmpE146Package/GNUARM/bin/../lib/gcc/arm-elf/4.3.2/../../../../arm-elf/lib/libc.a(lib_a-ctype_.o)
 .vfp11_veneer  0x00000000        0x0 /cygdrive/c/Users/Public/Desktop/CmpE146Package/GNUARM/bin/../lib/gcc/arm-elf/4.3.2/../../../../arm-elf/lib/libc.a(lib_a-dtoa.o)
 .vfp11_veneer  0x00000000        0x0 /cygdrive/c/Users/Public/Desktop/CmpE146Package/GNUARM/bin/../lib/gcc/arm-elf/4.3.2/../../../../arm-elf/lib/libc.a(lib_a-fflush.o)
 .vfp11_veneer  0x00000000        0x0 /cygdrive/c/Users/Public/Desktop/CmpE146Package/GNUARM/bin/../lib/gcc/arm-elf/4.3.2/../../../../arm-elf/lib/libc.a(lib_a-findfp.o)
 .vfp11_veneer  0x00000000        0x0 /cygdrive/c/Users/Public/Desktop/CmpE146Package/GNUARM/bin/../lib/gcc/arm-elf/4.3.2/../../../../arm-elf/lib/libc.a(lib_a-freer.o)
 .vfp11_veneer  0x00000000        0x0 /cygdrive/c/Users/Public/Desktop/CmpE146Package/GNUARM/bin/../lib/gcc/arm-elf/4.3.2/../../../../arm-elf/lib/libc.a(lib_a-fvwrite.o)
 .vfp11_veneer  0x00000000        0x0 /cygdrive/c/Users/Public/Desktop/CmpE146Package/GNUARM/bin/../lib/gcc/arm-elf/4.3.2/../../../../arm-elf/lib/libc.a(lib_a-fwalk.o)
 .vfp11_veneer  0x00000000        0x0 /cygdrive/c/Users/Public/Desktop/CmpE146Package/GNUARM/bin/../lib/gcc/arm-elf/4.3.2/../../../../arm-elf/lib/libc.a(lib_a-gdtoa-gethex.o)
 .vfp11_veneer  0x00000000        0x0 /cygdrive/c/Users/Public/Desktop/CmpE146Package/GNUARM/bin/../lib/gcc/arm-elf/4.3.2/../../../../arm-elf/lib/libc.a(lib_a-gdtoa-hexnan.o)
 .vfp11_veneer  0x00000000        0x0 /cygdrive/c/Users/Public/Desktop/CmpE146Package/GNUARM/bin/../lib/gcc/arm-elf/4.3.2/../../../../arm-elf/lib/libc.a(lib_a-impure.o)
 .vfp11_veneer  0x00000000        0x0 /cygdrive/c/Users/Public/Desktop/CmpE146Package/GNUARM/bin/../lib/gcc/arm-elf/4.3.2/../../../../arm-elf/lib/libc.a(lib_a-locale.o)
 .vfp11_veneer  0x00000000        0x0 /cygdrive/c/Users/Public/Desktop/CmpE146Package/GNUARM/bin/../lib/gcc/arm-elf/4.3.2/../../../../arm-elf/lib/libc.a(lib_a-makebuf.o)
 .vfp11_veneer  0x00000000        0x0 /cygdrive/c/Users/Public/Desktop/CmpE146Package/GNUARM/bin/../lib/gcc/arm-elf/4.3.2/../../../../arm-elf/lib/libc.a(lib_a-memchr.o)
 .vfp11_veneer  0x00000000        0x0 /cygdrive/c/Users/Public/Desktop/CmpE146Package/GNUARM/bin/../lib/gcc/arm-elf/4.3.2/../../../../arm-elf/lib/libc.a(lib_a-mprec.o)
 .vfp11_veneer  0x00000000        0x0 /cygdrive/c/Users/Public/Desktop/CmpE146Package/GNUARM/bin/../lib/gcc/arm-elf/4.3.2/../../../../arm-elf/lib/libc.a(lib_a-s_isinfd.o)
 .vfp11_veneer  0x00000000        0x0 /cygdrive/c/Users/Public/Desktop/CmpE146Package/GNUARM/bin/../lib/gcc/arm-elf/4.3.2/../../../../arm-elf/lib/libc.a(lib_a-s_isnand.o)
 .vfp11_veneer  0x00000000        0x0 /cygdrive/c/Users/Public/Desktop/CmpE146Package/GNUARM/bin/../lib/gcc/arm-elf/4.3.2/../../../../arm-elf/lib/libc.a(lib_a-sf_nan.o)
 .vfp11_veneer  0x00000000        0x0 /cygdrive/c/Users/Public/Desktop/CmpE146Package/GNUARM/bin/../lib/gcc/arm-elf/4.3.2/../../../../arm-elf/lib/libc.a(lib_a-stdio.o)
 .vfp11_veneer  0x00000000        0x0 /cygdrive/c/Users/Public/Desktop/CmpE146Package/GNUARM/bin/../lib/gcc/arm-elf/4.3.2/../../../../arm-elf/lib/libc.a(lib_a-syscalls.o)
 .vfp11_veneer  0x00000000        0x0 /cygdrive/c/Users/Public/Desktop/CmpE146Package/GNUARM/bin/../lib/gcc/arm-elf/4.3.2/../../../../arm-elf/lib/libc.a(lib_a-callocr.o)
 .vfp11_veneer  0x00000000        0x0 /cygdrive/c/Users/Public/Desktop/CmpE146Package/GNUARM/bin/../lib/gcc/arm-elf/4.3.2/../../../../arm-elf/lib/libc.a(lib_a-errno.o)
 .vfp11_veneer  0x00000000        0x0 /cygdrive/c/Users/Public/Desktop/CmpE146Package/GNUARM/bin/../lib/gcc/arm-elf/4.3.2/../../../../arm-elf/lib/libc.a(lib_a-fclose.o)
 .vfp11_veneer  0x00000000        0x0 /cygdrive/c/Users/Public/Desktop/CmpE146Package/GNUARM/bin/../lib/gcc/arm-elf/4.3.2/libgcc.a(_muldivdf3.o)
 .vfp11_veneer  0x00000000        0x0 /cygdrive/c/Users/Public/Desktop/CmpE146Package/GNUARM/bin/../lib/gcc/arm-elf/4.3.2/libgcc.a(_cmpdf2.o)
 .vfp11_veneer  0x00000000        0x0 /cygdrive/c/Users/Public/Desktop/CmpE146Package/GNUARM/bin/../lib/gcc/arm-elf/4.3.2/libgcc.a(_fixdfsi.o)
 .vfp11_veneer  0x00000000        0x0 /cygdrive/c/Users/Public/Desktop/CmpE146Package/GNUARM/bin/../lib/gcc/arm-elf/4.3.2/libgcc.a(_fixunsdfsi.o)

.v4_bx          0x00000000        0x0
 .v4_bx         0x00000000        0x0 ./main.o
 .v4_bx         0x00000000        0x0 ./utils/src/rprintf.o
 .v4_bx         0x00000000        0x0 ./utils/src/timer.o
 .v4_bx         0x00000000        0x0 ./utils/cString.o
 .v4_bx         0x00000000        0x0 ./fat/diskio.o
 .v4_bx         0x00000000        0x0 ./fat/ff.o
 .v4_bx         0x00000000        0x0 ./fat/rtc.o
 .v4_bx         0x00000000        0x0 ./fat/option/ccsbcs.o
 .v4_bx         0x00000000        0x0 ./fat/option/reentrant.o
 .v4_bx         0x00000000        0x0 ./drivers/i2c.o
 .v4_bx         0x00000000        0x0 ./drivers/pcm1774.o
 .v4_bx         0x00000000        0x0 ./drivers/ssp_spi.o
 .v4_bx         0x00000000        0x0 ./drivers/sta013.o
 .v4_bx         0x00000000        0x0 ./drivers/uart0.o
 .v4_bx         0x00000000        0x0 ./drivers/watchdog.o
 .v4_bx         0x00000000        0x0 ./System/cppmem.o
 .v4_bx         0x00000000        0x0 ./System/cpu.o
 .v4_bx         0x00000000        0x0 ./System/syscalls.o
 .v4_bx         0x00000000        0x0 ./System/startup/Arm7CStartup.o
 .v4_bx         0x00000000        0x0 ./System/startup/Lpc2000ExceptionVectors.o
 .v4_bx         0x00000000        0x0 ./System/startup/exceptionHandlers.o
 .v4_bx         0x00000000        0x0 ./MP3/button.o
 .v4_bx         0x00000000        0x0 ./MP3/control.o
 .v4_bx         0x00000000        0x0 ./MP3/mp3.o
 .v4_bx         0x00000000        0x0 ./General/userInterface.o
 .v4_bx         0x00000000        0x0 ./FreeRTOS/src/croutine.o
 .v4_bx         0x00000000        0x0 ./FreeRTOS/src/list.o
 .v4_bx         0x00000000        0x0 ./FreeRTOS/src/port.o
 .v4_bx         0x00000000        0x0 ./FreeRTOS/src/portISR.o
 .v4_bx         0x00000000        0x0 ./FreeRTOS/src/queue.o
 .v4_bx         0x00000000        0x0 ./FreeRTOS/src/tasks.o
 .v4_bx         0x00000000        0x0 ./FreeRTOS/src/timers.o
 .v4_bx         0x00000000        0x0 ./FreeRTOS/mem/heap_3.o
 .v4_bx         0x00000000        0x0 ./FreeRTOS/hooks/hooks.o
 .v4_bx         0x00000000        0x0 /cygdrive/c/Users/Public/Desktop/CmpE146Package/GNUARM/bin/../lib/gcc/arm-elf/4.3.2/libgcc.a(_udivsi3.o)
 .v4_bx         0x00000000        0x0 /cygdrive/c/Users/Public/Desktop/CmpE146Package/GNUARM/bin/../lib/gcc/arm-elf/4.3.2/libgcc.a(_divsi3.o)
 .v4_bx         0x00000000        0x0 /cygdrive/c/Users/Public/Desktop/CmpE146Package/GNUARM/bin/../lib/gcc/arm-elf/4.3.2/libgcc.a(_umodsi3.o)
 .v4_bx         0x00000000        0x0 /cygdrive/c/Users/Public/Desktop/CmpE146Package/GNUARM/bin/../lib/gcc/arm-elf/4.3.2/libgcc.a(_dvmd_tls.o)
 .v4_bx         0x00000000        0x0 /cygdrive/c/Users/Public/Desktop/CmpE146Package/GNUARM/bin/../lib/gcc/arm-elf/4.3.2/libgcc.a(_addsubdf3.o)
 .v4_bx         0x00000000        0x0 /cygdrive/c/Users/Public/Desktop/CmpE146Package/GNUARM/bin/../lib/gcc/arm-elf/4.3.2/libgcc.a(_truncdfsf2.o)
 .v4_bx         0x00000000        0x0 /cygdrive/c/Users/Public/Desktop/CmpE146Package/GNUARM/bin/../lib/gcc/arm-elf/4.3.2/libgcc.a(_addsubsf3.o)
 .v4_bx         0x00000000        0x0 /cygdrive/c/Users/Public/Desktop/CmpE146Package/GNUARM/bin/../lib/gcc/arm-elf/4.3.2/../../../../arm-elf/lib/libc.a(lib_a-atof.o)
 .v4_bx         0x00000000        0x0 /cygdrive/c/Users/Public/Desktop/CmpE146Package/GNUARM/bin/../lib/gcc/arm-elf/4.3.2/../../../../arm-elf/lib/libc.a(lib_a-atoi.o)
 .v4_bx         0x00000000        0x0 /cygdrive/c/Users/Public/Desktop/CmpE146Package/GNUARM/bin/../lib/gcc/arm-elf/4.3.2/../../../../arm-elf/lib/libc.a(lib_a-iprintf.o)
 .v4_bx         0x00000000        0x0 /cygdrive/c/Users/Public/Desktop/CmpE146Package/GNUARM/bin/../lib/gcc/arm-elf/4.3.2/../../../../arm-elf/lib/libc.a(lib_a-malloc.o)
 .v4_bx         0x00000000        0x0 /cygdrive/c/Users/Public/Desktop/CmpE146Package/GNUARM/bin/../lib/gcc/arm-elf/4.3.2/../../../../arm-elf/lib/libc.a(lib_a-mallocr.o)
 .v4_bx         0x00000000        0x0 /cygdrive/c/Users/Public/Desktop/CmpE146Package/GNUARM/bin/../lib/gcc/arm-elf/4.3.2/../../../../arm-elf/lib/libc.a(lib_a-memcmp.o)
 .v4_bx         0x00000000        0x0 /cygdrive/c/Users/Public/Desktop/CmpE146Package/GNUARM/bin/../lib/gcc/arm-elf/4.3.2/../../../../arm-elf/lib/libc.a(lib_a-memcpy.o)
 .v4_bx         0x00000000        0x0 /cygdrive/c/Users/Public/Desktop/CmpE146Package/GNUARM/bin/../lib/gcc/arm-elf/4.3.2/../../../../arm-elf/lib/libc.a(lib_a-memmove.o)
 .v4_bx         0x00000000        0x0 /cygdrive/c/Users/Public/Desktop/CmpE146Package/GNUARM/bin/../lib/gcc/arm-elf/4.3.2/../../../../arm-elf/lib/libc.a(lib_a-memset.o)
 .v4_bx         0x00000000        0x0 /cygdrive/c/Users/Public/Desktop/CmpE146Package/GNUARM/bin/../lib/gcc/arm-elf/4.3.2/../../../../arm-elf/lib/libc.a(lib_a-mlock.o)
 .v4_bx         0x00000000        0x0 /cygdrive/c/Users/Public/Desktop/CmpE146Package/GNUARM/bin/../lib/gcc/arm-elf/4.3.2/../../../../arm-elf/lib/libc.a(lib_a-realloc.o)
 .v4_bx         0x00000000        0x0 /cygdrive/c/Users/Public/Desktop/CmpE146Package/GNUARM/bin/../lib/gcc/arm-elf/4.3.2/../../../../arm-elf/lib/libc.a(lib_a-reallocr.o)
 .v4_bx         0x00000000        0x0 /cygdrive/c/Users/Public/Desktop/CmpE146Package/GNUARM/bin/../lib/gcc/arm-elf/4.3.2/../../../../arm-elf/lib/libc.a(lib_a-siprintf.o)
 .v4_bx         0x00000000        0x0 /cygdrive/c/Users/Public/Desktop/CmpE146Package/GNUARM/bin/../lib/gcc/arm-elf/4.3.2/../../../../arm-elf/lib/libc.a(lib_a-sprintf.o)
 .v4_bx         0x00000000        0x0 /cygdrive/c/Users/Public/Desktop/CmpE146Package/GNUARM/bin/../lib/gcc/arm-elf/4.3.2/../../../../arm-elf/lib/libc.a(lib_a-strcat.o)
 .v4_bx         0x00000000        0x0 /cygdrive/c/Users/Public/Desktop/CmpE146Package/GNUARM/bin/../lib/gcc/arm-elf/4.3.2/../../../../arm-elf/lib/libc.a(lib_a-strchr.o)
 .v4_bx         0x00000000        0x0 /cygdrive/c/Users/Public/Desktop/CmpE146Package/GNUARM/bin/../lib/gcc/arm-elf/4.3.2/../../../../arm-elf/lib/libc.a(lib_a-strcmp.o)
 .v4_bx         0x00000000        0x0 /cygdrive/c/Users/Public/Desktop/CmpE146Package/GNUARM/bin/../lib/gcc/arm-elf/4.3.2/../../../../arm-elf/lib/libc.a(lib_a-strcpy.o)
 .v4_bx         0x00000000        0x0 /cygdrive/c/Users/Public/Desktop/CmpE146Package/GNUARM/bin/../lib/gcc/arm-elf/4.3.2/../../../../arm-elf/lib/libc.a(lib_a-strlen.o)
 .v4_bx         0x00000000        0x0 /cygdrive/c/Users/Public/Desktop/CmpE146Package/GNUARM/bin/../lib/gcc/arm-elf/4.3.2/../../../../arm-elf/lib/libc.a(lib_a-strncpy.o)
 .v4_bx         0x00000000        0x0 /cygdrive/c/Users/Public/Desktop/CmpE146Package/GNUARM/bin/../lib/gcc/arm-elf/4.3.2/../../../../arm-elf/lib/libc.a(lib_a-strstr.o)
 .v4_bx         0x00000000        0x0 /cygdrive/c/Users/Public/Desktop/CmpE146Package/GNUARM/bin/../lib/gcc/arm-elf/4.3.2/../../../../arm-elf/lib/libc.a(lib_a-strtod.o)
 .v4_bx         0x00000000        0x0 /cygdrive/c/Users/Public/Desktop/CmpE146Package/GNUARM/bin/../lib/gcc/arm-elf/4.3.2/../../../../arm-elf/lib/libc.a(lib_a-strtok.o)
 .v4_bx         0x00000000        0x0 /cygdrive/c/Users/Public/Desktop/CmpE146Package/GNUARM/bin/../lib/gcc/arm-elf/4.3.2/../../../../arm-elf/lib/libc.a(lib_a-strtok_r.o)
 .v4_bx         0x00000000        0x0 /cygdrive/c/Users/Public/Desktop/CmpE146Package/GNUARM/bin/../lib/gcc/arm-elf/4.3.2/../../../../arm-elf/lib/libc.a(lib_a-strtol.o)
 .v4_bx         0x00000000        0x0 /cygdrive/c/Users/Public/Desktop/CmpE146Package/GNUARM/bin/../lib/gcc/arm-elf/4.3.2/../../../../arm-elf/lib/libc.a(lib_a-tolower.o)
 .v4_bx         0x00000000        0x0 /cygdrive/c/Users/Public/Desktop/CmpE146Package/GNUARM/bin/../lib/gcc/arm-elf/4.3.2/../../../../arm-elf/lib/libc.a(lib_a-toupper.o)
 .v4_bx         0x00000000        0x0 /cygdrive/c/Users/Public/Desktop/CmpE146Package/GNUARM/bin/../lib/gcc/arm-elf/4.3.2/../../../../arm-elf/lib/libc.a(lib_a-vfiprintf.o)
 .v4_bx         0x00000000        0x0 /cygdrive/c/Users/Public/Desktop/CmpE146Package/GNUARM/bin/../lib/gcc/arm-elf/4.3.2/../../../../arm-elf/lib/libc.a(lib_a-vfprintf.o)
 .v4_bx         0x00000000        0x0 /cygdrive/c/Users/Public/Desktop/CmpE146Package/GNUARM/bin/../lib/gcc/arm-elf/4.3.2/../../../../arm-elf/lib/libc.a(lib_a-wsetup.o)
 .v4_bx         0x00000000        0x0 /cygdrive/c/Users/Public/Desktop/CmpE146Package/GNUARM/bin/../lib/gcc/arm-elf/4.3.2/../../../../arm-elf/lib/libc.a(lib_a-ctype_.o)
 .v4_bx         0x00000000        0x0 /cygdrive/c/Users/Public/Desktop/CmpE146Package/GNUARM/bin/../lib/gcc/arm-elf/4.3.2/../../../../arm-elf/lib/libc.a(lib_a-dtoa.o)
 .v4_bx         0x00000000        0x0 /cygdrive/c/Users/Public/Desktop/CmpE146Package/GNUARM/bin/../lib/gcc/arm-elf/4.3.2/../../../../arm-elf/lib/libc.a(lib_a-fflush.o)
 .v4_bx         0x00000000        0x0 /cygdrive/c/Users/Public/Desktop/CmpE146Package/GNUARM/bin/../lib/gcc/arm-elf/4.3.2/../../../../arm-elf/lib/libc.a(lib_a-findfp.o)
 .v4_bx         0x00000000        0x0 /cygdrive/c/Users/Public/Desktop/CmpE146Package/GNUARM/bin/../lib/gcc/arm-elf/4.3.2/../../../../arm-elf/lib/libc.a(lib_a-freer.o)
 .v4_bx         0x00000000        0x0 /cygdrive/c/Users/Public/Desktop/CmpE146Package/GNUARM/bin/../lib/gcc/arm-elf/4.3.2/../../../../arm-elf/lib/libc.a(lib_a-fvwrite.o)
 .v4_bx         0x00000000        0x0 /cygdrive/c/Users/Public/Desktop/CmpE146Package/GNUARM/bin/../lib/gcc/arm-elf/4.3.2/../../../../arm-elf/lib/libc.a(lib_a-fwalk.o)
 .v4_bx         0x00000000        0x0 /cygdrive/c/Users/Public/Desktop/CmpE146Package/GNUARM/bin/../lib/gcc/arm-elf/4.3.2/../../../../arm-elf/lib/libc.a(lib_a-gdtoa-gethex.o)
 .v4_bx         0x00000000        0x0 /cygdrive/c/Users/Public/Desktop/CmpE146Package/GNUARM/bin/../lib/gcc/arm-elf/4.3.2/../../../../arm-elf/lib/libc.a(lib_a-gdtoa-hexnan.o)
 .v4_bx         0x00000000        0x0 /cygdrive/c/Users/Public/Desktop/CmpE146Package/GNUARM/bin/../lib/gcc/arm-elf/4.3.2/../../../../arm-elf/lib/libc.a(lib_a-impure.o)
 .v4_bx         0x00000000        0x0 /cygdrive/c/Users/Public/Desktop/CmpE146Package/GNUARM/bin/../lib/gcc/arm-elf/4.3.2/../../../../arm-elf/lib/libc.a(lib_a-locale.o)
 .v4_bx         0x00000000        0x0 /cygdrive/c/Users/Public/Desktop/CmpE146Package/GNUARM/bin/../lib/gcc/arm-elf/4.3.2/../../../../arm-elf/lib/libc.a(lib_a-makebuf.o)
 .v4_bx         0x00000000        0x0 /cygdrive/c/Users/Public/Desktop/CmpE146Package/GNUARM/bin/../lib/gcc/arm-elf/4.3.2/../../../../arm-elf/lib/libc.a(lib_a-memchr.o)
 .v4_bx         0x00000000        0x0 /cygdrive/c/Users/Public/Desktop/CmpE146Package/GNUARM/bin/../lib/gcc/arm-elf/4.3.2/../../../../arm-elf/lib/libc.a(lib_a-mprec.o)
 .v4_bx         0x00000000        0x0 /cygdrive/c/Users/Public/Desktop/CmpE146Package/GNUARM/bin/../lib/gcc/arm-elf/4.3.2/../../../../arm-elf/lib/libc.a(lib_a-s_isinfd.o)
 .v4_bx         0x00000000        0x0 /cygdrive/c/Users/Public/Desktop/CmpE146Package/GNUARM/bin/../lib/gcc/arm-elf/4.3.2/../../../../arm-elf/lib/libc.a(lib_a-s_isnand.o)
 .v4_bx         0x00000000        0x0 /cygdrive/c/Users/Public/Desktop/CmpE146Package/GNUARM/bin/../lib/gcc/arm-elf/4.3.2/../../../../arm-elf/lib/libc.a(lib_a-sf_nan.o)
 .v4_bx         0x00000000        0x0 /cygdrive/c/Users/Public/Desktop/CmpE146Package/GNUARM/bin/../lib/gcc/arm-elf/4.3.2/../../../../arm-elf/lib/libc.a(lib_a-stdio.o)
 .v4_bx         0x00000000        0x0 /cygdrive/c/Users/Public/Desktop/CmpE146Package/GNUARM/bin/../lib/gcc/arm-elf/4.3.2/../../../../arm-elf/lib/libc.a(lib_a-syscalls.o)
 .v4_bx         0x00000000        0x0 /cygdrive/c/Users/Public/Desktop/CmpE146Package/GNUARM/bin/../lib/gcc/arm-elf/4.3.2/../../../../arm-elf/lib/libc.a(lib_a-callocr.o)
 .v4_bx         0x00000000        0x0 /cygdrive/c/Users/Public/Desktop/CmpE146Package/GNUARM/bin/../lib/gcc/arm-elf/4.3.2/../../../../arm-elf/lib/libc.a(lib_a-errno.o)
 .v4_bx         0x00000000        0x0 /cygdrive/c/Users/Public/Desktop/CmpE146Package/GNUARM/bin/../lib/gcc/arm-elf/4.3.2/../../../../arm-elf/lib/libc.a(lib_a-fclose.o)
 .v4_bx         0x00000000        0x0 /cygdrive/c/Users/Public/Desktop/CmpE146Package/GNUARM/bin/../lib/gcc/arm-elf/4.3.2/libgcc.a(_muldivdf3.o)
 .v4_bx         0x00000000        0x0 /cygdrive/c/Users/Public/Desktop/CmpE146Package/GNUARM/bin/../lib/gcc/arm-elf/4.3.2/libgcc.a(_cmpdf2.o)
 .v4_bx         0x00000000        0x0 /cygdrive/c/Users/Public/Desktop/CmpE146Package/GNUARM/bin/../lib/gcc/arm-elf/4.3.2/libgcc.a(_fixdfsi.o)
 .v4_bx         0x00000000        0x0 /cygdrive/c/Users/Public/Desktop/CmpE146Package/GNUARM/bin/../lib/gcc/arm-elf/4.3.2/libgcc.a(_fixunsdfsi.o)

.dtors          0x000180c0        0x0
                0x000180c0                __dtors_start__ = .
 *(SORT(.dtors.*))
 *(.dtors)
                0x000180c0                __dtors_end__ = (__dtors_start__ + SIZEOF (.dtors))
                0x000180c0                __ctors_load_start__ = (__dtors_end__ ALIGN 0x4)

.ctors          0x000180c0        0x0
                0x000180c0                __ctors_start__ = .
 *(SORT(.ctors.*))
 *(.ctors)
                0x000180c0                __ctors_end__ = (__ctors_start__ + SIZEOF (.ctors))
                0x000180c0                __rodata_load_start__ = (__ctors_end__ ALIGN 0x4)

.rodata         0x000180c0     0x22f8
                0x000180c0                __rodata_start__ = .
 *(.rodata .rodata.* .gnu.linkonce.r.*)
 .rodata.str1.1
                0x000180c0       0x99 ./main.o
 .rodata.str1.1
                0x00018159       0x53 ./utils/cString.o
                                 0x57 (size before relaxing)
 .rodata.str1.1
                0x000181ac       0x10 ./fat/ff.o
 .rodata        0x000181bc       0x8d ./fat/ff.o
 *fill*         0x00018249        0x1 00
 .rodata        0x0001824a      0x4c0 ./fat/option/ccsbcs.o
 .rodata        0x0001870a       0x19 ./drivers/pcm1774.o
 .rodata        0x00018723      0xfe0 ./drivers/sta013.o
                0x00018753                STA013_UpdateData
                0x00018723                MP3_Bitrates
                0x00018743                MP3_SamplingFrequencies
 .rodata.str1.1
                0x00019703       0x9d ./System/cpu.o
                                 0xc8 (size before relaxing)
 .rodata.str1.1
                0x000197a0       0x14 ./System/syscalls.o
 .rodata.str1.1
                0x000197b4       0xd6 ./System/startup/exceptionHandlers.o
 .rodata.str1.1
                0x0001988a       0x50 ./MP3/button.o
 .rodata.str1.1
                0x000198da       0xef ./MP3/control.o
 .rodata.str1.1
                0x000199c9       0xa3 ./MP3/mp3.o
                                 0xa8 (size before relaxing)
 .rodata.str1.1
                0x00019a6c      0x4a9 ./General/userInterface.o
                                0x4cd (size before relaxing)
 .rodata.str1.1
                0x00019f15       0x80 ./FreeRTOS/src/tasks.o
 .rodata        0x00019f95       0x14 ./FreeRTOS/src/tasks.o
 .rodata.str1.1
                0x00019fa9        0x8 ./FreeRTOS/src/timers.o
 .rodata.str1.1
                0x00019fb1       0x8d ./FreeRTOS/hooks/hooks.o
 *fill*         0x0001a03e        0x2 00
 .rodata.str1.4
                0x0001a040        0xf /cygdrive/c/Users/Public/Desktop/CmpE146Package/GNUARM/bin/../lib/gcc/arm-elf/4.3.2/../../../../arm-elf/lib/libc.a(lib_a-strtod.o)
                                 0x10 (size before relaxing)
 *fill*         0x0001a04f        0x1 00
 .rodata        0x0001a050       0x28 /cygdrive/c/Users/Public/Desktop/CmpE146Package/GNUARM/bin/../lib/gcc/arm-elf/4.3.2/../../../../arm-elf/lib/libc.a(lib_a-strtod.o)
 .rodata.str1.4
                0x0001a078       0x4a /cygdrive/c/Users/Public/Desktop/CmpE146Package/GNUARM/bin/../lib/gcc/arm-elf/4.3.2/../../../../arm-elf/lib/libc.a(lib_a-vfiprintf.o)
                                 0x4c (size before relaxing)
 .rodata        0x0001a0c2       0x20 /cygdrive/c/Users/Public/Desktop/CmpE146Package/GNUARM/bin/../lib/gcc/arm-elf/4.3.2/../../../../arm-elf/lib/libc.a(lib_a-vfiprintf.o)
 *fill*         0x0001a0e2        0x2 00
 .rodata.str1.4
                0x0001a0e4       0x12 /cygdrive/c/Users/Public/Desktop/CmpE146Package/GNUARM/bin/../lib/gcc/arm-elf/4.3.2/../../../../arm-elf/lib/libc.a(lib_a-vfprintf.o)
                                 0x60 (size before relaxing)
 .rodata        0x0001a0f6       0x20 /cygdrive/c/Users/Public/Desktop/CmpE146Package/GNUARM/bin/../lib/gcc/arm-elf/4.3.2/../../../../arm-elf/lib/libc.a(lib_a-vfprintf.o)
 .rodata        0x0001a116      0x101 /cygdrive/c/Users/Public/Desktop/CmpE146Package/GNUARM/bin/../lib/gcc/arm-elf/4.3.2/../../../../arm-elf/lib/libc.a(lib_a-ctype_.o)
                0x0001a116                _ctype_
 *fill*         0x0001a217        0x1 00
 .rodata.str1.4
                0x0001a218       0x10 /cygdrive/c/Users/Public/Desktop/CmpE146Package/GNUARM/bin/../lib/gcc/arm-elf/4.3.2/../../../../arm-elf/lib/libc.a(lib_a-dtoa.o)
                                 0x14 (size before relaxing)
 .rodata.str1.4
                0x0001a228       0x1b /cygdrive/c/Users/Public/Desktop/CmpE146Package/GNUARM/bin/../lib/gcc/arm-elf/4.3.2/../../../../arm-elf/lib/libc.a(lib_a-gdtoa-gethex.o)
                                 0x1c (size before relaxing)
 *fill*         0x0001a243        0x1 00
 .rodata        0x0001a244        0x4 /cygdrive/c/Users/Public/Desktop/CmpE146Package/GNUARM/bin/../lib/gcc/arm-elf/4.3.2/../../../../arm-elf/lib/libc.a(lib_a-impure.o)
                0x0001a244                _global_impure_ptr
 .rodata.str1.4
                0x0001a248        0x2 /cygdrive/c/Users/Public/Desktop/CmpE146Package/GNUARM/bin/../lib/gcc/arm-elf/4.3.2/../../../../arm-elf/lib/libc.a(lib_a-impure.o)
                                  0x4 (size before relaxing)
 *fill*         0x0001a24a        0x2 00
 .rodata.str1.4
                0x0001a24c        0xf /cygdrive/c/Users/Public/Desktop/CmpE146Package/GNUARM/bin/../lib/gcc/arm-elf/4.3.2/../../../../arm-elf/lib/libc.a(lib_a-locale.o)
                                 0x18 (size before relaxing)
 *fill*         0x0001a25b        0x1 00
 .rodata        0x0001a25c       0x34 /cygdrive/c/Users/Public/Desktop/CmpE146Package/GNUARM/bin/../lib/gcc/arm-elf/4.3.2/../../../../arm-elf/lib/libc.a(lib_a-locale.o)
 .rodata        0x0001a290      0x124 /cygdrive/c/Users/Public/Desktop/CmpE146Package/GNUARM/bin/../lib/gcc/arm-elf/4.3.2/../../../../arm-elf/lib/libc.a(lib_a-mprec.o)
                0x0001a380                __mprec_tinytens
                0x0001a290                __mprec_tens
                0x0001a358                __mprec_bigtens
 .rodata.str1.4
                0x0001a3b4        0x4 /cygdrive/c/Users/Public/Desktop/CmpE146Package/GNUARM/bin/../lib/gcc/arm-elf/4.3.2/../../../../arm-elf/lib/libc.a(lib_a-syscalls.o)
                0x0001a3b8                __rodata_end__ = (__rodata_start__ + SIZEOF (.rodata))
                0x0001a3b8                __symbol_table_start__ = (__rodata_end__ ALIGN 0x4)

.symbol_table   0x0001a3b8        0x0
                0x0001a3b8                __symbol_table_start__ = .
 *(.symbol_table)
                0x0001a3b8                __symbol_table_end__ = (__symbol_table_start__ + SIZEOF (.symbol_table))
                0x0001a3b8                __fast_load_start__ = (__symbol_table_end__ ALIGN 0x4)

.fast           0x4000003c        0x0 load address 0x0001a3b8
                0x4000003c                __fast_start__ = .
 *(.fast .fast.*)
                0x4000003c                __fast_end__ = (__fast_start__ + SIZEOF (.fast))
                0x0001a3b8                __fast_load_end__ = (__fast_load_start__ + SIZEOF (.fast))

.fast_run       0x4000003c        0x0
                0x4000003c                __fast_run_start__ = .
                0x4000003c                . = ((__fast_run_start__ + SIZEOF (.fast)) MAX .)
                0x4000003c                __fast_run_end__ = (__fast_run_start__ + SIZEOF (.fast_run))
                0x0001a3b8                __data_load_start__ = ((__fast_load_start__ + SIZEOF (.fast)) ALIGN 0x4)

.data           0x4000003c      0x860 load address 0x0001a3b8
                0x4000003c                __data_start__ = .
 *(.data .data.* .gnu.linkonce.d.*)
 .data          0x4000003c        0x0 ./main.o
 .data          0x4000003c        0x0 ./utils/src/rprintf.o
 .data          0x4000003c        0x4 ./utils/src/timer.o
 .data          0x40000040        0x0 ./utils/cString.o
 .data          0x40000040        0x1 ./fat/diskio.o
                0x40000040                Stat
 .data          0x40000041        0x0 ./fat/ff.o
 .data          0x40000041        0x0 ./fat/rtc.o
 .data          0x40000041        0x0 ./fat/option/ccsbcs.o
 .data          0x40000041        0x0 ./fat/option/reentrant.o
 .data          0x40000041        0x0 ./drivers/i2c.o
 .data          0x40000041        0x0 ./drivers/pcm1774.o
 .data          0x40000041        0x0 ./drivers/ssp_spi.o
 .data          0x40000041        0x0 ./drivers/sta013.o
 .data          0x40000041        0x0 ./drivers/uart0.o
 .data          0x40000041        0x0 ./drivers/watchdog.o
 .data          0x40000041        0x0 ./System/cppmem.o
 .data          0x40000041        0x0 ./System/cpu.o
 .data          0x40000041        0x0 ./System/syscalls.o
 .data          0x40000041        0x0 ./System/startup/Arm7CStartup.o
 .data          0x40000041        0x0 ./System/startup/Lpc2000ExceptionVectors.o
 .data          0x40000041        0x0 ./System/startup/exceptionHandlers.o
 .data          0x40000041        0x0 ./MP3/button.o
 .data          0x40000041        0x0 ./MP3/control.o
 .data          0x40000041        0x0 ./MP3/mp3.o
 .data          0x40000041        0x0 ./General/userInterface.o
 .data          0x40000041        0x0 ./FreeRTOS/src/croutine.o
 .data          0x40000041        0x0 ./FreeRTOS/src/list.o
 .data          0x40000041        0x0 ./FreeRTOS/src/port.o
 *fill*         0x40000041        0x3 00
 .data          0x40000044        0x4 ./FreeRTOS/src/portISR.o
                0x40000044                ulCriticalNesting
 .data          0x40000048        0x0 ./FreeRTOS/src/queue.o
 .data          0x40000048        0x4 ./FreeRTOS/src/tasks.o
 .data          0x4000004c        0x0 ./FreeRTOS/src/timers.o
 .data          0x4000004c        0x0 ./FreeRTOS/mem/heap_3.o
 .data          0x4000004c        0x0 ./FreeRTOS/hooks/hooks.o
 .data          0x4000004c        0x0 /cygdrive/c/Users/Public/Desktop/CmpE146Package/GNUARM/bin/../lib/gcc/arm-elf/4.3.2/libgcc.a(_udivsi3.o)
 .data          0x4000004c        0x0 /cygdrive/c/Users/Public/Desktop/CmpE146Package/GNUARM/bin/../lib/gcc/arm-elf/4.3.2/libgcc.a(_divsi3.o)
 .data          0x4000004c        0x0 /cygdrive/c/Users/Public/Desktop/CmpE146Package/GNUARM/bin/../lib/gcc/arm-elf/4.3.2/libgcc.a(_umodsi3.o)
 .data          0x4000004c        0x0 /cygdrive/c/Users/Public/Desktop/CmpE146Package/GNUARM/bin/../lib/gcc/arm-elf/4.3.2/libgcc.a(_dvmd_tls.o)
 .data          0x4000004c        0x0 /cygdrive/c/Users/Public/Desktop/CmpE146Package/GNUARM/bin/../lib/gcc/arm-elf/4.3.2/libgcc.a(_addsubdf3.o)
 .data          0x4000004c        0x0 /cygdrive/c/Users/Public/Desktop/CmpE146Package/GNUARM/bin/../lib/gcc/arm-elf/4.3.2/libgcc.a(_truncdfsf2.o)
 .data          0x4000004c        0x0 /cygdrive/c/Users/Public/Desktop/CmpE146Package/GNUARM/bin/../lib/gcc/arm-elf/4.3.2/libgcc.a(_addsubsf3.o)
 .data          0x4000004c        0x0 /cygdrive/c/Users/Public/Desktop/CmpE146Package/GNUARM/bin/../lib/gcc/arm-elf/4.3.2/../../../../arm-elf/lib/libc.a(lib_a-atof.o)
 .data          0x4000004c        0x0 /cygdrive/c/Users/Public/Desktop/CmpE146Package/GNUARM/bin/../lib/gcc/arm-elf/4.3.2/../../../../arm-elf/lib/libc.a(lib_a-atoi.o)
 .data          0x4000004c        0x0 /cygdrive/c/Users/Public/Desktop/CmpE146Package/GNUARM/bin/../lib/gcc/arm-elf/4.3.2/../../../../arm-elf/lib/libc.a(lib_a-iprintf.o)
 .data          0x4000004c        0x0 /cygdrive/c/Users/Public/Desktop/CmpE146Package/GNUARM/bin/../lib/gcc/arm-elf/4.3.2/../../../../arm-elf/lib/libc.a(lib_a-malloc.o)
 .data          0x4000004c      0x410 /cygdrive/c/Users/Public/Desktop/CmpE146Package/GNUARM/bin/../lib/gcc/arm-elf/4.3.2/../../../../arm-elf/lib/libc.a(lib_a-mallocr.o)
                0x40000458                __malloc_sbrk_base
                0x4000004c                __malloc_av_
                0x40000454                __malloc_trim_threshold
 .data          0x4000045c        0x0 /cygdrive/c/Users/Public/Desktop/CmpE146Package/GNUARM/bin/../lib/gcc/arm-elf/4.3.2/../../../../arm-elf/lib/libc.a(lib_a-memcmp.o)
 .data          0x4000045c        0x0 /cygdrive/c/Users/Public/Desktop/CmpE146Package/GNUARM/bin/../lib/gcc/arm-elf/4.3.2/../../../../arm-elf/lib/libc.a(lib_a-memcpy.o)
 .data          0x4000045c        0x0 /cygdrive/c/Users/Public/Desktop/CmpE146Package/GNUARM/bin/../lib/gcc/arm-elf/4.3.2/../../../../arm-elf/lib/libc.a(lib_a-memmove.o)
 .data          0x4000045c        0x0 /cygdrive/c/Users/Public/Desktop/CmpE146Package/GNUARM/bin/../lib/gcc/arm-elf/4.3.2/../../../../arm-elf/lib/libc.a(lib_a-memset.o)
 .data          0x4000045c        0x0 /cygdrive/c/Users/Public/Desktop/CmpE146Package/GNUARM/bin/../lib/gcc/arm-elf/4.3.2/../../../../arm-elf/lib/libc.a(lib_a-mlock.o)
 .data          0x4000045c        0x0 /cygdrive/c/Users/Public/Desktop/CmpE146Package/GNUARM/bin/../lib/gcc/arm-elf/4.3.2/../../../../arm-elf/lib/libc.a(lib_a-realloc.o)
 .data          0x4000045c        0x0 /cygdrive/c/Users/Public/Desktop/CmpE146Package/GNUARM/bin/../lib/gcc/arm-elf/4.3.2/../../../../arm-elf/lib/libc.a(lib_a-reallocr.o)
 .data          0x4000045c        0x0 /cygdrive/c/Users/Public/Desktop/CmpE146Package/GNUARM/bin/../lib/gcc/arm-elf/4.3.2/../../../../arm-elf/lib/libc.a(lib_a-siprintf.o)
 .data          0x4000045c        0x0 /cygdrive/c/Users/Public/Desktop/CmpE146Package/GNUARM/bin/../lib/gcc/arm-elf/4.3.2/../../../../arm-elf/lib/libc.a(lib_a-sprintf.o)
 .data          0x4000045c        0x0 /cygdrive/c/Users/Public/Desktop/CmpE146Package/GNUARM/bin/../lib/gcc/arm-elf/4.3.2/../../../../arm-elf/lib/libc.a(lib_a-strcat.o)
 .data          0x4000045c        0x0 /cygdrive/c/Users/Public/Desktop/CmpE146Package/GNUARM/bin/../lib/gcc/arm-elf/4.3.2/../../../../arm-elf/lib/libc.a(lib_a-strchr.o)
 .data          0x4000045c        0x0 /cygdrive/c/Users/Public/Desktop/CmpE146Package/GNUARM/bin/../lib/gcc/arm-elf/4.3.2/../../../../arm-elf/lib/libc.a(lib_a-strcmp.o)
 .data          0x4000045c        0x0 /cygdrive/c/Users/Public/Desktop/CmpE146Package/GNUARM/bin/../lib/gcc/arm-elf/4.3.2/../../../../arm-elf/lib/libc.a(lib_a-strcpy.o)
 .data          0x4000045c        0x0 /cygdrive/c/Users/Public/Desktop/CmpE146Package/GNUARM/bin/../lib/gcc/arm-elf/4.3.2/../../../../arm-elf/lib/libc.a(lib_a-strlen.o)
 .data          0x4000045c        0x0 /cygdrive/c/Users/Public/Desktop/CmpE146Package/GNUARM/bin/../lib/gcc/arm-elf/4.3.2/../../../../arm-elf/lib/libc.a(lib_a-strncpy.o)
 .data          0x4000045c        0x0 /cygdrive/c/Users/Public/Desktop/CmpE146Package/GNUARM/bin/../lib/gcc/arm-elf/4.3.2/../../../../arm-elf/lib/libc.a(lib_a-strstr.o)
 .data          0x4000045c       0x28 /cygdrive/c/Users/Public/Desktop/CmpE146Package/GNUARM/bin/../lib/gcc/arm-elf/4.3.2/../../../../arm-elf/lib/libc.a(lib_a-strtod.o)
 .data          0x40000484        0x0 /cygdrive/c/Users/Public/Desktop/CmpE146Package/GNUARM/bin/../lib/gcc/arm-elf/4.3.2/../../../../arm-elf/lib/libc.a(lib_a-strtok.o)
 .data          0x40000484        0x0 /cygdrive/c/Users/Public/Desktop/CmpE146Package/GNUARM/bin/../lib/gcc/arm-elf/4.3.2/../../../../arm-elf/lib/libc.a(lib_a-strtok_r.o)
 .data          0x40000484        0x0 /cygdrive/c/Users/Public/Desktop/CmpE146Package/GNUARM/bin/../lib/gcc/arm-elf/4.3.2/../../../../arm-elf/lib/libc.a(lib_a-strtol.o)
 .data          0x40000484        0x0 /cygdrive/c/Users/Public/Desktop/CmpE146Package/GNUARM/bin/../lib/gcc/arm-elf/4.3.2/../../../../arm-elf/lib/libc.a(lib_a-tolower.o)
 .data          0x40000484        0x0 /cygdrive/c/Users/Public/Desktop/CmpE146Package/GNUARM/bin/../lib/gcc/arm-elf/4.3.2/../../../../arm-elf/lib/libc.a(lib_a-toupper.o)
 .data          0x40000484        0x0 /cygdrive/c/Users/Public/Desktop/CmpE146Package/GNUARM/bin/../lib/gcc/arm-elf/4.3.2/../../../../arm-elf/lib/libc.a(lib_a-vfiprintf.o)
 .data          0x40000484        0x0 /cygdrive/c/Users/Public/Desktop/CmpE146Package/GNUARM/bin/../lib/gcc/arm-elf/4.3.2/../../../../arm-elf/lib/libc.a(lib_a-vfprintf.o)
 .data          0x40000484        0x0 /cygdrive/c/Users/Public/Desktop/CmpE146Package/GNUARM/bin/../lib/gcc/arm-elf/4.3.2/../../../../arm-elf/lib/libc.a(lib_a-wsetup.o)
 .data          0x40000484        0x4 /cygdrive/c/Users/Public/Desktop/CmpE146Package/GNUARM/bin/../lib/gcc/arm-elf/4.3.2/../../../../arm-elf/lib/libc.a(lib_a-ctype_.o)
                0x40000484                __ctype_ptr
 .data          0x40000488        0x0 /cygdrive/c/Users/Public/Desktop/CmpE146Package/GNUARM/bin/../lib/gcc/arm-elf/4.3.2/../../../../arm-elf/lib/libc.a(lib_a-dtoa.o)
 .data          0x40000488        0x0 /cygdrive/c/Users/Public/Desktop/CmpE146Package/GNUARM/bin/../lib/gcc/arm-elf/4.3.2/../../../../arm-elf/lib/libc.a(lib_a-fflush.o)
 .data          0x40000488        0x0 /cygdrive/c/Users/Public/Desktop/CmpE146Package/GNUARM/bin/../lib/gcc/arm-elf/4.3.2/../../../../arm-elf/lib/libc.a(lib_a-findfp.o)
 .data          0x40000488        0x0 /cygdrive/c/Users/Public/Desktop/CmpE146Package/GNUARM/bin/../lib/gcc/arm-elf/4.3.2/../../../../arm-elf/lib/libc.a(lib_a-freer.o)
 .data          0x40000488        0x0 /cygdrive/c/Users/Public/Desktop/CmpE146Package/GNUARM/bin/../lib/gcc/arm-elf/4.3.2/../../../../arm-elf/lib/libc.a(lib_a-fvwrite.o)
 .data          0x40000488        0x0 /cygdrive/c/Users/Public/Desktop/CmpE146Package/GNUARM/bin/../lib/gcc/arm-elf/4.3.2/../../../../arm-elf/lib/libc.a(lib_a-fwalk.o)
 .data          0x40000488        0x0 /cygdrive/c/Users/Public/Desktop/CmpE146Package/GNUARM/bin/../lib/gcc/arm-elf/4.3.2/../../../../arm-elf/lib/libc.a(lib_a-gdtoa-gethex.o)
 .data          0x40000488        0x0 /cygdrive/c/Users/Public/Desktop/CmpE146Package/GNUARM/bin/../lib/gcc/arm-elf/4.3.2/../../../../arm-elf/lib/libc.a(lib_a-gdtoa-hexnan.o)
 .data          0x40000488      0x404 /cygdrive/c/Users/Public/Desktop/CmpE146Package/GNUARM/bin/../lib/gcc/arm-elf/4.3.2/../../../../arm-elf/lib/libc.a(lib_a-impure.o)
                0x40000488                _impure_ptr
 .data          0x4000088c       0x10 /cygdrive/c/Users/Public/Desktop/CmpE146Package/GNUARM/bin/../lib/gcc/arm-elf/4.3.2/../../../../arm-elf/lib/libc.a(lib_a-locale.o)
                0x4000088c                __mb_cur_max
                0x40000890                __lc_ctype
 .data          0x4000089c        0x0 /cygdrive/c/Users/Public/Desktop/CmpE146Package/GNUARM/bin/../lib/gcc/arm-elf/4.3.2/../../../../arm-elf/lib/libc.a(lib_a-makebuf.o)
 .data          0x4000089c        0x0 /cygdrive/c/Users/Public/Desktop/CmpE146Package/GNUARM/bin/../lib/gcc/arm-elf/4.3.2/../../../../arm-elf/lib/libc.a(lib_a-memchr.o)
 .data          0x4000089c        0x0 /cygdrive/c/Users/Public/Desktop/CmpE146Package/GNUARM/bin/../lib/gcc/arm-elf/4.3.2/../../../../arm-elf/lib/libc.a(lib_a-mprec.o)
 .data          0x4000089c        0x0 /cygdrive/c/Users/Public/Desktop/CmpE146Package/GNUARM/bin/../lib/gcc/arm-elf/4.3.2/../../../../arm-elf/lib/libc.a(lib_a-s_isinfd.o)
 .data          0x4000089c        0x0 /cygdrive/c/Users/Public/Desktop/CmpE146Package/GNUARM/bin/../lib/gcc/arm-elf/4.3.2/../../../../arm-elf/lib/libc.a(lib_a-s_isnand.o)
 .data          0x4000089c        0x0 /cygdrive/c/Users/Public/Desktop/CmpE146Package/GNUARM/bin/../lib/gcc/arm-elf/4.3.2/../../../../arm-elf/lib/libc.a(lib_a-sf_nan.o)
 .data          0x4000089c        0x0 /cygdrive/c/Users/Public/Desktop/CmpE146Package/GNUARM/bin/../lib/gcc/arm-elf/4.3.2/../../../../arm-elf/lib/libc.a(lib_a-stdio.o)
 .data          0x4000089c        0x0 /cygdrive/c/Users/Public/Desktop/CmpE146Package/GNUARM/bin/../lib/gcc/arm-elf/4.3.2/../../../../arm-elf/lib/libc.a(lib_a-syscalls.o)
 .data          0x4000089c        0x0 /cygdrive/c/Users/Public/Desktop/CmpE146Package/GNUARM/bin/../lib/gcc/arm-elf/4.3.2/../../../../arm-elf/lib/libc.a(lib_a-callocr.o)
 .data          0x4000089c        0x0 /cygdrive/c/Users/Public/Desktop/CmpE146Package/GNUARM/bin/../lib/gcc/arm-elf/4.3.2/../../../../arm-elf/lib/libc.a(lib_a-errno.o)
 .data          0x4000089c        0x0 /cygdrive/c/Users/Public/Desktop/CmpE146Package/GNUARM/bin/../lib/gcc/arm-elf/4.3.2/../../../../arm-elf/lib/libc.a(lib_a-fclose.o)
 .data          0x4000089c        0x0 /cygdrive/c/Users/Public/Desktop/CmpE146Package/GNUARM/bin/../lib/gcc/arm-elf/4.3.2/libgcc.a(_muldivdf3.o)
 .data          0x4000089c        0x0 /cygdrive/c/Users/Public/Desktop/CmpE146Package/GNUARM/bin/../lib/gcc/arm-elf/4.3.2/libgcc.a(_cmpdf2.o)
 .data          0x4000089c        0x0 /cygdrive/c/Users/Public/Desktop/CmpE146Package/GNUARM/bin/../lib/gcc/arm-elf/4.3.2/libgcc.a(_fixdfsi.o)
 .data          0x4000089c        0x0 /cygdrive/c/Users/Public/Desktop/CmpE146Package/GNUARM/bin/../lib/gcc/arm-elf/4.3.2/libgcc.a(_fixunsdfsi.o)
                0x4000089c                __data_end__ = (__data_start__ + SIZEOF (.data))
                0x0001ac18                __data_load_end__ = (__data_load_start__ + SIZEOF (.data))

.data_run       0x4000003c      0x860
                0x4000003c                __data_run_start__ = .
                0x4000089c                . = ((__data_run_start__ + SIZEOF (.data)) MAX .)
 *fill*         0x4000003c      0x860 00
                0x4000089c                __data_run_end__ = (__data_run_start__ + SIZEOF (.data_run))
                0x4000089c                __bss_load_start__ = (__data_run_end__ ALIGN 0x4)

.bss            0x4000089c      0x34d load address 0x0001ac18
                0x4000089c                __bss_start__ = .
 *(.bss .bss.* .gnu.linkonce.b.*)
 .bss           0x4000089c        0x0 ./main.o
 .bss           0x4000089c        0x4 ./utils/src/rprintf.o
 .bss           0x400008a0        0x0 ./utils/src/timer.o
 .bss           0x400008a0        0x0 ./utils/cString.o
 .bss           0x400008a0        0x1 ./fat/diskio.o
 *fill*         0x400008a1        0x3 00
 .bss           0x400008a4        0x8 ./fat/ff.o
 .bss           0x400008ac        0x0 ./fat/rtc.o
 .bss           0x400008ac        0x0 ./fat/option/ccsbcs.o
 .bss           0x400008ac        0x0 ./fat/option/reentrant.o
 .bss           0x400008ac       0x14 ./drivers/i2c.o
 .bss           0x400008c0        0x0 ./drivers/pcm1774.o
 .bss           0x400008c0        0x0 ./drivers/ssp_spi.o
 .bss           0x400008c0        0x0 ./drivers/sta013.o
 .bss           0x400008c0        0xc ./drivers/uart0.o
 .bss           0x400008cc        0x0 ./drivers/watchdog.o
 .bss           0x400008cc        0x0 ./System/cppmem.o
 .bss           0x400008cc        0x0 ./System/cpu.o
 .bss           0x400008cc        0x4 ./System/syscalls.o
 .bss           0x400008d0        0x0 ./System/startup/Arm7CStartup.o
 .bss           0x400008d0        0x0 ./System/startup/Lpc2000ExceptionVectors.o
 .bss           0x400008d0        0x0 ./System/startup/exceptionHandlers.o
 .bss           0x400008d0        0x0 ./MP3/button.o
 .bss           0x400008d0        0x0 ./MP3/control.o
 .bss           0x400008d0        0x0 ./MP3/mp3.o
 .bss           0x400008d0        0x0 ./General/userInterface.o
 .bss           0x400008d0        0x0 ./FreeRTOS/src/croutine.o
 .bss           0x400008d0        0x0 ./FreeRTOS/src/list.o
 .bss           0x400008d0        0x0 ./FreeRTOS/src/port.o
 .bss           0x400008d0        0x0 ./FreeRTOS/src/portISR.o
 .bss           0x400008d0        0x0 ./FreeRTOS/src/queue.o
 .bss           0x400008d0       0xdc ./FreeRTOS/src/tasks.o
                0x400008d0                pxCurrentTCB
                0x400008d4                ulISROverhead
 .bss           0x400009ac       0x38 ./FreeRTOS/src/timers.o
 .bss           0x400009e4        0x0 ./FreeRTOS/mem/heap_3.o
 .bss           0x400009e4        0x0 ./FreeRTOS/hooks/hooks.o
 .bss           0x400009e4        0x0 /cygdrive/c/Users/Public/Desktop/CmpE146Package/GNUARM/bin/../lib/gcc/arm-elf/4.3.2/libgcc.a(_udivsi3.o)
 .bss           0x400009e4        0x0 /cygdrive/c/Users/Public/Desktop/CmpE146Package/GNUARM/bin/../lib/gcc/arm-elf/4.3.2/libgcc.a(_divsi3.o)
 .bss           0x400009e4        0x0 /cygdrive/c/Users/Public/Desktop/CmpE146Package/GNUARM/bin/../lib/gcc/arm-elf/4.3.2/libgcc.a(_umodsi3.o)
 .bss           0x400009e4        0x0 /cygdrive/c/Users/Public/Desktop/CmpE146Package/GNUARM/bin/../lib/gcc/arm-elf/4.3.2/libgcc.a(_dvmd_tls.o)
 .bss           0x400009e4        0x0 /cygdrive/c/Users/Public/Desktop/CmpE146Package/GNUARM/bin/../lib/gcc/arm-elf/4.3.2/libgcc.a(_addsubdf3.o)
 .bss           0x400009e4        0x0 /cygdrive/c/Users/Public/Desktop/CmpE146Package/GNUARM/bin/../lib/gcc/arm-elf/4.3.2/libgcc.a(_truncdfsf2.o)
 .bss           0x400009e4        0x0 /cygdrive/c/Users/Public/Desktop/CmpE146Package/GNUARM/bin/../lib/gcc/arm-elf/4.3.2/libgcc.a(_addsubsf3.o)
 .bss           0x400009e4        0x0 /cygdrive/c/Users/Public/Desktop/CmpE146Package/GNUARM/bin/../lib/gcc/arm-elf/4.3.2/../../../../arm-elf/lib/libc.a(lib_a-atof.o)
 .bss           0x400009e4        0x0 /cygdrive/c/Users/Public/Desktop/CmpE146Package/GNUARM/bin/../lib/gcc/arm-elf/4.3.2/../../../../arm-elf/lib/libc.a(lib_a-atoi.o)
 .bss           0x400009e4        0x0 /cygdrive/c/Users/Public/Desktop/CmpE146Package/GNUARM/bin/../lib/gcc/arm-elf/4.3.2/../../../../arm-elf/lib/libc.a(lib_a-iprintf.o)
 .bss           0x400009e4        0x0 /cygdrive/c/Users/Public/Desktop/CmpE146Package/GNUARM/bin/../lib/gcc/arm-elf/4.3.2/../../../../arm-elf/lib/libc.a(lib_a-malloc.o)
 .bss           0x400009e4       0x34 /cygdrive/c/Users/Public/Desktop/CmpE146Package/GNUARM/bin/../lib/gcc/arm-elf/4.3.2/../../../../arm-elf/lib/libc.a(lib_a-mallocr.o)
                0x400009e4                __malloc_top_pad
                0x400009e8                __malloc_max_sbrked_mem
                0x400009f0                __malloc_current_mallinfo
                0x400009ec                __malloc_max_total_mem
 .bss           0x40000a18        0x0 /cygdrive/c/Users/Public/Desktop/CmpE146Package/GNUARM/bin/../lib/gcc/arm-elf/4.3.2/../../../../arm-elf/lib/libc.a(lib_a-memcmp.o)
 .bss           0x40000a18        0x0 /cygdrive/c/Users/Public/Desktop/CmpE146Package/GNUARM/bin/../lib/gcc/arm-elf/4.3.2/../../../../arm-elf/lib/libc.a(lib_a-memcpy.o)
 .bss           0x40000a18        0x0 /cygdrive/c/Users/Public/Desktop/CmpE146Package/GNUARM/bin/../lib/gcc/arm-elf/4.3.2/../../../../arm-elf/lib/libc.a(lib_a-memmove.o)
 .bss           0x40000a18        0x0 /cygdrive/c/Users/Public/Desktop/CmpE146Package/GNUARM/bin/../lib/gcc/arm-elf/4.3.2/../../../../arm-elf/lib/libc.a(lib_a-memset.o)
 .bss           0x40000a18        0x0 /cygdrive/c/Users/Public/Desktop/CmpE146Package/GNUARM/bin/../lib/gcc/arm-elf/4.3.2/../../../../arm-elf/lib/libc.a(lib_a-mlock.o)
 .bss           0x40000a18        0x0 /cygdrive/c/Users/Public/Desktop/CmpE146Package/GNUARM/bin/../lib/gcc/arm-elf/4.3.2/../../../../arm-elf/lib/libc.a(lib_a-realloc.o)
 .bss           0x40000a18        0x0 /cygdrive/c/Users/Public/Desktop/CmpE146Package/GNUARM/bin/../lib/gcc/arm-elf/4.3.2/../../../../arm-elf/lib/libc.a(lib_a-reallocr.o)
 .bss           0x40000a18        0x0 /cygdrive/c/Users/Public/Desktop/CmpE146Package/GNUARM/bin/../lib/gcc/arm-elf/4.3.2/../../../../arm-elf/lib/libc.a(lib_a-siprintf.o)
 .bss           0x40000a18        0x0 /cygdrive/c/Users/Public/Desktop/CmpE146Package/GNUARM/bin/../lib/gcc/arm-elf/4.3.2/../../../../arm-elf/lib/libc.a(lib_a-sprintf.o)
 .bss           0x40000a18        0x0 /cygdrive/c/Users/Public/Desktop/CmpE146Package/GNUARM/bin/../lib/gcc/arm-elf/4.3.2/../../../../arm-elf/lib/libc.a(lib_a-strcat.o)
 .bss           0x40000a18        0x0 /cygdrive/c/Users/Public/Desktop/CmpE146Package/GNUARM/bin/../lib/gcc/arm-elf/4.3.2/../../../../arm-elf/lib/libc.a(lib_a-strchr.o)
 .bss           0x40000a18        0x0 /cygdrive/c/Users/Public/Desktop/CmpE146Package/GNUARM/bin/../lib/gcc/arm-elf/4.3.2/../../../../arm-elf/lib/libc.a(lib_a-strcmp.o)
 .bss           0x40000a18        0x0 /cygdrive/c/Users/Public/Desktop/CmpE146Package/GNUARM/bin/../lib/gcc/arm-elf/4.3.2/../../../../arm-elf/lib/libc.a(lib_a-strcpy.o)
 .bss           0x40000a18        0x0 /cygdrive/c/Users/Public/Desktop/CmpE146Package/GNUARM/bin/../lib/gcc/arm-elf/4.3.2/../../../../arm-elf/lib/libc.a(lib_a-strlen.o)
 .bss           0x40000a18        0x0 /cygdrive/c/Users/Public/Desktop/CmpE146Package/GNUARM/bin/../lib/gcc/arm-elf/4.3.2/../../../../arm-elf/lib/libc.a(lib_a-strncpy.o)
 .bss           0x40000a18        0x0 /cygdrive/c/Users/Public/Desktop/CmpE146Package/GNUARM/bin/../lib/gcc/arm-elf/4.3.2/../../../../arm-elf/lib/libc.a(lib_a-strstr.o)
 .bss           0x40000a18        0x0 /cygdrive/c/Users/Public/Desktop/CmpE146Package/GNUARM/bin/../lib/gcc/arm-elf/4.3.2/../../../../arm-elf/lib/libc.a(lib_a-strtod.o)
 .bss           0x40000a18        0x0 /cygdrive/c/Users/Public/Desktop/CmpE146Package/GNUARM/bin/../lib/gcc/arm-elf/4.3.2/../../../../arm-elf/lib/libc.a(lib_a-strtok.o)
 .bss           0x40000a18        0x0 /cygdrive/c/Users/Public/Desktop/CmpE146Package/GNUARM/bin/../lib/gcc/arm-elf/4.3.2/../../../../arm-elf/lib/libc.a(lib_a-strtok_r.o)
 .bss           0x40000a18        0x0 /cygdrive/c/Users/Public/Desktop/CmpE146Package/GNUARM/bin/../lib/gcc/arm-elf/4.3.2/../../../../arm-elf/lib/libc.a(lib_a-strtol.o)
 .bss           0x40000a18        0x0 /cygdrive/c/Users/Public/Desktop/CmpE146Package/GNUARM/bin/../lib/gcc/arm-elf/4.3.2/../../../../arm-elf/lib/libc.a(lib_a-tolower.o)
 .bss           0x40000a18        0x0 /cygdrive/c/Users/Public/Desktop/CmpE146Package/GNUARM/bin/../lib/gcc/arm-elf/4.3.2/../../../../arm-elf/lib/libc.a(lib_a-toupper.o)
 .bss           0x40000a18        0x0 /cygdrive/c/Users/Public/Desktop/CmpE146Package/GNUARM/bin/../lib/gcc/arm-elf/4.3.2/../../../../arm-elf/lib/libc.a(lib_a-vfiprintf.o)
 .bss           0x40000a18        0x0 /cygdrive/c/Users/Public/Desktop/CmpE146Package/GNUARM/bin/../lib/gcc/arm-elf/4.3.2/../../../../arm-elf/lib/libc.a(lib_a-vfprintf.o)
 .bss           0x40000a18        0x0 /cygdrive/c/Users/Public/Desktop/CmpE146Package/GNUARM/bin/../lib/gcc/arm-elf/4.3.2/../../../../arm-elf/lib/libc.a(lib_a-wsetup.o)
 .bss           0x40000a18        0x0 /cygdrive/c/Users/Public/Desktop/CmpE146Package/GNUARM/bin/../lib/gcc/arm-elf/4.3.2/../../../../arm-elf/lib/libc.a(lib_a-ctype_.o)
 .bss           0x40000a18        0x0 /cygdrive/c/Users/Public/Desktop/CmpE146Package/GNUARM/bin/../lib/gcc/arm-elf/4.3.2/../../../../arm-elf/lib/libc.a(lib_a-dtoa.o)
 .bss           0x40000a18        0x0 /cygdrive/c/Users/Public/Desktop/CmpE146Package/GNUARM/bin/../lib/gcc/arm-elf/4.3.2/../../../../arm-elf/lib/libc.a(lib_a-fflush.o)
 .bss           0x40000a18        0x0 /cygdrive/c/Users/Public/Desktop/CmpE146Package/GNUARM/bin/../lib/gcc/arm-elf/4.3.2/../../../../arm-elf/lib/libc.a(lib_a-findfp.o)
 .bss           0x40000a18        0x0 /cygdrive/c/Users/Public/Desktop/CmpE146Package/GNUARM/bin/../lib/gcc/arm-elf/4.3.2/../../../../arm-elf/lib/libc.a(lib_a-freer.o)
 .bss           0x40000a18        0x0 /cygdrive/c/Users/Public/Desktop/CmpE146Package/GNUARM/bin/../lib/gcc/arm-elf/4.3.2/../../../../arm-elf/lib/libc.a(lib_a-fvwrite.o)
 .bss           0x40000a18        0x0 /cygdrive/c/Users/Public/Desktop/CmpE146Package/GNUARM/bin/../lib/gcc/arm-elf/4.3.2/../../../../arm-elf/lib/libc.a(lib_a-fwalk.o)
 .bss           0x40000a18        0x0 /cygdrive/c/Users/Public/Desktop/CmpE146Package/GNUARM/bin/../lib/gcc/arm-elf/4.3.2/../../../../arm-elf/lib/libc.a(lib_a-gdtoa-gethex.o)
 .bss           0x40000a18        0x0 /cygdrive/c/Users/Public/Desktop/CmpE146Package/GNUARM/bin/../lib/gcc/arm-elf/4.3.2/../../../../arm-elf/lib/libc.a(lib_a-gdtoa-hexnan.o)
 .bss           0x40000a18        0x0 /cygdrive/c/Users/Public/Desktop/CmpE146Package/GNUARM/bin/../lib/gcc/arm-elf/4.3.2/../../../../arm-elf/lib/libc.a(lib_a-impure.o)
 .bss           0x40000a18        0xc /cygdrive/c/Users/Public/Desktop/CmpE146Package/GNUARM/bin/../lib/gcc/arm-elf/4.3.2/../../../../arm-elf/lib/libc.a(lib_a-locale.o)
                0x40000a18                __nlocale_changed
                0x40000a1c                __mlocale_changed
                0x40000a20                _PathLocale
 .bss           0x40000a24        0x0 /cygdrive/c/Users/Public/Desktop/CmpE146Package/GNUARM/bin/../lib/gcc/arm-elf/4.3.2/../../../../arm-elf/lib/libc.a(lib_a-makebuf.o)
 .bss           0x40000a24        0x0 /cygdrive/c/Users/Public/Desktop/CmpE146Package/GNUARM/bin/../lib/gcc/arm-elf/4.3.2/../../../../arm-elf/lib/libc.a(lib_a-memchr.o)
 .bss           0x40000a24        0x0 /cygdrive/c/Users/Public/Desktop/CmpE146Package/GNUARM/bin/../lib/gcc/arm-elf/4.3.2/../../../../arm-elf/lib/libc.a(lib_a-mprec.o)
 .bss           0x40000a24        0x0 /cygdrive/c/Users/Public/Desktop/CmpE146Package/GNUARM/bin/../lib/gcc/arm-elf/4.3.2/../../../../arm-elf/lib/libc.a(lib_a-s_isinfd.o)
 .bss           0x40000a24        0x0 /cygdrive/c/Users/Public/Desktop/CmpE146Package/GNUARM/bin/../lib/gcc/arm-elf/4.3.2/../../../../arm-elf/lib/libc.a(lib_a-s_isnand.o)
 .bss           0x40000a24        0x0 /cygdrive/c/Users/Public/Desktop/CmpE146Package/GNUARM/bin/../lib/gcc/arm-elf/4.3.2/../../../../arm-elf/lib/libc.a(lib_a-sf_nan.o)
 .bss           0x40000a24        0x0 /cygdrive/c/Users/Public/Desktop/CmpE146Package/GNUARM/bin/../lib/gcc/arm-elf/4.3.2/../../../../arm-elf/lib/libc.a(lib_a-stdio.o)
 .bss           0x40000a24       0xb0 /cygdrive/c/Users/Public/Desktop/CmpE146Package/GNUARM/bin/../lib/gcc/arm-elf/4.3.2/../../../../arm-elf/lib/libc.a(lib_a-syscalls.o)
 .bss           0x40000ad4        0x0 /cygdrive/c/Users/Public/Desktop/CmpE146Package/GNUARM/bin/../lib/gcc/arm-elf/4.3.2/../../../../arm-elf/lib/libc.a(lib_a-callocr.o)
 .bss           0x40000ad4        0x0 /cygdrive/c/Users/Public/Desktop/CmpE146Package/GNUARM/bin/../lib/gcc/arm-elf/4.3.2/../../../../arm-elf/lib/libc.a(lib_a-errno.o)
 .bss           0x40000ad4        0x0 /cygdrive/c/Users/Public/Desktop/CmpE146Package/GNUARM/bin/../lib/gcc/arm-elf/4.3.2/../../../../arm-elf/lib/libc.a(lib_a-fclose.o)
 .bss           0x40000ad4        0x0 /cygdrive/c/Users/Public/Desktop/CmpE146Package/GNUARM/bin/../lib/gcc/arm-elf/4.3.2/libgcc.a(_muldivdf3.o)
 .bss           0x40000ad4        0x0 /cygdrive/c/Users/Public/Desktop/CmpE146Package/GNUARM/bin/../lib/gcc/arm-elf/4.3.2/libgcc.a(_cmpdf2.o)
 .bss           0x40000ad4        0x0 /cygdrive/c/Users/Public/Desktop/CmpE146Package/GNUARM/bin/../lib/gcc/arm-elf/4.3.2/libgcc.a(_fixdfsi.o)
 .bss           0x40000ad4        0x0 /cygdrive/c/Users/Public/Desktop/CmpE146Package/GNUARM/bin/../lib/gcc/arm-elf/4.3.2/libgcc.a(_fixunsdfsi.o)
 *(COMMON)
 COMMON         0x40000ad4        0x9 ./fat/diskio.o
                0x40000ad4                CardType
                0x40000ad5                Timer2
                0x40000ad8                SPIAccessSemaphore
                0x40000adc                Timer1
 *fill*         0x40000add        0x3 00
 COMMON         0x40000ae0        0x8 ./drivers/i2c.o
                0x40000ae0                i2cReadCompleteSignal
                0x40000ae4                i2cLock
 COMMON         0x40000ae8        0x1 ./drivers/ssp_spi.o
                0x40000ae8                sspSpiDummyByte
 COMMON         0x40000ae9      0x100 /cygdrive/c/Users/Public/Desktop/CmpE146Package/GNUARM/bin/../lib/gcc/arm-elf/4.3.2/../../../../arm-elf/lib/libc.a(lib_a-gdtoa-gethex.o)
                0x40000ae9                __hexdig
                0x40000be9                __bss_end__ = (__bss_start__ + SIZEOF (.bss))
                0x40000bec                __non_init_load_start__ = (__bss_end__ ALIGN 0x4)

.non_init       0x40000bec        0x0
                0x40000bec                __non_init_start__ = .
 *(.non_init .non_init.*)
                0x40000bec                __non_init_end__ = (__non_init_start__ + SIZEOF (.non_init))
                0x40000bec                __stack_user_load_start__ = (__non_init_end__ ALIGN 0x4)

.stack          0x40000bec        0x0
                0x40000bec                __stack_user_start__ = .
 *(.stack)
                0x40000bec                . = ((__stack_user_start__ + __STACKSIZE_USER__) MAX .)
                0x40000bec                __stack_user_end__ = (__stack_user_start__ + SIZEOF (.stack))
                0x40000bec                __stack_irq_load_start__ = (__stack_user_end__ ALIGN 0x4)

.stack_irq      0x40000bec      0x200
                0x40000bec                __stack_irq_start__ = .
 *(.stack_irq)
                0x40000dec                . = ((__stack_irq_start__ + __STACKSIZE_IRQ__) MAX .)
 *fill*         0x40000bec      0x200 00
                0x40000dec                __stack_irq_end__ = (__stack_irq_start__ + SIZEOF (.stack_irq))
                0x40000dec                __stack_fiq_load_start__ = (__stack_irq_end__ ALIGN 0x4)

.stack_fiq      0x40000dec       0x40
                0x40000dec                __stack_fiq_start__ = .
 *(.stack_fiq)
                0x40000e2c                . = ((__stack_fiq_start__ + __STACKSIZE_FIQ__) MAX .)
 *fill*         0x40000dec       0x40 00
                0x40000e2c                __stack_fiq_end__ = (__stack_fiq_start__ + SIZEOF (.stack_fiq))
                0x40000e2c                __stack_svc_load_start__ = (__stack_fiq_end__ ALIGN 0x4)

.stack_svc      0x40000e2c      0x200
                0x40000e2c                __stack_svc_start__ = .
 *(.stack_svc)
                0x4000102c                . = ((__stack_svc_start__ + __STACKSIZE_SVC__) MAX .)
 *fill*         0x40000e2c      0x200 00
                0x4000102c                __stack_svc_end__ = (__stack_svc_start__ + SIZEOF (.stack_svc))
                0x4000102c                __stack_abt_load_start__ = (__stack_svc_end__ ALIGN 0x4)

.stack_abt      0x4000102c        0x0
                0x4000102c                __stack_abt_start__ = .
 *(.stack_abt)
                0x4000102c                . = ((__stack_abt_start__ + __STACKSIZE_ABT__) MAX .)
                0x4000102c                __stack_abt_end__ = (__stack_abt_start__ + SIZEOF (.stack_abt))
                0x4000102c                __stack_und_load_start__ = (__stack_abt_end__ ALIGN 0x4)

.stack_und      0x4000102c        0x0
                0x4000102c                __stack_und_start__ = .
 *(.stack_und)
                0x4000102c                . = ((__stack_und_start__ + __STACKSIZE_UND__) MAX .)
                0x4000102c                __stack_und_end__ = (__stack_und_start__ + SIZEOF (.stack_und))
                0x4000102c                __heap_load_start__ = (__stack_und_end__ ALIGN 0x4)

.heap           0x4000102c        0x0
                0x4000102c                __heap_start__ = .
 *(.heap)
                0x4000102c                . = ((__heap_start__ + __HEAPSIZE__) MAX .)
                0x4000102c                __heap_end__ = (__heap_start__ + SIZEOF (.heap))
                0x4000102c                end = .
OUTPUT(L4_lpc2148_freertos_cpp_mp3.elf elf32-littlearm)

.comment        0x00000000      0x5e8
 .comment       0x00000000       0x12 ./main.o
 .comment       0x00000012       0x12 ./utils/src/rprintf.o
 .comment       0x00000024       0x12 ./utils/src/timer.o
 .comment       0x00000036       0x12 ./utils/cString.o
 .comment       0x00000048       0x12 ./fat/diskio.o
 .comment       0x0000005a       0x12 ./fat/ff.o
 .comment       0x0000006c       0x12 ./fat/rtc.o
 .comment       0x0000007e       0x12 ./fat/option/ccsbcs.o
 .comment       0x00000090       0x12 ./fat/option/reentrant.o
 .comment       0x000000a2       0x12 ./drivers/i2c.o
 .comment       0x000000b4       0x12 ./drivers/pcm1774.o
 .comment       0x000000c6       0x12 ./drivers/ssp_spi.o
 .comment       0x000000d8       0x12 ./drivers/sta013.o
 .comment       0x000000ea       0x12 ./drivers/uart0.o
 .comment       0x000000fc       0x12 ./drivers/watchdog.o
 .comment       0x0000010e       0x12 ./System/cppmem.o
 .comment       0x00000120       0x12 ./System/cpu.o
 .comment       0x00000132       0x12 ./System/syscalls.o
 .comment       0x00000144       0x12 ./System/startup/exceptionHandlers.o
 .comment       0x00000156       0x12 ./MP3/button.o
 .comment       0x00000168       0x12 ./MP3/control.o
 .comment       0x0000017a       0x12 ./MP3/mp3.o
 .comment       0x0000018c       0x12 ./General/userInterface.o
 .comment       0x0000019e       0x12 ./FreeRTOS/src/croutine.o
 .comment       0x000001b0       0x12 ./FreeRTOS/src/list.o
 .comment       0x000001c2       0x12 ./FreeRTOS/src/port.o
 .comment       0x000001d4       0x12 ./FreeRTOS/src/portISR.o
 .comment       0x000001e6       0x12 ./FreeRTOS/src/queue.o
 .comment       0x000001f8       0x12 ./FreeRTOS/src/tasks.o
 .comment       0x0000020a       0x12 ./FreeRTOS/src/timers.o
 .comment       0x0000021c       0x12 ./FreeRTOS/mem/heap_3.o
 .comment       0x0000022e       0x12 ./FreeRTOS/hooks/hooks.o
 .comment       0x00000240       0x12 /cygdrive/c/Users/Public/Desktop/CmpE146Package/GNUARM/bin/../lib/gcc/arm-elf/4.3.2/../../../../arm-elf/lib/libc.a(lib_a-atof.o)
 .comment       0x00000252       0x12 /cygdrive/c/Users/Public/Desktop/CmpE146Package/GNUARM/bin/../lib/gcc/arm-elf/4.3.2/../../../../arm-elf/lib/libc.a(lib_a-atoi.o)
 .comment       0x00000264       0x12 /cygdrive/c/Users/Public/Desktop/CmpE146Package/GNUARM/bin/../lib/gcc/arm-elf/4.3.2/../../../../arm-elf/lib/libc.a(lib_a-iprintf.o)
 .comment       0x00000276       0x12 /cygdrive/c/Users/Public/Desktop/CmpE146Package/GNUARM/bin/../lib/gcc/arm-elf/4.3.2/../../../../arm-elf/lib/libc.a(lib_a-malloc.o)
 .comment       0x00000288       0x12 /cygdrive/c/Users/Public/Desktop/CmpE146Package/GNUARM/bin/../lib/gcc/arm-elf/4.3.2/../../../../arm-elf/lib/libc.a(lib_a-mallocr.o)
 .comment       0x0000029a       0x12 /cygdrive/c/Users/Public/Desktop/CmpE146Package/GNUARM/bin/../lib/gcc/arm-elf/4.3.2/../../../../arm-elf/lib/libc.a(lib_a-memcmp.o)
 .comment       0x000002ac       0x12 /cygdrive/c/Users/Public/Desktop/CmpE146Package/GNUARM/bin/../lib/gcc/arm-elf/4.3.2/../../../../arm-elf/lib/libc.a(lib_a-memcpy.o)
 .comment       0x000002be       0x12 /cygdrive/c/Users/Public/Desktop/CmpE146Package/GNUARM/bin/../lib/gcc/arm-elf/4.3.2/../../../../arm-elf/lib/libc.a(lib_a-memmove.o)
 .comment       0x000002d0       0x12 /cygdrive/c/Users/Public/Desktop/CmpE146Package/GNUARM/bin/../lib/gcc/arm-elf/4.3.2/../../../../arm-elf/lib/libc.a(lib_a-memset.o)
 .comment       0x000002e2       0x12 /cygdrive/c/Users/Public/Desktop/CmpE146Package/GNUARM/bin/../lib/gcc/arm-elf/4.3.2/../../../../arm-elf/lib/libc.a(lib_a-mlock.o)
 .comment       0x000002f4       0x12 /cygdrive/c/Users/Public/Desktop/CmpE146Package/GNUARM/bin/../lib/gcc/arm-elf/4.3.2/../../../../arm-elf/lib/libc.a(lib_a-realloc.o)
 .comment       0x00000306       0x12 /cygdrive/c/Users/Public/Desktop/CmpE146Package/GNUARM/bin/../lib/gcc/arm-elf/4.3.2/../../../../arm-elf/lib/libc.a(lib_a-reallocr.o)
 .comment       0x00000318       0x12 /cygdrive/c/Users/Public/Desktop/CmpE146Package/GNUARM/bin/../lib/gcc/arm-elf/4.3.2/../../../../arm-elf/lib/libc.a(lib_a-siprintf.o)
 .comment       0x0000032a       0x12 /cygdrive/c/Users/Public/Desktop/CmpE146Package/GNUARM/bin/../lib/gcc/arm-elf/4.3.2/../../../../arm-elf/lib/libc.a(lib_a-sprintf.o)
 .comment       0x0000033c       0x12 /cygdrive/c/Users/Public/Desktop/CmpE146Package/GNUARM/bin/../lib/gcc/arm-elf/4.3.2/../../../../arm-elf/lib/libc.a(lib_a-strcat.o)
 .comment       0x0000034e       0x12 /cygdrive/c/Users/Public/Desktop/CmpE146Package/GNUARM/bin/../lib/gcc/arm-elf/4.3.2/../../../../arm-elf/lib/libc.a(lib_a-strchr.o)
 .comment       0x00000360       0x12 /cygdrive/c/Users/Public/Desktop/CmpE146Package/GNUARM/bin/../lib/gcc/arm-elf/4.3.2/../../../../arm-elf/lib/libc.a(lib_a-strcmp.o)
 .comment       0x00000372       0x12 /cygdrive/c/Users/Public/Desktop/CmpE146Package/GNUARM/bin/../lib/gcc/arm-elf/4.3.2/../../../../arm-elf/lib/libc.a(lib_a-strcpy.o)
 .comment       0x00000384       0x12 /cygdrive/c/Users/Public/Desktop/CmpE146Package/GNUARM/bin/../lib/gcc/arm-elf/4.3.2/../../../../arm-elf/lib/libc.a(lib_a-strlen.o)
 .comment       0x00000396       0x12 /cygdrive/c/Users/Public/Desktop/CmpE146Package/GNUARM/bin/../lib/gcc/arm-elf/4.3.2/../../../../arm-elf/lib/libc.a(lib_a-strncpy.o)
 .comment       0x000003a8       0x12 /cygdrive/c/Users/Public/Desktop/CmpE146Package/GNUARM/bin/../lib/gcc/arm-elf/4.3.2/../../../../arm-elf/lib/libc.a(lib_a-strstr.o)
 .comment       0x000003ba       0x12 /cygdrive/c/Users/Public/Desktop/CmpE146Package/GNUARM/bin/../lib/gcc/arm-elf/4.3.2/../../../../arm-elf/lib/libc.a(lib_a-strtod.o)
 .comment       0x000003cc       0x12 /cygdrive/c/Users/Public/Desktop/CmpE146Package/GNUARM/bin/../lib/gcc/arm-elf/4.3.2/../../../../arm-elf/lib/libc.a(lib_a-strtok.o)
 .comment       0x000003de       0x12 /cygdrive/c/Users/Public/Desktop/CmpE146Package/GNUARM/bin/../lib/gcc/arm-elf/4.3.2/../../../../arm-elf/lib/libc.a(lib_a-strtok_r.o)
 .comment       0x000003f0       0x12 /cygdrive/c/Users/Public/Desktop/CmpE146Package/GNUARM/bin/../lib/gcc/arm-elf/4.3.2/../../../../arm-elf/lib/libc.a(lib_a-strtol.o)
 .comment       0x00000402       0x12 /cygdrive/c/Users/Public/Desktop/CmpE146Package/GNUARM/bin/../lib/gcc/arm-elf/4.3.2/../../../../arm-elf/lib/libc.a(lib_a-tolower.o)
 .comment       0x00000414       0x12 /cygdrive/c/Users/Public/Desktop/CmpE146Package/GNUARM/bin/../lib/gcc/arm-elf/4.3.2/../../../../arm-elf/lib/libc.a(lib_a-toupper.o)
 .comment       0x00000426       0x12 /cygdrive/c/Users/Public/Desktop/CmpE146Package/GNUARM/bin/../lib/gcc/arm-elf/4.3.2/../../../../arm-elf/lib/libc.a(lib_a-vfiprintf.o)
 .comment       0x00000438       0x12 /cygdrive/c/Users/Public/Desktop/CmpE146Package/GNUARM/bin/../lib/gcc/arm-elf/4.3.2/../../../../arm-elf/lib/libc.a(lib_a-vfprintf.o)
 .comment       0x0000044a       0x12 /cygdrive/c/Users/Public/Desktop/CmpE146Package/GNUARM/bin/../lib/gcc/arm-elf/4.3.2/../../../../arm-elf/lib/libc.a(lib_a-wsetup.o)
 .comment       0x0000045c       0x12 /cygdrive/c/Users/Public/Desktop/CmpE146Package/GNUARM/bin/../lib/gcc/arm-elf/4.3.2/../../../../arm-elf/lib/libc.a(lib_a-ctype_.o)
 .comment       0x0000046e       0x12 /cygdrive/c/Users/Public/Desktop/CmpE146Package/GNUARM/bin/../lib/gcc/arm-elf/4.3.2/../../../../arm-elf/lib/libc.a(lib_a-dtoa.o)
 .comment       0x00000480       0x12 /cygdrive/c/Users/Public/Desktop/CmpE146Package/GNUARM/bin/../lib/gcc/arm-elf/4.3.2/../../../../arm-elf/lib/libc.a(lib_a-fflush.o)
 .comment       0x00000492       0x12 /cygdrive/c/Users/Public/Desktop/CmpE146Package/GNUARM/bin/../lib/gcc/arm-elf/4.3.2/../../../../arm-elf/lib/libc.a(lib_a-findfp.o)
 .comment       0x000004a4       0x12 /cygdrive/c/Users/Public/Desktop/CmpE146Package/GNUARM/bin/../lib/gcc/arm-elf/4.3.2/../../../../arm-elf/lib/libc.a(lib_a-freer.o)
 .comment       0x000004b6       0x12 /cygdrive/c/Users/Public/Desktop/CmpE146Package/GNUARM/bin/../lib/gcc/arm-elf/4.3.2/../../../../arm-elf/lib/libc.a(lib_a-fvwrite.o)
 .comment       0x000004c8       0x12 /cygdrive/c/Users/Public/Desktop/CmpE146Package/GNUARM/bin/../lib/gcc/arm-elf/4.3.2/../../../../arm-elf/lib/libc.a(lib_a-fwalk.o)
 .comment       0x000004da       0x12 /cygdrive/c/Users/Public/Desktop/CmpE146Package/GNUARM/bin/../lib/gcc/arm-elf/4.3.2/../../../../arm-elf/lib/libc.a(lib_a-gdtoa-gethex.o)
 .comment       0x000004ec       0x12 /cygdrive/c/Users/Public/Desktop/CmpE146Package/GNUARM/bin/../lib/gcc/arm-elf/4.3.2/../../../../arm-elf/lib/libc.a(lib_a-gdtoa-hexnan.o)
 .comment       0x000004fe       0x12 /cygdrive/c/Users/Public/Desktop/CmpE146Package/GNUARM/bin/../lib/gcc/arm-elf/4.3.2/../../../../arm-elf/lib/libc.a(lib_a-impure.o)
 .comment       0x00000510       0x12 /cygdrive/c/Users/Public/Desktop/CmpE146Package/GNUARM/bin/../lib/gcc/arm-elf/4.3.2/../../../../arm-elf/lib/libc.a(lib_a-locale.o)
 .comment       0x00000522       0x12 /cygdrive/c/Users/Public/Desktop/CmpE146Package/GNUARM/bin/../lib/gcc/arm-elf/4.3.2/../../../../arm-elf/lib/libc.a(lib_a-makebuf.o)
 .comment       0x00000534       0x12 /cygdrive/c/Users/Public/Desktop/CmpE146Package/GNUARM/bin/../lib/gcc/arm-elf/4.3.2/../../../../arm-elf/lib/libc.a(lib_a-memchr.o)
 .comment       0x00000546       0x12 /cygdrive/c/Users/Public/Desktop/CmpE146Package/GNUARM/bin/../lib/gcc/arm-elf/4.3.2/../../../../arm-elf/lib/libc.a(lib_a-mprec.o)
 .comment       0x00000558       0x12 /cygdrive/c/Users/Public/Desktop/CmpE146Package/GNUARM/bin/../lib/gcc/arm-elf/4.3.2/../../../../arm-elf/lib/libc.a(lib_a-s_isinfd.o)
 .comment       0x0000056a       0x12 /cygdrive/c/Users/Public/Desktop/CmpE146Package/GNUARM/bin/../lib/gcc/arm-elf/4.3.2/../../../../arm-elf/lib/libc.a(lib_a-s_isnand.o)
 .comment       0x0000057c       0x12 /cygdrive/c/Users/Public/Desktop/CmpE146Package/GNUARM/bin/../lib/gcc/arm-elf/4.3.2/../../../../arm-elf/lib/libc.a(lib_a-sf_nan.o)
 .comment       0x0000058e       0x12 /cygdrive/c/Users/Public/Desktop/CmpE146Package/GNUARM/bin/../lib/gcc/arm-elf/4.3.2/../../../../arm-elf/lib/libc.a(lib_a-stdio.o)
 .comment       0x000005a0       0x12 /cygdrive/c/Users/Public/Desktop/CmpE146Package/GNUARM/bin/../lib/gcc/arm-elf/4.3.2/../../../../arm-elf/lib/libc.a(lib_a-syscalls.o)
 .comment       0x000005b2       0x12 /cygdrive/c/Users/Public/Desktop/CmpE146Package/GNUARM/bin/../lib/gcc/arm-elf/4.3.2/../../../../arm-elf/lib/libc.a(lib_a-callocr.o)
 .comment       0x000005c4       0x12 /cygdrive/c/Users/Public/Desktop/CmpE146Package/GNUARM/bin/../lib/gcc/arm-elf/4.3.2/../../../../arm-elf/lib/libc.a(lib_a-errno.o)
 .comment       0x000005d6       0x12 /cygdrive/c/Users/Public/Desktop/CmpE146Package/GNUARM/bin/../lib/gcc/arm-elf/4.3.2/../../../../arm-elf/lib/libc.a(lib_a-fclose.o)

.ARM.attributes
                0x00000000       0x10
 .ARM.attributes
                0x00000000       0x10 ./main.o
 .ARM.attributes
                0x00000010       0x10 ./utils/src/rprintf.o
 .ARM.attributes
                0x00000020       0x10 ./utils/src/timer.o
 .ARM.attributes
                0x00000030       0x10 ./utils/cString.o
 .ARM.attributes
                0x00000040       0x10 ./fat/diskio.o
 .ARM.attributes
                0x00000050       0x10 ./fat/ff.o
 .ARM.attributes
                0x00000060       0x10 ./fat/rtc.o
 .ARM.attributes
                0x00000070       0x10 ./fat/option/ccsbcs.o
 .ARM.attributes
                0x00000080       0x10 ./fat/option/reentrant.o
 .ARM.attributes
                0x00000090       0x10 ./drivers/i2c.o
 .ARM.attributes
                0x000000a0       0x10 ./drivers/pcm1774.o
 .ARM.attributes
                0x000000b0       0x10 ./drivers/ssp_spi.o
 .ARM.attributes
                0x000000c0       0x10 ./drivers/sta013.o
 .ARM.attributes
                0x000000d0       0x10 ./drivers/uart0.o
 .ARM.attributes
                0x000000e0       0x10 ./drivers/watchdog.o
 .ARM.attributes
                0x000000f0       0x10 ./System/cppmem.o
 .ARM.attributes
                0x00000100       0x10 ./System/cpu.o
 .ARM.attributes
                0x00000110       0x10 ./System/syscalls.o
 .ARM.attributes
                0x00000120       0x10 ./System/startup/Arm7CStartup.o
 .ARM.attributes
                0x00000130       0x10 ./System/startup/Lpc2000ExceptionVectors.o
 .ARM.attributes
                0x00000140       0x10 ./System/startup/exceptionHandlers.o
 .ARM.attributes
                0x00000150       0x10 ./MP3/button.o
 .ARM.attributes
                0x00000160       0x10 ./MP3/control.o
 .ARM.attributes
                0x00000170       0x10 ./MP3/mp3.o
 .ARM.attributes
                0x00000180       0x10 ./General/userInterface.o
 .ARM.attributes
                0x00000190       0x10 ./FreeRTOS/src/croutine.o
 .ARM.attributes
                0x000001a0       0x10 ./FreeRTOS/src/list.o
 .ARM.attributes
                0x000001b0       0x10 ./FreeRTOS/src/port.o
 .ARM.attributes
                0x000001c0       0x10 ./FreeRTOS/src/portISR.o
 .ARM.attributes
                0x000001d0       0x10 ./FreeRTOS/src/queue.o
 .ARM.attributes
                0x000001e0       0x10 ./FreeRTOS/src/tasks.o
 .ARM.attributes
                0x000001f0       0x10 ./FreeRTOS/src/timers.o
 .ARM.attributes
                0x00000200       0x10 ./FreeRTOS/mem/heap_3.o
 .ARM.attributes
                0x00000210       0x10 ./FreeRTOS/hooks/hooks.o
 .ARM.attributes
                0x00000220       0x10 /cygdrive/c/Users/Public/Desktop/CmpE146Package/GNUARM/bin/../lib/gcc/arm-elf/4.3.2/libgcc.a(_udivsi3.o)
 .ARM.attributes
                0x00000230       0x10 /cygdrive/c/Users/Public/Desktop/CmpE146Package/GNUARM/bin/../lib/gcc/arm-elf/4.3.2/libgcc.a(_divsi3.o)
 .ARM.attributes
                0x00000240       0x10 /cygdrive/c/Users/Public/Desktop/CmpE146Package/GNUARM/bin/../lib/gcc/arm-elf/4.3.2/libgcc.a(_umodsi3.o)
 .ARM.attributes
                0x00000250       0x10 /cygdrive/c/Users/Public/Desktop/CmpE146Package/GNUARM/bin/../lib/gcc/arm-elf/4.3.2/libgcc.a(_dvmd_tls.o)
 .ARM.attributes
                0x00000260       0x10 /cygdrive/c/Users/Public/Desktop/CmpE146Package/GNUARM/bin/../lib/gcc/arm-elf/4.3.2/libgcc.a(_addsubdf3.o)
 .ARM.attributes
                0x00000270       0x10 /cygdrive/c/Users/Public/Desktop/CmpE146Package/GNUARM/bin/../lib/gcc/arm-elf/4.3.2/libgcc.a(_truncdfsf2.o)
 .ARM.attributes
                0x00000280       0x10 /cygdrive/c/Users/Public/Desktop/CmpE146Package/GNUARM/bin/../lib/gcc/arm-elf/4.3.2/libgcc.a(_addsubsf3.o)
 .ARM.attributes
                0x00000290       0x10 /cygdrive/c/Users/Public/Desktop/CmpE146Package/GNUARM/bin/../lib/gcc/arm-elf/4.3.2/../../../../arm-elf/lib/libc.a(lib_a-atof.o)
 .ARM.attributes
                0x000002a0       0x10 /cygdrive/c/Users/Public/Desktop/CmpE146Package/GNUARM/bin/../lib/gcc/arm-elf/4.3.2/../../../../arm-elf/lib/libc.a(lib_a-atoi.o)
 .ARM.attributes
                0x000002b0       0x10 /cygdrive/c/Users/Public/Desktop/CmpE146Package/GNUARM/bin/../lib/gcc/arm-elf/4.3.2/../../../../arm-elf/lib/libc.a(lib_a-iprintf.o)
 .ARM.attributes
                0x000002c0       0x10 /cygdrive/c/Users/Public/Desktop/CmpE146Package/GNUARM/bin/../lib/gcc/arm-elf/4.3.2/../../../../arm-elf/lib/libc.a(lib_a-malloc.o)
 .ARM.attributes
                0x000002d0       0x10 /cygdrive/c/Users/Public/Desktop/CmpE146Package/GNUARM/bin/../lib/gcc/arm-elf/4.3.2/../../../../arm-elf/lib/libc.a(lib_a-mallocr.o)
 .ARM.attributes
                0x000002e0       0x10 /cygdrive/c/Users/Public/Desktop/CmpE146Package/GNUARM/bin/../lib/gcc/arm-elf/4.3.2/../../../../arm-elf/lib/libc.a(lib_a-memcmp.o)
 .ARM.attributes
                0x000002f0       0x10 /cygdrive/c/Users/Public/Desktop/CmpE146Package/GNUARM/bin/../lib/gcc/arm-elf/4.3.2/../../../../arm-elf/lib/libc.a(lib_a-memcpy.o)
 .ARM.attributes
                0x00000300       0x10 /cygdrive/c/Users/Public/Desktop/CmpE146Package/GNUARM/bin/../lib/gcc/arm-elf/4.3.2/../../../../arm-elf/lib/libc.a(lib_a-memmove.o)
 .ARM.attributes
                0x00000310       0x10 /cygdrive/c/Users/Public/Desktop/CmpE146Package/GNUARM/bin/../lib/gcc/arm-elf/4.3.2/../../../../arm-elf/lib/libc.a(lib_a-memset.o)
 .ARM.attributes
                0x00000320       0x10 /cygdrive/c/Users/Public/Desktop/CmpE146Package/GNUARM/bin/../lib/gcc/arm-elf/4.3.2/../../../../arm-elf/lib/libc.a(lib_a-mlock.o)
 .ARM.attributes
                0x00000330       0x10 /cygdrive/c/Users/Public/Desktop/CmpE146Package/GNUARM/bin/../lib/gcc/arm-elf/4.3.2/../../../../arm-elf/lib/libc.a(lib_a-realloc.o)
 .ARM.attributes
                0x00000340       0x10 /cygdrive/c/Users/Public/Desktop/CmpE146Package/GNUARM/bin/../lib/gcc/arm-elf/4.3.2/../../../../arm-elf/lib/libc.a(lib_a-reallocr.o)
 .ARM.attributes
                0x00000350       0x10 /cygdrive/c/Users/Public/Desktop/CmpE146Package/GNUARM/bin/../lib/gcc/arm-elf/4.3.2/../../../../arm-elf/lib/libc.a(lib_a-siprintf.o)
 .ARM.attributes
                0x00000360       0x10 /cygdrive/c/Users/Public/Desktop/CmpE146Package/GNUARM/bin/../lib/gcc/arm-elf/4.3.2/../../../../arm-elf/lib/libc.a(lib_a-sprintf.o)
 .ARM.attributes
                0x00000370       0x10 /cygdrive/c/Users/Public/Desktop/CmpE146Package/GNUARM/bin/../lib/gcc/arm-elf/4.3.2/../../../../arm-elf/lib/libc.a(lib_a-strcat.o)
 .ARM.attributes
                0x00000380       0x10 /cygdrive/c/Users/Public/Desktop/CmpE146Package/GNUARM/bin/../lib/gcc/arm-elf/4.3.2/../../../../arm-elf/lib/libc.a(lib_a-strchr.o)
 .ARM.attributes
                0x00000390       0x10 /cygdrive/c/Users/Public/Desktop/CmpE146Package/GNUARM/bin/../lib/gcc/arm-elf/4.3.2/../../../../arm-elf/lib/libc.a(lib_a-strcmp.o)
 .ARM.attributes
                0x000003a0       0x10 /cygdrive/c/Users/Public/Desktop/CmpE146Package/GNUARM/bin/../lib/gcc/arm-elf/4.3.2/../../../../arm-elf/lib/libc.a(lib_a-strcpy.o)
 .ARM.attributes
                0x000003b0       0x10 /cygdrive/c/Users/Public/Desktop/CmpE146Package/GNUARM/bin/../lib/gcc/arm-elf/4.3.2/../../../../arm-elf/lib/libc.a(lib_a-strlen.o)
 .ARM.attributes
                0x000003c0       0x10 /cygdrive/c/Users/Public/Desktop/CmpE146Package/GNUARM/bin/../lib/gcc/arm-elf/4.3.2/../../../../arm-elf/lib/libc.a(lib_a-strncpy.o)
 .ARM.attributes
                0x000003d0       0x10 /cygdrive/c/Users/Public/Desktop/CmpE146Package/GNUARM/bin/../lib/gcc/arm-elf/4.3.2/../../../../arm-elf/lib/libc.a(lib_a-strstr.o)
 .ARM.attributes
                0x000003e0       0x10 /cygdrive/c/Users/Public/Desktop/CmpE146Package/GNUARM/bin/../lib/gcc/arm-elf/4.3.2/../../../../arm-elf/lib/libc.a(lib_a-strtod.o)
 .ARM.attributes
                0x000003f0       0x10 /cygdrive/c/Users/Public/Desktop/CmpE146Package/GNUARM/bin/../lib/gcc/arm-elf/4.3.2/../../../../arm-elf/lib/libc.a(lib_a-strtok.o)
 .ARM.attributes
                0x00000400       0x10 /cygdrive/c/Users/Public/Desktop/CmpE146Package/GNUARM/bin/../lib/gcc/arm-elf/4.3.2/../../../../arm-elf/lib/libc.a(lib_a-strtok_r.o)
 .ARM.attributes
                0x00000410       0x10 /cygdrive/c/Users/Public/Desktop/CmpE146Package/GNUARM/bin/../lib/gcc/arm-elf/4.3.2/../../../../arm-elf/lib/libc.a(lib_a-strtol.o)
 .ARM.attributes
                0x00000420       0x10 /cygdrive/c/Users/Public/Desktop/CmpE146Package/GNUARM/bin/../lib/gcc/arm-elf/4.3.2/../../../../arm-elf/lib/libc.a(lib_a-tolower.o)
 .ARM.attributes
                0x00000430       0x10 /cygdrive/c/Users/Public/Desktop/CmpE146Package/GNUARM/bin/../lib/gcc/arm-elf/4.3.2/../../../../arm-elf/lib/libc.a(lib_a-toupper.o)
 .ARM.attributes
                0x00000440       0x10 /cygdrive/c/Users/Public/Desktop/CmpE146Package/GNUARM/bin/../lib/gcc/arm-elf/4.3.2/../../../../arm-elf/lib/libc.a(lib_a-vfiprintf.o)
 .ARM.attributes
                0x00000450       0x10 /cygdrive/c/Users/Public/Desktop/CmpE146Package/GNUARM/bin/../lib/gcc/arm-elf/4.3.2/../../../../arm-elf/lib/libc.a(lib_a-vfprintf.o)
 .ARM.attributes
                0x00000460       0x10 /cygdrive/c/Users/Public/Desktop/CmpE146Package/GNUARM/bin/../lib/gcc/arm-elf/4.3.2/../../../../arm-elf/lib/libc.a(lib_a-wsetup.o)
 .ARM.attributes
                0x00000470       0x10 /cygdrive/c/Users/Public/Desktop/CmpE146Package/GNUARM/bin/../lib/gcc/arm-elf/4.3.2/../../../../arm-elf/lib/libc.a(lib_a-ctype_.o)
 .ARM.attributes
                0x00000480       0x10 /cygdrive/c/Users/Public/Desktop/CmpE146Package/GNUARM/bin/../lib/gcc/arm-elf/4.3.2/../../../../arm-elf/lib/libc.a(lib_a-dtoa.o)
 .ARM.attributes
                0x00000490       0x10 /cygdrive/c/Users/Public/Desktop/CmpE146Package/GNUARM/bin/../lib/gcc/arm-elf/4.3.2/../../../../arm-elf/lib/libc.a(lib_a-fflush.o)
 .ARM.attributes
                0x000004a0       0x10 /cygdrive/c/Users/Public/Desktop/CmpE146Package/GNUARM/bin/../lib/gcc/arm-elf/4.3.2/../../../../arm-elf/lib/libc.a(lib_a-findfp.o)
 .ARM.attributes
                0x000004b0       0x10 /cygdrive/c/Users/Public/Desktop/CmpE146Package/GNUARM/bin/../lib/gcc/arm-elf/4.3.2/../../../../arm-elf/lib/libc.a(lib_a-freer.o)
 .ARM.attributes
                0x000004c0       0x10 /cygdrive/c/Users/Public/Desktop/CmpE146Package/GNUARM/bin/../lib/gcc/arm-elf/4.3.2/../../../../arm-elf/lib/libc.a(lib_a-fvwrite.o)
 .ARM.attributes
                0x000004d0       0x10 /cygdrive/c/Users/Public/Desktop/CmpE146Package/GNUARM/bin/../lib/gcc/arm-elf/4.3.2/../../../../arm-elf/lib/libc.a(lib_a-fwalk.o)
 .ARM.attributes
                0x000004e0       0x10 /cygdrive/c/Users/Public/Desktop/CmpE146Package/GNUARM/bin/../lib/gcc/arm-elf/4.3.2/../../../../arm-elf/lib/libc.a(lib_a-gdtoa-gethex.o)
 .ARM.attributes
                0x000004f0       0x10 /cygdrive/c/Users/Public/Desktop/CmpE146Package/GNUARM/bin/../lib/gcc/arm-elf/4.3.2/../../../../arm-elf/lib/libc.a(lib_a-gdtoa-hexnan.o)
 .ARM.attributes
                0x00000500       0x10 /cygdrive/c/Users/Public/Desktop/CmpE146Package/GNUARM/bin/../lib/gcc/arm-elf/4.3.2/../../../../arm-elf/lib/libc.a(lib_a-impure.o)
 .ARM.attributes
                0x00000510       0x10 /cygdrive/c/Users/Public/Desktop/CmpE146Package/GNUARM/bin/../lib/gcc/arm-elf/4.3.2/../../../../arm-elf/lib/libc.a(lib_a-locale.o)
 .ARM.attributes
                0x00000520       0x10 /cygdrive/c/Users/Public/Desktop/CmpE146Package/GNUARM/bin/../lib/gcc/arm-elf/4.3.2/../../../../arm-elf/lib/libc.a(lib_a-makebuf.o)
 .ARM.attributes
                0x00000530       0x10 /cygdrive/c/Users/Public/Desktop/CmpE146Package/GNUARM/bin/../lib/gcc/arm-elf/4.3.2/../../../../arm-elf/lib/libc.a(lib_a-memchr.o)
 .ARM.attributes
                0x00000540       0x10 /cygdrive/c/Users/Public/Desktop/CmpE146Package/GNUARM/bin/../lib/gcc/arm-elf/4.3.2/../../../../arm-elf/lib/libc.a(lib_a-mprec.o)
 .ARM.attributes
                0x00000550       0x10 /cygdrive/c/Users/Public/Desktop/CmpE146Package/GNUARM/bin/../lib/gcc/arm-elf/4.3.2/../../../../arm-elf/lib/libc.a(lib_a-s_isinfd.o)
 .ARM.attributes
                0x00000560       0x10 /cygdrive/c/Users/Public/Desktop/CmpE146Package/GNUARM/bin/../lib/gcc/arm-elf/4.3.2/../../../../arm-elf/lib/libc.a(lib_a-s_isnand.o)
 .ARM.attributes
                0x00000570       0x10 /cygdrive/c/Users/Public/Desktop/CmpE146Package/GNUARM/bin/../lib/gcc/arm-elf/4.3.2/../../../../arm-elf/lib/libc.a(lib_a-sf_nan.o)
 .ARM.attributes
                0x00000580       0x10 /cygdrive/c/Users/Public/Desktop/CmpE146Package/GNUARM/bin/../lib/gcc/arm-elf/4.3.2/../../../../arm-elf/lib/libc.a(lib_a-stdio.o)
 .ARM.attributes
                0x00000590       0x10 /cygdrive/c/Users/Public/Desktop/CmpE146Package/GNUARM/bin/../lib/gcc/arm-elf/4.3.2/../../../../arm-elf/lib/libc.a(lib_a-syscalls.o)
 .ARM.attributes
                0x000005a0       0x10 /cygdrive/c/Users/Public/Desktop/CmpE146Package/GNUARM/bin/../lib/gcc/arm-elf/4.3.2/../../../../arm-elf/lib/libc.a(lib_a-callocr.o)
 .ARM.attributes
                0x000005b0       0x10 /cygdrive/c/Users/Public/Desktop/CmpE146Package/GNUARM/bin/../lib/gcc/arm-elf/4.3.2/../../../../arm-elf/lib/libc.a(lib_a-errno.o)
 .ARM.attributes
                0x000005c0       0x10 /cygdrive/c/Users/Public/Desktop/CmpE146Package/GNUARM/bin/../lib/gcc/arm-elf/4.3.2/../../../../arm-elf/lib/libc.a(lib_a-fclose.o)
 .ARM.attributes
                0x000005d0       0x10 /cygdrive/c/Users/Public/Desktop/CmpE146Package/GNUARM/bin/../lib/gcc/arm-elf/4.3.2/libgcc.a(_muldivdf3.o)
 .ARM.attributes
                0x000005e0       0x10 /cygdrive/c/Users/Public/Desktop/CmpE146Package/GNUARM/bin/../lib/gcc/arm-elf/4.3.2/libgcc.a(_cmpdf2.o)
 .ARM.attributes
                0x000005f0       0x10 /cygdrive/c/Users/Public/Desktop/CmpE146Package/GNUARM/bin/../lib/gcc/arm-elf/4.3.2/libgcc.a(_fixdfsi.o)
 .ARM.attributes
                0x00000600       0x10 /cygdrive/c/Users/Public/Desktop/CmpE146Package/GNUARM/bin/../lib/gcc/arm-elf/4.3.2/libgcc.a(_fixunsdfsi.o)

.debug_frame    0x00000000     0x1138
 .debug_frame   0x00000000       0x28 /cygdrive/c/Users/Public/Desktop/CmpE146Package/GNUARM/bin/../lib/gcc/arm-elf/4.3.2/libgcc.a(_udivsi3.o)
 .debug_frame   0x00000028       0x28 /cygdrive/c/Users/Public/Desktop/CmpE146Package/GNUARM/bin/../lib/gcc/arm-elf/4.3.2/libgcc.a(_divsi3.o)
 .debug_frame   0x00000050       0x28 /cygdrive/c/Users/Public/Desktop/CmpE146Package/GNUARM/bin/../lib/gcc/arm-elf/4.3.2/libgcc.a(_umodsi3.o)
 .debug_frame   0x00000078       0x20 /cygdrive/c/Users/Public/Desktop/CmpE146Package/GNUARM/bin/../lib/gcc/arm-elf/4.3.2/../../../../arm-elf/lib/libc.a(lib_a-atof.o)
 .debug_frame   0x00000098       0x30 /cygdrive/c/Users/Public/Desktop/CmpE146Package/GNUARM/bin/../lib/gcc/arm-elf/4.3.2/../../../../arm-elf/lib/libc.a(lib_a-atoi.o)
 .debug_frame   0x000000c8       0x50 /cygdrive/c/Users/Public/Desktop/CmpE146Package/GNUARM/bin/../lib/gcc/arm-elf/4.3.2/../../../../arm-elf/lib/libc.a(lib_a-iprintf.o)
 .debug_frame   0x00000118       0x30 /cygdrive/c/Users/Public/Desktop/CmpE146Package/GNUARM/bin/../lib/gcc/arm-elf/4.3.2/../../../../arm-elf/lib/libc.a(lib_a-malloc.o)
 .debug_frame   0x00000148       0x38 /cygdrive/c/Users/Public/Desktop/CmpE146Package/GNUARM/bin/../lib/gcc/arm-elf/4.3.2/../../../../arm-elf/lib/libc.a(lib_a-mallocr.o)
 .debug_frame   0x00000180       0x2c /cygdrive/c/Users/Public/Desktop/CmpE146Package/GNUARM/bin/../lib/gcc/arm-elf/4.3.2/../../../../arm-elf/lib/libc.a(lib_a-memcmp.o)
 .debug_frame   0x000001ac       0x2c /cygdrive/c/Users/Public/Desktop/CmpE146Package/GNUARM/bin/../lib/gcc/arm-elf/4.3.2/../../../../arm-elf/lib/libc.a(lib_a-memcpy.o)
 .debug_frame   0x000001d8       0x2c /cygdrive/c/Users/Public/Desktop/CmpE146Package/GNUARM/bin/../lib/gcc/arm-elf/4.3.2/../../../../arm-elf/lib/libc.a(lib_a-memmove.o)
 .debug_frame   0x00000204       0x28 /cygdrive/c/Users/Public/Desktop/CmpE146Package/GNUARM/bin/../lib/gcc/arm-elf/4.3.2/../../../../arm-elf/lib/libc.a(lib_a-memset.o)
 .debug_frame   0x0000022c       0x30 /cygdrive/c/Users/Public/Desktop/CmpE146Package/GNUARM/bin/../lib/gcc/arm-elf/4.3.2/../../../../arm-elf/lib/libc.a(lib_a-mlock.o)
 .debug_frame   0x0000025c       0x20 /cygdrive/c/Users/Public/Desktop/CmpE146Package/GNUARM/bin/../lib/gcc/arm-elf/4.3.2/../../../../arm-elf/lib/libc.a(lib_a-realloc.o)
 .debug_frame   0x0000027c       0x38 /cygdrive/c/Users/Public/Desktop/CmpE146Package/GNUARM/bin/../lib/gcc/arm-elf/4.3.2/../../../../arm-elf/lib/libc.a(lib_a-reallocr.o)
 .debug_frame   0x000002b4       0x58 /cygdrive/c/Users/Public/Desktop/CmpE146Package/GNUARM/bin/../lib/gcc/arm-elf/4.3.2/../../../../arm-elf/lib/libc.a(lib_a-siprintf.o)
 .debug_frame   0x0000030c       0x58 /cygdrive/c/Users/Public/Desktop/CmpE146Package/GNUARM/bin/../lib/gcc/arm-elf/4.3.2/../../../../arm-elf/lib/libc.a(lib_a-sprintf.o)
 .debug_frame   0x00000364       0x28 /cygdrive/c/Users/Public/Desktop/CmpE146Package/GNUARM/bin/../lib/gcc/arm-elf/4.3.2/../../../../arm-elf/lib/libc.a(lib_a-strcat.o)
 .debug_frame   0x0000038c       0x28 /cygdrive/c/Users/Public/Desktop/CmpE146Package/GNUARM/bin/../lib/gcc/arm-elf/4.3.2/../../../../arm-elf/lib/libc.a(lib_a-strchr.o)
 .debug_frame   0x000003b4       0x20 /cygdrive/c/Users/Public/Desktop/CmpE146Package/GNUARM/bin/../lib/gcc/arm-elf/4.3.2/../../../../arm-elf/lib/libc.a(lib_a-strcmp.o)
 .debug_frame   0x000003d4       0x28 /cygdrive/c/Users/Public/Desktop/CmpE146Package/GNUARM/bin/../lib/gcc/arm-elf/4.3.2/../../../../arm-elf/lib/libc.a(lib_a-strcpy.o)
 .debug_frame   0x000003fc       0x20 /cygdrive/c/Users/Public/Desktop/CmpE146Package/GNUARM/bin/../lib/gcc/arm-elf/4.3.2/../../../../arm-elf/lib/libc.a(lib_a-strlen.o)
 .debug_frame   0x0000041c       0x28 /cygdrive/c/Users/Public/Desktop/CmpE146Package/GNUARM/bin/../lib/gcc/arm-elf/4.3.2/../../../../arm-elf/lib/libc.a(lib_a-strncpy.o)
 .debug_frame   0x00000444       0x20 /cygdrive/c/Users/Public/Desktop/CmpE146Package/GNUARM/bin/../lib/gcc/arm-elf/4.3.2/../../../../arm-elf/lib/libc.a(lib_a-strstr.o)
 .debug_frame   0x00000464       0x68 /cygdrive/c/Users/Public/Desktop/CmpE146Package/GNUARM/bin/../lib/gcc/arm-elf/4.3.2/../../../../arm-elf/lib/libc.a(lib_a-strtod.o)
 .debug_frame   0x000004cc       0x20 /cygdrive/c/Users/Public/Desktop/CmpE146Package/GNUARM/bin/../lib/gcc/arm-elf/4.3.2/../../../../arm-elf/lib/libc.a(lib_a-strtok.o)
 .debug_frame   0x000004ec       0x3c /cygdrive/c/Users/Public/Desktop/CmpE146Package/GNUARM/bin/../lib/gcc/arm-elf/4.3.2/../../../../arm-elf/lib/libc.a(lib_a-strtok_r.o)
 .debug_frame   0x00000528       0x50 /cygdrive/c/Users/Public/Desktop/CmpE146Package/GNUARM/bin/../lib/gcc/arm-elf/4.3.2/../../../../arm-elf/lib/libc.a(lib_a-strtol.o)
 .debug_frame   0x00000578       0x20 /cygdrive/c/Users/Public/Desktop/CmpE146Package/GNUARM/bin/../lib/gcc/arm-elf/4.3.2/../../../../arm-elf/lib/libc.a(lib_a-tolower.o)
 .debug_frame   0x00000598       0x20 /cygdrive/c/Users/Public/Desktop/CmpE146Package/GNUARM/bin/../lib/gcc/arm-elf/4.3.2/../../../../arm-elf/lib/libc.a(lib_a-toupper.o)
 .debug_frame   0x000005b8       0x6c /cygdrive/c/Users/Public/Desktop/CmpE146Package/GNUARM/bin/../lib/gcc/arm-elf/4.3.2/../../../../arm-elf/lib/libc.a(lib_a-vfiprintf.o)
 .debug_frame   0x00000624       0x70 /cygdrive/c/Users/Public/Desktop/CmpE146Package/GNUARM/bin/../lib/gcc/arm-elf/4.3.2/../../../../arm-elf/lib/libc.a(lib_a-vfprintf.o)
 .debug_frame   0x00000694       0x2c /cygdrive/c/Users/Public/Desktop/CmpE146Package/GNUARM/bin/../lib/gcc/arm-elf/4.3.2/../../../../arm-elf/lib/libc.a(lib_a-wsetup.o)
 .debug_frame   0x000006c0       0x64 /cygdrive/c/Users/Public/Desktop/CmpE146Package/GNUARM/bin/../lib/gcc/arm-elf/4.3.2/../../../../arm-elf/lib/libc.a(lib_a-dtoa.o)
 .debug_frame   0x00000724       0x40 /cygdrive/c/Users/Public/Desktop/CmpE146Package/GNUARM/bin/../lib/gcc/arm-elf/4.3.2/../../../../arm-elf/lib/libc.a(lib_a-fflush.o)
 .debug_frame   0x00000764      0x10c /cygdrive/c/Users/Public/Desktop/CmpE146Package/GNUARM/bin/../lib/gcc/arm-elf/4.3.2/../../../../arm-elf/lib/libc.a(lib_a-findfp.o)
 .debug_frame   0x00000870       0x50 /cygdrive/c/Users/Public/Desktop/CmpE146Package/GNUARM/bin/../lib/gcc/arm-elf/4.3.2/../../../../arm-elf/lib/libc.a(lib_a-freer.o)
 .debug_frame   0x000008c0       0x38 /cygdrive/c/Users/Public/Desktop/CmpE146Package/GNUARM/bin/../lib/gcc/arm-elf/4.3.2/../../../../arm-elf/lib/libc.a(lib_a-fvwrite.o)
 .debug_frame   0x000008f8       0x58 /cygdrive/c/Users/Public/Desktop/CmpE146Package/GNUARM/bin/../lib/gcc/arm-elf/4.3.2/../../../../arm-elf/lib/libc.a(lib_a-fwalk.o)
 .debug_frame   0x00000950       0x68 /cygdrive/c/Users/Public/Desktop/CmpE146Package/GNUARM/bin/../lib/gcc/arm-elf/4.3.2/../../../../arm-elf/lib/libc.a(lib_a-gdtoa-gethex.o)
 .debug_frame   0x000009b8       0x38 /cygdrive/c/Users/Public/Desktop/CmpE146Package/GNUARM/bin/../lib/gcc/arm-elf/4.3.2/../../../../arm-elf/lib/libc.a(lib_a-gdtoa-hexnan.o)
 .debug_frame   0x000009f0       0x6c /cygdrive/c/Users/Public/Desktop/CmpE146Package/GNUARM/bin/../lib/gcc/arm-elf/4.3.2/../../../../arm-elf/lib/libc.a(lib_a-locale.o)
 .debug_frame   0x00000a5c       0x30 /cygdrive/c/Users/Public/Desktop/CmpE146Package/GNUARM/bin/../lib/gcc/arm-elf/4.3.2/../../../../arm-elf/lib/libc.a(lib_a-makebuf.o)
 .debug_frame   0x00000a8c       0x28 /cygdrive/c/Users/Public/Desktop/CmpE146Package/GNUARM/bin/../lib/gcc/arm-elf/4.3.2/../../../../arm-elf/lib/libc.a(lib_a-memchr.o)
 .debug_frame   0x00000ab4      0x228 /cygdrive/c/Users/Public/Desktop/CmpE146Package/GNUARM/bin/../lib/gcc/arm-elf/4.3.2/../../../../arm-elf/lib/libc.a(lib_a-mprec.o)
 .debug_frame   0x00000cdc       0x28 /cygdrive/c/Users/Public/Desktop/CmpE146Package/GNUARM/bin/../lib/gcc/arm-elf/4.3.2/../../../../arm-elf/lib/libc.a(lib_a-s_isinfd.o)
 .debug_frame   0x00000d04       0x28 /cygdrive/c/Users/Public/Desktop/CmpE146Package/GNUARM/bin/../lib/gcc/arm-elf/4.3.2/../../../../arm-elf/lib/libc.a(lib_a-s_isnand.o)
 .debug_frame   0x00000d2c       0x20 /cygdrive/c/Users/Public/Desktop/CmpE146Package/GNUARM/bin/../lib/gcc/arm-elf/4.3.2/../../../../arm-elf/lib/libc.a(lib_a-sf_nan.o)
 .debug_frame   0x00000d4c       0x70 /cygdrive/c/Users/Public/Desktop/CmpE146Package/GNUARM/bin/../lib/gcc/arm-elf/4.3.2/../../../../arm-elf/lib/libc.a(lib_a-stdio.o)
 .debug_frame   0x00000dbc      0x2f8 /cygdrive/c/Users/Public/Desktop/CmpE146Package/GNUARM/bin/../lib/gcc/arm-elf/4.3.2/../../../../arm-elf/lib/libc.a(lib_a-syscalls.o)
 .debug_frame   0x000010b4       0x28 /cygdrive/c/Users/Public/Desktop/CmpE146Package/GNUARM/bin/../lib/gcc/arm-elf/4.3.2/../../../../arm-elf/lib/libc.a(lib_a-callocr.o)
 .debug_frame   0x000010dc       0x20 /cygdrive/c/Users/Public/Desktop/CmpE146Package/GNUARM/bin/../lib/gcc/arm-elf/4.3.2/../../../../arm-elf/lib/libc.a(lib_a-errno.o)
 .debug_frame   0x000010fc       0x3c /cygdrive/c/Users/Public/Desktop/CmpE146Package/GNUARM/bin/../lib/gcc/arm-elf/4.3.2/../../../../arm-elf/lib/libc.a(lib_a-fclose.o)

.debug_line     0x00000000     0x5382
 .debug_line    0x00000000       0x96 /cygdrive/c/Users/Public/Desktop/CmpE146Package/GNUARM/bin/../lib/gcc/arm-elf/4.3.2/libgcc.a(_udivsi3.o)
 .debug_line    0x00000096       0xa2 /cygdrive/c/Users/Public/Desktop/CmpE146Package/GNUARM/bin/../lib/gcc/arm-elf/4.3.2/libgcc.a(_divsi3.o)
 .debug_line    0x00000138       0x7f /cygdrive/c/Users/Public/Desktop/CmpE146Package/GNUARM/bin/../lib/gcc/arm-elf/4.3.2/libgcc.a(_umodsi3.o)
 .debug_line    0x000001b7       0x6a /cygdrive/c/Users/Public/Desktop/CmpE146Package/GNUARM/bin/../lib/gcc/arm-elf/4.3.2/libgcc.a(_dvmd_tls.o)
 .debug_line    0x00000221      0x1f5 /cygdrive/c/Users/Public/Desktop/CmpE146Package/GNUARM/bin/../lib/gcc/arm-elf/4.3.2/libgcc.a(_addsubdf3.o)
 .debug_line    0x00000416       0x90 /cygdrive/c/Users/Public/Desktop/CmpE146Package/GNUARM/bin/../lib/gcc/arm-elf/4.3.2/libgcc.a(_truncdfsf2.o)
 .debug_line    0x000004a6      0x120 /cygdrive/c/Users/Public/Desktop/CmpE146Package/GNUARM/bin/../lib/gcc/arm-elf/4.3.2/libgcc.a(_addsubsf3.o)
 .debug_line    0x000005c6       0x6a /cygdrive/c/Users/Public/Desktop/CmpE146Package/GNUARM/bin/../lib/gcc/arm-elf/4.3.2/../../../../arm-elf/lib/libc.a(lib_a-atof.o)
 .debug_line    0x00000630       0xf2 /cygdrive/c/Users/Public/Desktop/CmpE146Package/GNUARM/bin/../lib/gcc/arm-elf/4.3.2/../../../../arm-elf/lib/libc.a(lib_a-atoi.o)
 .debug_line    0x00000722       0xfe /cygdrive/c/Users/Public/Desktop/CmpE146Package/GNUARM/bin/../lib/gcc/arm-elf/4.3.2/../../../../arm-elf/lib/libc.a(lib_a-iprintf.o)
 .debug_line    0x00000820       0xf8 /cygdrive/c/Users/Public/Desktop/CmpE146Package/GNUARM/bin/../lib/gcc/arm-elf/4.3.2/../../../../arm-elf/lib/libc.a(lib_a-malloc.o)
 .debug_line    0x00000918      0x227 /cygdrive/c/Users/Public/Desktop/CmpE146Package/GNUARM/bin/../lib/gcc/arm-elf/4.3.2/../../../../arm-elf/lib/libc.a(lib_a-mallocr.o)
 .debug_line    0x00000b3f       0xc3 /cygdrive/c/Users/Public/Desktop/CmpE146Package/GNUARM/bin/../lib/gcc/arm-elf/4.3.2/../../../../arm-elf/lib/libc.a(lib_a-memcmp.o)
 .debug_line    0x00000c02       0xda /cygdrive/c/Users/Public/Desktop/CmpE146Package/GNUARM/bin/../lib/gcc/arm-elf/4.3.2/../../../../arm-elf/lib/libc.a(lib_a-memcpy.o)
 .debug_line    0x00000cdc       0xe9 /cygdrive/c/Users/Public/Desktop/CmpE146Package/GNUARM/bin/../lib/gcc/arm-elf/4.3.2/../../../../arm-elf/lib/libc.a(lib_a-memmove.o)
 .debug_line    0x00000dc5       0xe1 /cygdrive/c/Users/Public/Desktop/CmpE146Package/GNUARM/bin/../lib/gcc/arm-elf/4.3.2/../../../../arm-elf/lib/libc.a(lib_a-memset.o)
 .debug_line    0x00000ea6       0xec /cygdrive/c/Users/Public/Desktop/CmpE146Package/GNUARM/bin/../lib/gcc/arm-elf/4.3.2/../../../../arm-elf/lib/libc.a(lib_a-mlock.o)
 .debug_line    0x00000f92       0xf1 /cygdrive/c/Users/Public/Desktop/CmpE146Package/GNUARM/bin/../lib/gcc/arm-elf/4.3.2/../../../../arm-elf/lib/libc.a(lib_a-realloc.o)
 .debug_line    0x00001083      0x19c /cygdrive/c/Users/Public/Desktop/CmpE146Package/GNUARM/bin/../lib/gcc/arm-elf/4.3.2/../../../../arm-elf/lib/libc.a(lib_a-reallocr.o)
 .debug_line    0x0000121f      0x15f /cygdrive/c/Users/Public/Desktop/CmpE146Package/GNUARM/bin/../lib/gcc/arm-elf/4.3.2/../../../../arm-elf/lib/libc.a(lib_a-siprintf.o)
 .debug_line    0x0000137e      0x15e /cygdrive/c/Users/Public/Desktop/CmpE146Package/GNUARM/bin/../lib/gcc/arm-elf/4.3.2/../../../../arm-elf/lib/libc.a(lib_a-sprintf.o)
 .debug_line    0x000014dc       0x7d /cygdrive/c/Users/Public/Desktop/CmpE146Package/GNUARM/bin/../lib/gcc/arm-elf/4.3.2/../../../../arm-elf/lib/libc.a(lib_a-strcat.o)
 .debug_line    0x00001559       0x7e /cygdrive/c/Users/Public/Desktop/CmpE146Package/GNUARM/bin/../lib/gcc/arm-elf/4.3.2/../../../../arm-elf/lib/libc.a(lib_a-strchr.o)
 .debug_line    0x000015d7       0x86 /cygdrive/c/Users/Public/Desktop/CmpE146Package/GNUARM/bin/../lib/gcc/arm-elf/4.3.2/../../../../arm-elf/lib/libc.a(lib_a-strcmp.o)
 .debug_line    0x0000165d       0x83 /cygdrive/c/Users/Public/Desktop/CmpE146Package/GNUARM/bin/../lib/gcc/arm-elf/4.3.2/../../../../arm-elf/lib/libc.a(lib_a-strcpy.o)
 .debug_line    0x000016e0       0xac /cygdrive/c/Users/Public/Desktop/CmpE146Package/GNUARM/bin/../lib/gcc/arm-elf/4.3.2/../../../../arm-elf/lib/libc.a(lib_a-strlen.o)
 .debug_line    0x0000178c       0xd3 /cygdrive/c/Users/Public/Desktop/CmpE146Package/GNUARM/bin/../lib/gcc/arm-elf/4.3.2/../../../../arm-elf/lib/libc.a(lib_a-strncpy.o)
 .debug_line    0x0000185f       0xad /cygdrive/c/Users/Public/Desktop/CmpE146Package/GNUARM/bin/../lib/gcc/arm-elf/4.3.2/../../../../arm-elf/lib/libc.a(lib_a-strstr.o)
 .debug_line    0x0000190c      0x483 /cygdrive/c/Users/Public/Desktop/CmpE146Package/GNUARM/bin/../lib/gcc/arm-elf/4.3.2/../../../../arm-elf/lib/libc.a(lib_a-strtod.o)
 .debug_line    0x00001d8f       0xee /cygdrive/c/Users/Public/Desktop/CmpE146Package/GNUARM/bin/../lib/gcc/arm-elf/4.3.2/../../../../arm-elf/lib/libc.a(lib_a-strtok.o)
 .debug_line    0x00001e7d       0x9f /cygdrive/c/Users/Public/Desktop/CmpE146Package/GNUARM/bin/../lib/gcc/arm-elf/4.3.2/../../../../arm-elf/lib/libc.a(lib_a-strtok_r.o)
 .debug_line    0x00001f1c      0x174 /cygdrive/c/Users/Public/Desktop/CmpE146Package/GNUARM/bin/../lib/gcc/arm-elf/4.3.2/../../../../arm-elf/lib/libc.a(lib_a-strtol.o)
 .debug_line    0x00002090       0x9e /cygdrive/c/Users/Public/Desktop/CmpE146Package/GNUARM/bin/../lib/gcc/arm-elf/4.3.2/../../../../arm-elf/lib/libc.a(lib_a-tolower.o)
 .debug_line    0x0000212e       0x9e /cygdrive/c/Users/Public/Desktop/CmpE146Package/GNUARM/bin/../lib/gcc/arm-elf/4.3.2/../../../../arm-elf/lib/libc.a(lib_a-toupper.o)
 .debug_line    0x000021cc      0x382 /cygdrive/c/Users/Public/Desktop/CmpE146Package/GNUARM/bin/../lib/gcc/arm-elf/4.3.2/../../../../arm-elf/lib/libc.a(lib_a-vfiprintf.o)
 .debug_line    0x0000254e      0x539 /cygdrive/c/Users/Public/Desktop/CmpE146Package/GNUARM/bin/../lib/gcc/arm-elf/4.3.2/../../../../arm-elf/lib/libc.a(lib_a-vfprintf.o)
 .debug_line    0x00002a87      0x14a /cygdrive/c/Users/Public/Desktop/CmpE146Package/GNUARM/bin/../lib/gcc/arm-elf/4.3.2/../../../../arm-elf/lib/libc.a(lib_a-wsetup.o)
 .debug_line    0x00002bd1       0x58 /cygdrive/c/Users/Public/Desktop/CmpE146Package/GNUARM/bin/../lib/gcc/arm-elf/4.3.2/../../../../arm-elf/lib/libc.a(lib_a-ctype_.o)
 .debug_line    0x00002c29      0x48c /cygdrive/c/Users/Public/Desktop/CmpE146Package/GNUARM/bin/../lib/gcc/arm-elf/4.3.2/../../../../arm-elf/lib/libc.a(lib_a-dtoa.o)
 .debug_line    0x000030b5      0x18b /cygdrive/c/Users/Public/Desktop/CmpE146Package/GNUARM/bin/../lib/gcc/arm-elf/4.3.2/../../../../arm-elf/lib/libc.a(lib_a-fflush.o)
 .debug_line    0x00003240      0x208 /cygdrive/c/Users/Public/Desktop/CmpE146Package/GNUARM/bin/../lib/gcc/arm-elf/4.3.2/../../../../arm-elf/lib/libc.a(lib_a-findfp.o)
 .debug_line    0x00003448      0x17c /cygdrive/c/Users/Public/Desktop/CmpE146Package/GNUARM/bin/../lib/gcc/arm-elf/4.3.2/../../../../arm-elf/lib/libc.a(lib_a-freer.o)
 .debug_line    0x000035c4      0x1e5 /cygdrive/c/Users/Public/Desktop/CmpE146Package/GNUARM/bin/../lib/gcc/arm-elf/4.3.2/../../../../arm-elf/lib/libc.a(lib_a-fvwrite.o)
 .debug_line    0x000037a9      0x146 /cygdrive/c/Users/Public/Desktop/CmpE146Package/GNUARM/bin/../lib/gcc/arm-elf/4.3.2/../../../../arm-elf/lib/libc.a(lib_a-fwalk.o)
 .debug_line    0x000038ef      0x29c /cygdrive/c/Users/Public/Desktop/CmpE146Package/GNUARM/bin/../lib/gcc/arm-elf/4.3.2/../../../../arm-elf/lib/libc.a(lib_a-gdtoa-gethex.o)
 .debug_line    0x00003b8b      0x120 /cygdrive/c/Users/Public/Desktop/CmpE146Package/GNUARM/bin/../lib/gcc/arm-elf/4.3.2/../../../../arm-elf/lib/libc.a(lib_a-gdtoa-hexnan.o)
 .debug_line    0x00003cab       0xda /cygdrive/c/Users/Public/Desktop/CmpE146Package/GNUARM/bin/../lib/gcc/arm-elf/4.3.2/../../../../arm-elf/lib/libc.a(lib_a-impure.o)
 .debug_line    0x00003d85      0x146 /cygdrive/c/Users/Public/Desktop/CmpE146Package/GNUARM/bin/../lib/gcc/arm-elf/4.3.2/../../../../arm-elf/lib/libc.a(lib_a-locale.o)
 .debug_line    0x00003ecb      0x17a /cygdrive/c/Users/Public/Desktop/CmpE146Package/GNUARM/bin/../lib/gcc/arm-elf/4.3.2/../../../../arm-elf/lib/libc.a(lib_a-makebuf.o)
 .debug_line    0x00004045       0xd9 /cygdrive/c/Users/Public/Desktop/CmpE146Package/GNUARM/bin/../lib/gcc/arm-elf/4.3.2/../../../../arm-elf/lib/libc.a(lib_a-memchr.o)
 .debug_line    0x0000411e      0x455 /cygdrive/c/Users/Public/Desktop/CmpE146Package/GNUARM/bin/../lib/gcc/arm-elf/4.3.2/../../../../arm-elf/lib/libc.a(lib_a-mprec.o)
 .debug_line    0x00004573       0xc1 /cygdrive/c/Users/Public/Desktop/CmpE146Package/GNUARM/bin/../lib/gcc/arm-elf/4.3.2/../../../../arm-elf/lib/libc.a(lib_a-s_isinfd.o)
 .debug_line    0x00004634       0xc1 /cygdrive/c/Users/Public/Desktop/CmpE146Package/GNUARM/bin/../lib/gcc/arm-elf/4.3.2/../../../../arm-elf/lib/libc.a(lib_a-s_isnand.o)
 .debug_line    0x000046f5       0xb9 /cygdrive/c/Users/Public/Desktop/CmpE146Package/GNUARM/bin/../lib/gcc/arm-elf/4.3.2/../../../../arm-elf/lib/libc.a(lib_a-sf_nan.o)
 .debug_line    0x000047ae      0x153 /cygdrive/c/Users/Public/Desktop/CmpE146Package/GNUARM/bin/../lib/gcc/arm-elf/4.3.2/../../../../arm-elf/lib/libc.a(lib_a-stdio.o)
 .debug_line    0x00004901      0x35a /cygdrive/c/Users/Public/Desktop/CmpE146Package/GNUARM/bin/../lib/gcc/arm-elf/4.3.2/../../../../arm-elf/lib/libc.a(lib_a-syscalls.o)
 .debug_line    0x00004c5b       0xf8 /cygdrive/c/Users/Public/Desktop/CmpE146Package/GNUARM/bin/../lib/gcc/arm-elf/4.3.2/../../../../arm-elf/lib/libc.a(lib_a-callocr.o)
 .debug_line    0x00004d53       0xea /cygdrive/c/Users/Public/Desktop/CmpE146Package/GNUARM/bin/../lib/gcc/arm-elf/4.3.2/../../../../arm-elf/lib/libc.a(lib_a-errno.o)
 .debug_line    0x00004e3d      0x147 /cygdrive/c/Users/Public/Desktop/CmpE146Package/GNUARM/bin/../lib/gcc/arm-elf/4.3.2/../../../../arm-elf/lib/libc.a(lib_a-fclose.o)
 .debug_line    0x00004f84      0x206 /cygdrive/c/Users/Public/Desktop/CmpE146Package/GNUARM/bin/../lib/gcc/arm-elf/4.3.2/libgcc.a(_muldivdf3.o)
 .debug_line    0x0000518a       0xfc /cygdrive/c/Users/Public/Desktop/CmpE146Package/GNUARM/bin/../lib/gcc/arm-elf/4.3.2/libgcc.a(_cmpdf2.o)
 .debug_line    0x00005286       0x7f /cygdrive/c/Users/Public/Desktop/CmpE146Package/GNUARM/bin/../lib/gcc/arm-elf/4.3.2/libgcc.a(_fixdfsi.o)
 .debug_line    0x00005305       0x7d /cygdrive/c/Users/Public/Desktop/CmpE146Package/GNUARM/bin/../lib/gcc/arm-elf/4.3.2/libgcc.a(_fixunsdfsi.o)

.debug_info     0x00000000    0x18a27
 .debug_info    0x00000000       0x80 /cygdrive/c/Users/Public/Desktop/CmpE146Package/GNUARM/bin/../lib/gcc/arm-elf/4.3.2/libgcc.a(_udivsi3.o)
 .debug_info    0x00000080       0x80 /cygdrive/c/Users/Public/Desktop/CmpE146Package/GNUARM/bin/../lib/gcc/arm-elf/4.3.2/libgcc.a(_divsi3.o)
 .debug_info    0x00000100       0x80 /cygdrive/c/Users/Public/Desktop/CmpE146Package/GNUARM/bin/../lib/gcc/arm-elf/4.3.2/libgcc.a(_umodsi3.o)
 .debug_info    0x00000180       0x80 /cygdrive/c/Users/Public/Desktop/CmpE146Package/GNUARM/bin/../lib/gcc/arm-elf/4.3.2/libgcc.a(_dvmd_tls.o)
 .debug_info    0x00000200       0x7f /cygdrive/c/Users/Public/Desktop/CmpE146Package/GNUARM/bin/../lib/gcc/arm-elf/4.3.2/libgcc.a(_addsubdf3.o)
 .debug_info    0x0000027f       0x7f /cygdrive/c/Users/Public/Desktop/CmpE146Package/GNUARM/bin/../lib/gcc/arm-elf/4.3.2/libgcc.a(_truncdfsf2.o)
 .debug_info    0x000002fe       0x7f /cygdrive/c/Users/Public/Desktop/CmpE146Package/GNUARM/bin/../lib/gcc/arm-elf/4.3.2/libgcc.a(_addsubsf3.o)
 .debug_info    0x0000037d       0xb1 /cygdrive/c/Users/Public/Desktop/CmpE146Package/GNUARM/bin/../lib/gcc/arm-elf/4.3.2/../../../../arm-elf/lib/libc.a(lib_a-atof.o)
 .debug_info    0x0000042e      0x95c /cygdrive/c/Users/Public/Desktop/CmpE146Package/GNUARM/bin/../lib/gcc/arm-elf/4.3.2/../../../../arm-elf/lib/libc.a(lib_a-atoi.o)
 .debug_info    0x00000d8a      0x9cb /cygdrive/c/Users/Public/Desktop/CmpE146Package/GNUARM/bin/../lib/gcc/arm-elf/4.3.2/../../../../arm-elf/lib/libc.a(lib_a-iprintf.o)
 .debug_info    0x00001755      0x96a /cygdrive/c/Users/Public/Desktop/CmpE146Package/GNUARM/bin/../lib/gcc/arm-elf/4.3.2/../../../../arm-elf/lib/libc.a(lib_a-malloc.o)
 .debug_info    0x000020bf      0xcca /cygdrive/c/Users/Public/Desktop/CmpE146Package/GNUARM/bin/../lib/gcc/arm-elf/4.3.2/../../../../arm-elf/lib/libc.a(lib_a-mallocr.o)
 .debug_info    0x00002d89      0x10f /cygdrive/c/Users/Public/Desktop/CmpE146Package/GNUARM/bin/../lib/gcc/arm-elf/4.3.2/../../../../arm-elf/lib/libc.a(lib_a-memcmp.o)
 .debug_info    0x00002e98      0x10e /cygdrive/c/Users/Public/Desktop/CmpE146Package/GNUARM/bin/../lib/gcc/arm-elf/4.3.2/../../../../arm-elf/lib/libc.a(lib_a-memcpy.o)
 .debug_info    0x00002fa6      0x142 /cygdrive/c/Users/Public/Desktop/CmpE146Package/GNUARM/bin/../lib/gcc/arm-elf/4.3.2/../../../../arm-elf/lib/libc.a(lib_a-memmove.o)
 .debug_info    0x000030e8      0x113 /cygdrive/c/Users/Public/Desktop/CmpE146Package/GNUARM/bin/../lib/gcc/arm-elf/4.3.2/../../../../arm-elf/lib/libc.a(lib_a-memset.o)
 .debug_info    0x000031fb      0x953 /cygdrive/c/Users/Public/Desktop/CmpE146Package/GNUARM/bin/../lib/gcc/arm-elf/4.3.2/../../../../arm-elf/lib/libc.a(lib_a-mlock.o)
 .debug_info    0x00003b4e      0x951 /cygdrive/c/Users/Public/Desktop/CmpE146Package/GNUARM/bin/../lib/gcc/arm-elf/4.3.2/../../../../arm-elf/lib/libc.a(lib_a-realloc.o)
 .debug_info    0x0000449f      0xbb3 /cygdrive/c/Users/Public/Desktop/CmpE146Package/GNUARM/bin/../lib/gcc/arm-elf/4.3.2/../../../../arm-elf/lib/libc.a(lib_a-reallocr.o)
 .debug_info    0x00005052      0x9ff /cygdrive/c/Users/Public/Desktop/CmpE146Package/GNUARM/bin/../lib/gcc/arm-elf/4.3.2/../../../../arm-elf/lib/libc.a(lib_a-siprintf.o)
 .debug_info    0x00005a51      0xa0c /cygdrive/c/Users/Public/Desktop/CmpE146Package/GNUARM/bin/../lib/gcc/arm-elf/4.3.2/../../../../arm-elf/lib/libc.a(lib_a-sprintf.o)
 .debug_info    0x0000645d       0xe9 /cygdrive/c/Users/Public/Desktop/CmpE146Package/GNUARM/bin/../lib/gcc/arm-elf/4.3.2/../../../../arm-elf/lib/libc.a(lib_a-strcat.o)
 .debug_info    0x00006546      0x114 /cygdrive/c/Users/Public/Desktop/CmpE146Package/GNUARM/bin/../lib/gcc/arm-elf/4.3.2/../../../../arm-elf/lib/libc.a(lib_a-strchr.o)
 .debug_info    0x0000665a       0xdb /cygdrive/c/Users/Public/Desktop/CmpE146Package/GNUARM/bin/../lib/gcc/arm-elf/4.3.2/../../../../arm-elf/lib/libc.a(lib_a-strcmp.o)
 .debug_info    0x00006735      0x10e /cygdrive/c/Users/Public/Desktop/CmpE146Package/GNUARM/bin/../lib/gcc/arm-elf/4.3.2/../../../../arm-elf/lib/libc.a(lib_a-strcpy.o)
 .debug_info    0x00006843       0xd7 /cygdrive/c/Users/Public/Desktop/CmpE146Package/GNUARM/bin/../lib/gcc/arm-elf/4.3.2/../../../../arm-elf/lib/libc.a(lib_a-strlen.o)
 .debug_info    0x0000691a      0x12a /cygdrive/c/Users/Public/Desktop/CmpE146Package/GNUARM/bin/../lib/gcc/arm-elf/4.3.2/../../../../arm-elf/lib/libc.a(lib_a-strncpy.o)
 .debug_info    0x00006a44       0xdb /cygdrive/c/Users/Public/Desktop/CmpE146Package/GNUARM/bin/../lib/gcc/arm-elf/4.3.2/../../../../arm-elf/lib/libc.a(lib_a-strstr.o)
 .debug_info    0x00006b1f      0xfe4 /cygdrive/c/Users/Public/Desktop/CmpE146Package/GNUARM/bin/../lib/gcc/arm-elf/4.3.2/../../../../arm-elf/lib/libc.a(lib_a-strtod.o)
 .debug_info    0x00007b03      0x945 /cygdrive/c/Users/Public/Desktop/CmpE146Package/GNUARM/bin/../lib/gcc/arm-elf/4.3.2/../../../../arm-elf/lib/libc.a(lib_a-strtok.o)
 .debug_info    0x00008448      0x164 /cygdrive/c/Users/Public/Desktop/CmpE146Package/GNUARM/bin/../lib/gcc/arm-elf/4.3.2/../../../../arm-elf/lib/libc.a(lib_a-strtok_r.o)
 .debug_info    0x000085ac      0xa24 /cygdrive/c/Users/Public/Desktop/CmpE146Package/GNUARM/bin/../lib/gcc/arm-elf/4.3.2/../../../../arm-elf/lib/libc.a(lib_a-strtol.o)
 .debug_info    0x00008fd0       0x75 /cygdrive/c/Users/Public/Desktop/CmpE146Package/GNUARM/bin/../lib/gcc/arm-elf/4.3.2/../../../../arm-elf/lib/libc.a(lib_a-tolower.o)
 .debug_info    0x00009045       0x75 /cygdrive/c/Users/Public/Desktop/CmpE146Package/GNUARM/bin/../lib/gcc/arm-elf/4.3.2/../../../../arm-elf/lib/libc.a(lib_a-toupper.o)
 .debug_info    0x000090ba      0xde0 /cygdrive/c/Users/Public/Desktop/CmpE146Package/GNUARM/bin/../lib/gcc/arm-elf/4.3.2/../../../../arm-elf/lib/libc.a(lib_a-vfiprintf.o)
 .debug_info    0x00009e9a     0x10c7 /cygdrive/c/Users/Public/Desktop/CmpE146Package/GNUARM/bin/../lib/gcc/arm-elf/4.3.2/../../../../arm-elf/lib/libc.a(lib_a-vfprintf.o)
 .debug_info    0x0000af61      0x959 /cygdrive/c/Users/Public/Desktop/CmpE146Package/GNUARM/bin/../lib/gcc/arm-elf/4.3.2/../../../../arm-elf/lib/libc.a(lib_a-wsetup.o)
 .debug_info    0x0000b8ba       0x75 /cygdrive/c/Users/Public/Desktop/CmpE146Package/GNUARM/bin/../lib/gcc/arm-elf/4.3.2/../../../../arm-elf/lib/libc.a(lib_a-ctype_.o)
 .debug_info    0x0000b92f      0xd6c /cygdrive/c/Users/Public/Desktop/CmpE146Package/GNUARM/bin/../lib/gcc/arm-elf/4.3.2/../../../../arm-elf/lib/libc.a(lib_a-dtoa.o)
 .debug_info    0x0000c69b      0x9f2 /cygdrive/c/Users/Public/Desktop/CmpE146Package/GNUARM/bin/../lib/gcc/arm-elf/4.3.2/../../../../arm-elf/lib/libc.a(lib_a-fflush.o)
 .debug_info    0x0000d08d      0xc04 /cygdrive/c/Users/Public/Desktop/CmpE146Package/GNUARM/bin/../lib/gcc/arm-elf/4.3.2/../../../../arm-elf/lib/libc.a(lib_a-findfp.o)
 .debug_info    0x0000dc91      0xbbf /cygdrive/c/Users/Public/Desktop/CmpE146Package/GNUARM/bin/../lib/gcc/arm-elf/4.3.2/../../../../arm-elf/lib/libc.a(lib_a-freer.o)
 .debug_info    0x0000e850      0xa80 /cygdrive/c/Users/Public/Desktop/CmpE146Package/GNUARM/bin/../lib/gcc/arm-elf/4.3.2/../../../../arm-elf/lib/libc.a(lib_a-fvwrite.o)
 .debug_info    0x0000f2d0      0xae1 /cygdrive/c/Users/Public/Desktop/CmpE146Package/GNUARM/bin/../lib/gcc/arm-elf/4.3.2/../../../../arm-elf/lib/libc.a(lib_a-fwalk.o)
 .debug_info    0x0000fdb1      0xde1 /cygdrive/c/Users/Public/Desktop/CmpE146Package/GNUARM/bin/../lib/gcc/arm-elf/4.3.2/../../../../arm-elf/lib/libc.a(lib_a-gdtoa-gethex.o)
 .debug_info    0x00010b92      0x2fc /cygdrive/c/Users/Public/Desktop/CmpE146Package/GNUARM/bin/../lib/gcc/arm-elf/4.3.2/../../../../arm-elf/lib/libc.a(lib_a-gdtoa-hexnan.o)
 .debug_info    0x00010e8e      0x939 /cygdrive/c/Users/Public/Desktop/CmpE146Package/GNUARM/bin/../lib/gcc/arm-elf/4.3.2/../../../../arm-elf/lib/libc.a(lib_a-impure.o)
 .debug_info    0x000117c7      0xba9 /cygdrive/c/Users/Public/Desktop/CmpE146Package/GNUARM/bin/../lib/gcc/arm-elf/4.3.2/../../../../arm-elf/lib/libc.a(lib_a-locale.o)
 .debug_info    0x00012370      0xb1a /cygdrive/c/Users/Public/Desktop/CmpE146Package/GNUARM/bin/../lib/gcc/arm-elf/4.3.2/../../../../arm-elf/lib/libc.a(lib_a-makebuf.o)
 .debug_info    0x00012e8a      0x134 /cygdrive/c/Users/Public/Desktop/CmpE146Package/GNUARM/bin/../lib/gcc/arm-elf/4.3.2/../../../../arm-elf/lib/libc.a(lib_a-memchr.o)
 .debug_info    0x00012fbe     0x14dc /cygdrive/c/Users/Public/Desktop/CmpE146Package/GNUARM/bin/../lib/gcc/arm-elf/4.3.2/../../../../arm-elf/lib/libc.a(lib_a-mprec.o)
 .debug_info    0x0001449a      0x14d /cygdrive/c/Users/Public/Desktop/CmpE146Package/GNUARM/bin/../lib/gcc/arm-elf/4.3.2/../../../../arm-elf/lib/libc.a(lib_a-s_isinfd.o)
 .debug_info    0x000145e7      0x14b /cygdrive/c/Users/Public/Desktop/CmpE146Package/GNUARM/bin/../lib/gcc/arm-elf/4.3.2/../../../../arm-elf/lib/libc.a(lib_a-s_isnand.o)
 .debug_info    0x00014732      0x114 /cygdrive/c/Users/Public/Desktop/CmpE146Package/GNUARM/bin/../lib/gcc/arm-elf/4.3.2/../../../../arm-elf/lib/libc.a(lib_a-sf_nan.o)
 .debug_info    0x00014846      0xaaa /cygdrive/c/Users/Public/Desktop/CmpE146Package/GNUARM/bin/../lib/gcc/arm-elf/4.3.2/../../../../arm-elf/lib/libc.a(lib_a-stdio.o)
 .debug_info    0x000152f0     0x186e /cygdrive/c/Users/Public/Desktop/CmpE146Package/GNUARM/bin/../lib/gcc/arm-elf/4.3.2/../../../../arm-elf/lib/libc.a(lib_a-syscalls.o)
 .debug_info    0x00016b5e      0xa15 /cygdrive/c/Users/Public/Desktop/CmpE146Package/GNUARM/bin/../lib/gcc/arm-elf/4.3.2/../../../../arm-elf/lib/libc.a(lib_a-callocr.o)
 .debug_info    0x00017573      0x92a /cygdrive/c/Users/Public/Desktop/CmpE146Package/GNUARM/bin/../lib/gcc/arm-elf/4.3.2/../../../../arm-elf/lib/libc.a(lib_a-errno.o)
 .debug_info    0x00017e9d      0x98e /cygdrive/c/Users/Public/Desktop/CmpE146Package/GNUARM/bin/../lib/gcc/arm-elf/4.3.2/../../../../arm-elf/lib/libc.a(lib_a-fclose.o)
 .debug_info    0x0001882b       0x7f /cygdrive/c/Users/Public/Desktop/CmpE146Package/GNUARM/bin/../lib/gcc/arm-elf/4.3.2/libgcc.a(_muldivdf3.o)
 .debug_info    0x000188aa       0x7f /cygdrive/c/Users/Public/Desktop/CmpE146Package/GNUARM/bin/../lib/gcc/arm-elf/4.3.2/libgcc.a(_cmpdf2.o)
 .debug_info    0x00018929       0x7f /cygdrive/c/Users/Public/Desktop/CmpE146Package/GNUARM/bin/../lib/gcc/arm-elf/4.3.2/libgcc.a(_fixdfsi.o)
 .debug_info    0x000189a8       0x7f /cygdrive/c/Users/Public/Desktop/CmpE146Package/GNUARM/bin/../lib/gcc/arm-elf/4.3.2/libgcc.a(_fixunsdfsi.o)

.debug_abbrev   0x00000000     0x4e55
 .debug_abbrev  0x00000000       0x14 /cygdrive/c/Users/Public/Desktop/CmpE146Package/GNUARM/bin/../lib/gcc/arm-elf/4.3.2/libgcc.a(_udivsi3.o)
 .debug_abbrev  0x00000014       0x14 /cygdrive/c/Users/Public/Desktop/CmpE146Package/GNUARM/bin/../lib/gcc/arm-elf/4.3.2/libgcc.a(_divsi3.o)
 .debug_abbrev  0x00000028       0x14 /cygdrive/c/Users/Public/Desktop/CmpE146Package/GNUARM/bin/../lib/gcc/arm-elf/4.3.2/libgcc.a(_umodsi3.o)
 .debug_abbrev  0x0000003c       0x14 /cygdrive/c/Users/Public/Desktop/CmpE146Package/GNUARM/bin/../lib/gcc/arm-elf/4.3.2/libgcc.a(_dvmd_tls.o)
 .debug_abbrev  0x00000050       0x14 /cygdrive/c/Users/Public/Desktop/CmpE146Package/GNUARM/bin/../lib/gcc/arm-elf/4.3.2/libgcc.a(_addsubdf3.o)
 .debug_abbrev  0x00000064       0x14 /cygdrive/c/Users/Public/Desktop/CmpE146Package/GNUARM/bin/../lib/gcc/arm-elf/4.3.2/libgcc.a(_truncdfsf2.o)
 .debug_abbrev  0x00000078       0x14 /cygdrive/c/Users/Public/Desktop/CmpE146Package/GNUARM/bin/../lib/gcc/arm-elf/4.3.2/libgcc.a(_addsubsf3.o)
 .debug_abbrev  0x0000008c       0x6b /cygdrive/c/Users/Public/Desktop/CmpE146Package/GNUARM/bin/../lib/gcc/arm-elf/4.3.2/../../../../arm-elf/lib/libc.a(lib_a-atof.o)
 .debug_abbrev  0x000000f7      0x17f /cygdrive/c/Users/Public/Desktop/CmpE146Package/GNUARM/bin/../lib/gcc/arm-elf/4.3.2/../../../../arm-elf/lib/libc.a(lib_a-atoi.o)
 .debug_abbrev  0x00000276      0x1b2 /cygdrive/c/Users/Public/Desktop/CmpE146Package/GNUARM/bin/../lib/gcc/arm-elf/4.3.2/../../../../arm-elf/lib/libc.a(lib_a-iprintf.o)
 .debug_abbrev  0x00000428      0x190 /cygdrive/c/Users/Public/Desktop/CmpE146Package/GNUARM/bin/../lib/gcc/arm-elf/4.3.2/../../../../arm-elf/lib/libc.a(lib_a-malloc.o)
 .debug_abbrev  0x000005b8      0x22e /cygdrive/c/Users/Public/Desktop/CmpE146Package/GNUARM/bin/../lib/gcc/arm-elf/4.3.2/../../../../arm-elf/lib/libc.a(lib_a-mallocr.o)
 .debug_abbrev  0x000007e6       0x94 /cygdrive/c/Users/Public/Desktop/CmpE146Package/GNUARM/bin/../lib/gcc/arm-elf/4.3.2/../../../../arm-elf/lib/libc.a(lib_a-memcmp.o)
 .debug_abbrev  0x0000087a       0x99 /cygdrive/c/Users/Public/Desktop/CmpE146Package/GNUARM/bin/../lib/gcc/arm-elf/4.3.2/../../../../arm-elf/lib/libc.a(lib_a-memcpy.o)
 .debug_abbrev  0x00000913       0xa2 /cygdrive/c/Users/Public/Desktop/CmpE146Package/GNUARM/bin/../lib/gcc/arm-elf/4.3.2/../../../../arm-elf/lib/libc.a(lib_a-memmove.o)
 .debug_abbrev  0x000009b5       0xb2 /cygdrive/c/Users/Public/Desktop/CmpE146Package/GNUARM/bin/../lib/gcc/arm-elf/4.3.2/../../../../arm-elf/lib/libc.a(lib_a-memset.o)
 .debug_abbrev  0x00000a67      0x173 /cygdrive/c/Users/Public/Desktop/CmpE146Package/GNUARM/bin/../lib/gcc/arm-elf/4.3.2/../../../../arm-elf/lib/libc.a(lib_a-mlock.o)
 .debug_abbrev  0x00000bda      0x188 /cygdrive/c/Users/Public/Desktop/CmpE146Package/GNUARM/bin/../lib/gcc/arm-elf/4.3.2/../../../../arm-elf/lib/libc.a(lib_a-realloc.o)
 .debug_abbrev  0x00000d62      0x1ef /cygdrive/c/Users/Public/Desktop/CmpE146Package/GNUARM/bin/../lib/gcc/arm-elf/4.3.2/../../../../arm-elf/lib/libc.a(lib_a-reallocr.o)
 .debug_abbrev  0x00000f51      0x1b2 /cygdrive/c/Users/Public/Desktop/CmpE146Package/GNUARM/bin/../lib/gcc/arm-elf/4.3.2/../../../../arm-elf/lib/libc.a(lib_a-siprintf.o)
 .debug_abbrev  0x00001103      0x1b2 /cygdrive/c/Users/Public/Desktop/CmpE146Package/GNUARM/bin/../lib/gcc/arm-elf/4.3.2/../../../../arm-elf/lib/libc.a(lib_a-sprintf.o)
 .debug_abbrev  0x000012b5       0x90 /cygdrive/c/Users/Public/Desktop/CmpE146Package/GNUARM/bin/../lib/gcc/arm-elf/4.3.2/../../../../arm-elf/lib/libc.a(lib_a-strcat.o)
 .debug_abbrev  0x00001345       0x98 /cygdrive/c/Users/Public/Desktop/CmpE146Package/GNUARM/bin/../lib/gcc/arm-elf/4.3.2/../../../../arm-elf/lib/libc.a(lib_a-strchr.o)
 .debug_abbrev  0x000013dd       0x7a /cygdrive/c/Users/Public/Desktop/CmpE146Package/GNUARM/bin/../lib/gcc/arm-elf/4.3.2/../../../../arm-elf/lib/libc.a(lib_a-strcmp.o)
 .debug_abbrev  0x00001457       0x98 /cygdrive/c/Users/Public/Desktop/CmpE146Package/GNUARM/bin/../lib/gcc/arm-elf/4.3.2/../../../../arm-elf/lib/libc.a(lib_a-strcpy.o)
 .debug_abbrev  0x000014ef       0x94 /cygdrive/c/Users/Public/Desktop/CmpE146Package/GNUARM/bin/../lib/gcc/arm-elf/4.3.2/../../../../arm-elf/lib/libc.a(lib_a-strlen.o)
 .debug_abbrev  0x00001583       0x96 /cygdrive/c/Users/Public/Desktop/CmpE146Package/GNUARM/bin/../lib/gcc/arm-elf/4.3.2/../../../../arm-elf/lib/libc.a(lib_a-strncpy.o)
 .debug_abbrev  0x00001619       0x9d /cygdrive/c/Users/Public/Desktop/CmpE146Package/GNUARM/bin/../lib/gcc/arm-elf/4.3.2/../../../../arm-elf/lib/libc.a(lib_a-strstr.o)
 .debug_abbrev  0x000016b6      0x334 /cygdrive/c/Users/Public/Desktop/CmpE146Package/GNUARM/bin/../lib/gcc/arm-elf/4.3.2/../../../../arm-elf/lib/libc.a(lib_a-strtod.o)
 .debug_abbrev  0x000019ea      0x188 /cygdrive/c/Users/Public/Desktop/CmpE146Package/GNUARM/bin/../lib/gcc/arm-elf/4.3.2/../../../../arm-elf/lib/libc.a(lib_a-strtok.o)
 .debug_abbrev  0x00001b72       0xb8 /cygdrive/c/Users/Public/Desktop/CmpE146Package/GNUARM/bin/../lib/gcc/arm-elf/4.3.2/../../../../arm-elf/lib/libc.a(lib_a-strtok_r.o)
 .debug_abbrev  0x00001c2a      0x1c6 /cygdrive/c/Users/Public/Desktop/CmpE146Package/GNUARM/bin/../lib/gcc/arm-elf/4.3.2/../../../../arm-elf/lib/libc.a(lib_a-strtol.o)
 .debug_abbrev  0x00001df0       0x73 /cygdrive/c/Users/Public/Desktop/CmpE146Package/GNUARM/bin/../lib/gcc/arm-elf/4.3.2/../../../../arm-elf/lib/libc.a(lib_a-tolower.o)
 .debug_abbrev  0x00001e63       0x73 /cygdrive/c/Users/Public/Desktop/CmpE146Package/GNUARM/bin/../lib/gcc/arm-elf/4.3.2/../../../../arm-elf/lib/libc.a(lib_a-toupper.o)
 .debug_abbrev  0x00001ed6      0x2e6 /cygdrive/c/Users/Public/Desktop/CmpE146Package/GNUARM/bin/../lib/gcc/arm-elf/4.3.2/../../../../arm-elf/lib/libc.a(lib_a-vfiprintf.o)
 .debug_abbrev  0x000021bc      0x379 /cygdrive/c/Users/Public/Desktop/CmpE146Package/GNUARM/bin/../lib/gcc/arm-elf/4.3.2/../../../../arm-elf/lib/libc.a(lib_a-vfprintf.o)
 .debug_abbrev  0x00002535      0x179 /cygdrive/c/Users/Public/Desktop/CmpE146Package/GNUARM/bin/../lib/gcc/arm-elf/4.3.2/../../../../arm-elf/lib/libc.a(lib_a-wsetup.o)
 .debug_abbrev  0x000026ae       0x5b /cygdrive/c/Users/Public/Desktop/CmpE146Package/GNUARM/bin/../lib/gcc/arm-elf/4.3.2/../../../../arm-elf/lib/libc.a(lib_a-ctype_.o)
 .debug_abbrev  0x00002709      0x22c /cygdrive/c/Users/Public/Desktop/CmpE146Package/GNUARM/bin/../lib/gcc/arm-elf/4.3.2/../../../../arm-elf/lib/libc.a(lib_a-dtoa.o)
 .debug_abbrev  0x00002935      0x1c4 /cygdrive/c/Users/Public/Desktop/CmpE146Package/GNUARM/bin/../lib/gcc/arm-elf/4.3.2/../../../../arm-elf/lib/libc.a(lib_a-fflush.o)
 .debug_abbrev  0x00002af9      0x2b3 /cygdrive/c/Users/Public/Desktop/CmpE146Package/GNUARM/bin/../lib/gcc/arm-elf/4.3.2/../../../../arm-elf/lib/libc.a(lib_a-findfp.o)
 .debug_abbrev  0x00002dac      0x200 /cygdrive/c/Users/Public/Desktop/CmpE146Package/GNUARM/bin/../lib/gcc/arm-elf/4.3.2/../../../../arm-elf/lib/libc.a(lib_a-freer.o)
 .debug_abbrev  0x00002fac      0x1ac /cygdrive/c/Users/Public/Desktop/CmpE146Package/GNUARM/bin/../lib/gcc/arm-elf/4.3.2/../../../../arm-elf/lib/libc.a(lib_a-fvwrite.o)
 .debug_abbrev  0x00003158      0x1ee /cygdrive/c/Users/Public/Desktop/CmpE146Package/GNUARM/bin/../lib/gcc/arm-elf/4.3.2/../../../../arm-elf/lib/libc.a(lib_a-fwalk.o)
 .debug_abbrev  0x00003346      0x2d7 /cygdrive/c/Users/Public/Desktop/CmpE146Package/GNUARM/bin/../lib/gcc/arm-elf/4.3.2/../../../../arm-elf/lib/libc.a(lib_a-gdtoa-gethex.o)
 .debug_abbrev  0x0000361d      0x163 /cygdrive/c/Users/Public/Desktop/CmpE146Package/GNUARM/bin/../lib/gcc/arm-elf/4.3.2/../../../../arm-elf/lib/libc.a(lib_a-gdtoa-hexnan.o)
 .debug_abbrev  0x00003780      0x160 /cygdrive/c/Users/Public/Desktop/CmpE146Package/GNUARM/bin/../lib/gcc/arm-elf/4.3.2/../../../../arm-elf/lib/libc.a(lib_a-impure.o)
 .debug_abbrev  0x000038e0      0x22a /cygdrive/c/Users/Public/Desktop/CmpE146Package/GNUARM/bin/../lib/gcc/arm-elf/4.3.2/../../../../arm-elf/lib/libc.a(lib_a-locale.o)
 .debug_abbrev  0x00003b0a      0x193 /cygdrive/c/Users/Public/Desktop/CmpE146Package/GNUARM/bin/../lib/gcc/arm-elf/4.3.2/../../../../arm-elf/lib/libc.a(lib_a-makebuf.o)
 .debug_abbrev  0x00003c9d       0xbe /cygdrive/c/Users/Public/Desktop/CmpE146Package/GNUARM/bin/../lib/gcc/arm-elf/4.3.2/../../../../arm-elf/lib/libc.a(lib_a-memchr.o)
 .debug_abbrev  0x00003d5b      0x344 /cygdrive/c/Users/Public/Desktop/CmpE146Package/GNUARM/bin/../lib/gcc/arm-elf/4.3.2/../../../../arm-elf/lib/libc.a(lib_a-mprec.o)
 .debug_abbrev  0x0000409f       0xdd /cygdrive/c/Users/Public/Desktop/CmpE146Package/GNUARM/bin/../lib/gcc/arm-elf/4.3.2/../../../../arm-elf/lib/libc.a(lib_a-s_isinfd.o)
 .debug_abbrev  0x0000417c       0xce /cygdrive/c/Users/Public/Desktop/CmpE146Package/GNUARM/bin/../lib/gcc/arm-elf/4.3.2/../../../../arm-elf/lib/libc.a(lib_a-s_isnand.o)
 .debug_abbrev  0x0000424a       0xc0 /cygdrive/c/Users/Public/Desktop/CmpE146Package/GNUARM/bin/../lib/gcc/arm-elf/4.3.2/../../../../arm-elf/lib/libc.a(lib_a-sf_nan.o)
 .debug_abbrev  0x0000430a      0x1c3 /cygdrive/c/Users/Public/Desktop/CmpE146Package/GNUARM/bin/../lib/gcc/arm-elf/4.3.2/../../../../arm-elf/lib/libc.a(lib_a-stdio.o)
 .debug_abbrev  0x000044cd      0x450 /cygdrive/c/Users/Public/Desktop/CmpE146Package/GNUARM/bin/../lib/gcc/arm-elf/4.3.2/../../../../arm-elf/lib/libc.a(lib_a-syscalls.o)
 .debug_abbrev  0x0000491d      0x1d0 /cygdrive/c/Users/Public/Desktop/CmpE146Package/GNUARM/bin/../lib/gcc/arm-elf/4.3.2/../../../../arm-elf/lib/libc.a(lib_a-callocr.o)
 .debug_abbrev  0x00004aed      0x168 /cygdrive/c/Users/Public/Desktop/CmpE146Package/GNUARM/bin/../lib/gcc/arm-elf/4.3.2/../../../../arm-elf/lib/libc.a(lib_a-errno.o)
 .debug_abbrev  0x00004c55      0x1b0 /cygdrive/c/Users/Public/Desktop/CmpE146Package/GNUARM/bin/../lib/gcc/arm-elf/4.3.2/../../../../arm-elf/lib/libc.a(lib_a-fclose.o)
 .debug_abbrev  0x00004e05       0x14 /cygdrive/c/Users/Public/Desktop/CmpE146Package/GNUARM/bin/../lib/gcc/arm-elf/4.3.2/libgcc.a(_muldivdf3.o)
 .debug_abbrev  0x00004e19       0x14 /cygdrive/c/Users/Public/Desktop/CmpE146Package/GNUARM/bin/../lib/gcc/arm-elf/4.3.2/libgcc.a(_cmpdf2.o)
 .debug_abbrev  0x00004e2d       0x14 /cygdrive/c/Users/Public/Desktop/CmpE146Package/GNUARM/bin/../lib/gcc/arm-elf/4.3.2/libgcc.a(_fixdfsi.o)
 .debug_abbrev  0x00004e41       0x14 /cygdrive/c/Users/Public/Desktop/CmpE146Package/GNUARM/bin/../lib/gcc/arm-elf/4.3.2/libgcc.a(_fixunsdfsi.o)

.debug_aranges  0x00000000      0x7a0
 .debug_aranges
                0x00000000       0x20 /cygdrive/c/Users/Public/Desktop/CmpE146Package/GNUARM/bin/../lib/gcc/arm-elf/4.3.2/libgcc.a(_udivsi3.o)
 .debug_aranges
                0x00000020       0x20 /cygdrive/c/Users/Public/Desktop/CmpE146Package/GNUARM/bin/../lib/gcc/arm-elf/4.3.2/libgcc.a(_divsi3.o)
 .debug_aranges
                0x00000040       0x20 /cygdrive/c/Users/Public/Desktop/CmpE146Package/GNUARM/bin/../lib/gcc/arm-elf/4.3.2/libgcc.a(_umodsi3.o)
 .debug_aranges
                0x00000060       0x20 /cygdrive/c/Users/Public/Desktop/CmpE146Package/GNUARM/bin/../lib/gcc/arm-elf/4.3.2/libgcc.a(_dvmd_tls.o)
 .debug_aranges
                0x00000080       0x20 /cygdrive/c/Users/Public/Desktop/CmpE146Package/GNUARM/bin/../lib/gcc/arm-elf/4.3.2/libgcc.a(_addsubdf3.o)
 .debug_aranges
                0x000000a0       0x20 /cygdrive/c/Users/Public/Desktop/CmpE146Package/GNUARM/bin/../lib/gcc/arm-elf/4.3.2/libgcc.a(_truncdfsf2.o)
 .debug_aranges
                0x000000c0       0x20 /cygdrive/c/Users/Public/Desktop/CmpE146Package/GNUARM/bin/../lib/gcc/arm-elf/4.3.2/libgcc.a(_addsubsf3.o)
 .debug_aranges
                0x000000e0       0x20 /cygdrive/c/Users/Public/Desktop/CmpE146Package/GNUARM/bin/../lib/gcc/arm-elf/4.3.2/../../../../arm-elf/lib/libc.a(lib_a-atof.o)
 .debug_aranges
                0x00000100       0x20 /cygdrive/c/Users/Public/Desktop/CmpE146Package/GNUARM/bin/../lib/gcc/arm-elf/4.3.2/../../../../arm-elf/lib/libc.a(lib_a-atoi.o)
 .debug_aranges
                0x00000120       0x20 /cygdrive/c/Users/Public/Desktop/CmpE146Package/GNUARM/bin/../lib/gcc/arm-elf/4.3.2/../../../../arm-elf/lib/libc.a(lib_a-iprintf.o)
 .debug_aranges
                0x00000140       0x20 /cygdrive/c/Users/Public/Desktop/CmpE146Package/GNUARM/bin/../lib/gcc/arm-elf/4.3.2/../../../../arm-elf/lib/libc.a(lib_a-malloc.o)
 .debug_aranges
                0x00000160       0x20 /cygdrive/c/Users/Public/Desktop/CmpE146Package/GNUARM/bin/../lib/gcc/arm-elf/4.3.2/../../../../arm-elf/lib/libc.a(lib_a-mallocr.o)
 .debug_aranges
                0x00000180       0x20 /cygdrive/c/Users/Public/Desktop/CmpE146Package/GNUARM/bin/../lib/gcc/arm-elf/4.3.2/../../../../arm-elf/lib/libc.a(lib_a-memcmp.o)
 .debug_aranges
                0x000001a0       0x20 /cygdrive/c/Users/Public/Desktop/CmpE146Package/GNUARM/bin/../lib/gcc/arm-elf/4.3.2/../../../../arm-elf/lib/libc.a(lib_a-memcpy.o)
 .debug_aranges
                0x000001c0       0x20 /cygdrive/c/Users/Public/Desktop/CmpE146Package/GNUARM/bin/../lib/gcc/arm-elf/4.3.2/../../../../arm-elf/lib/libc.a(lib_a-memmove.o)
 .debug_aranges
                0x000001e0       0x20 /cygdrive/c/Users/Public/Desktop/CmpE146Package/GNUARM/bin/../lib/gcc/arm-elf/4.3.2/../../../../arm-elf/lib/libc.a(lib_a-memset.o)
 .debug_aranges
                0x00000200       0x20 /cygdrive/c/Users/Public/Desktop/CmpE146Package/GNUARM/bin/../lib/gcc/arm-elf/4.3.2/../../../../arm-elf/lib/libc.a(lib_a-mlock.o)
 .debug_aranges
                0x00000220       0x20 /cygdrive/c/Users/Public/Desktop/CmpE146Package/GNUARM/bin/../lib/gcc/arm-elf/4.3.2/../../../../arm-elf/lib/libc.a(lib_a-realloc.o)
 .debug_aranges
                0x00000240       0x20 /cygdrive/c/Users/Public/Desktop/CmpE146Package/GNUARM/bin/../lib/gcc/arm-elf/4.3.2/../../../../arm-elf/lib/libc.a(lib_a-reallocr.o)
 .debug_aranges
                0x00000260       0x20 /cygdrive/c/Users/Public/Desktop/CmpE146Package/GNUARM/bin/../lib/gcc/arm-elf/4.3.2/../../../../arm-elf/lib/libc.a(lib_a-siprintf.o)
 .debug_aranges
                0x00000280       0x20 /cygdrive/c/Users/Public/Desktop/CmpE146Package/GNUARM/bin/../lib/gcc/arm-elf/4.3.2/../../../../arm-elf/lib/libc.a(lib_a-sprintf.o)
 .debug_aranges
                0x000002a0       0x20 /cygdrive/c/Users/Public/Desktop/CmpE146Package/GNUARM/bin/../lib/gcc/arm-elf/4.3.2/../../../../arm-elf/lib/libc.a(lib_a-strcat.o)
 .debug_aranges
                0x000002c0       0x20 /cygdrive/c/Users/Public/Desktop/CmpE146Package/GNUARM/bin/../lib/gcc/arm-elf/4.3.2/../../../../arm-elf/lib/libc.a(lib_a-strchr.o)
 .debug_aranges
                0x000002e0       0x20 /cygdrive/c/Users/Public/Desktop/CmpE146Package/GNUARM/bin/../lib/gcc/arm-elf/4.3.2/../../../../arm-elf/lib/libc.a(lib_a-strcmp.o)
 .debug_aranges
                0x00000300       0x20 /cygdrive/c/Users/Public/Desktop/CmpE146Package/GNUARM/bin/../lib/gcc/arm-elf/4.3.2/../../../../arm-elf/lib/libc.a(lib_a-strcpy.o)
 .debug_aranges
                0x00000320       0x20 /cygdrive/c/Users/Public/Desktop/CmpE146Package/GNUARM/bin/../lib/gcc/arm-elf/4.3.2/../../../../arm-elf/lib/libc.a(lib_a-strlen.o)
 .debug_aranges
                0x00000340       0x20 /cygdrive/c/Users/Public/Desktop/CmpE146Package/GNUARM/bin/../lib/gcc/arm-elf/4.3.2/../../../../arm-elf/lib/libc.a(lib_a-strncpy.o)
 .debug_aranges
                0x00000360       0x20 /cygdrive/c/Users/Public/Desktop/CmpE146Package/GNUARM/bin/../lib/gcc/arm-elf/4.3.2/../../../../arm-elf/lib/libc.a(lib_a-strstr.o)
 .debug_aranges
                0x00000380       0x20 /cygdrive/c/Users/Public/Desktop/CmpE146Package/GNUARM/bin/../lib/gcc/arm-elf/4.3.2/../../../../arm-elf/lib/libc.a(lib_a-strtod.o)
 .debug_aranges
                0x000003a0       0x20 /cygdrive/c/Users/Public/Desktop/CmpE146Package/GNUARM/bin/../lib/gcc/arm-elf/4.3.2/../../../../arm-elf/lib/libc.a(lib_a-strtok.o)
 .debug_aranges
                0x000003c0       0x20 /cygdrive/c/Users/Public/Desktop/CmpE146Package/GNUARM/bin/../lib/gcc/arm-elf/4.3.2/../../../../arm-elf/lib/libc.a(lib_a-strtok_r.o)
 .debug_aranges
                0x000003e0       0x20 /cygdrive/c/Users/Public/Desktop/CmpE146Package/GNUARM/bin/../lib/gcc/arm-elf/4.3.2/../../../../arm-elf/lib/libc.a(lib_a-strtol.o)
 .debug_aranges
                0x00000400       0x20 /cygdrive/c/Users/Public/Desktop/CmpE146Package/GNUARM/bin/../lib/gcc/arm-elf/4.3.2/../../../../arm-elf/lib/libc.a(lib_a-tolower.o)
 .debug_aranges
                0x00000420       0x20 /cygdrive/c/Users/Public/Desktop/CmpE146Package/GNUARM/bin/../lib/gcc/arm-elf/4.3.2/../../../../arm-elf/lib/libc.a(lib_a-toupper.o)
 .debug_aranges
                0x00000440       0x20 /cygdrive/c/Users/Public/Desktop/CmpE146Package/GNUARM/bin/../lib/gcc/arm-elf/4.3.2/../../../../arm-elf/lib/libc.a(lib_a-vfiprintf.o)
 .debug_aranges
                0x00000460       0x20 /cygdrive/c/Users/Public/Desktop/CmpE146Package/GNUARM/bin/../lib/gcc/arm-elf/4.3.2/../../../../arm-elf/lib/libc.a(lib_a-vfprintf.o)
 .debug_aranges
                0x00000480       0x20 /cygdrive/c/Users/Public/Desktop/CmpE146Package/GNUARM/bin/../lib/gcc/arm-elf/4.3.2/../../../../arm-elf/lib/libc.a(lib_a-wsetup.o)
 .debug_aranges
                0x000004a0       0x20 /cygdrive/c/Users/Public/Desktop/CmpE146Package/GNUARM/bin/../lib/gcc/arm-elf/4.3.2/../../../../arm-elf/lib/libc.a(lib_a-dtoa.o)
 .debug_aranges
                0x000004c0       0x20 /cygdrive/c/Users/Public/Desktop/CmpE146Package/GNUARM/bin/../lib/gcc/arm-elf/4.3.2/../../../../arm-elf/lib/libc.a(lib_a-fflush.o)
 .debug_aranges
                0x000004e0       0x20 /cygdrive/c/Users/Public/Desktop/CmpE146Package/GNUARM/bin/../lib/gcc/arm-elf/4.3.2/../../../../arm-elf/lib/libc.a(lib_a-findfp.o)
 .debug_aranges
                0x00000500       0x20 /cygdrive/c/Users/Public/Desktop/CmpE146Package/GNUARM/bin/../lib/gcc/arm-elf/4.3.2/../../../../arm-elf/lib/libc.a(lib_a-freer.o)
 .debug_aranges
                0x00000520       0x20 /cygdrive/c/Users/Public/Desktop/CmpE146Package/GNUARM/bin/../lib/gcc/arm-elf/4.3.2/../../../../arm-elf/lib/libc.a(lib_a-fvwrite.o)
 .debug_aranges
                0x00000540       0x20 /cygdrive/c/Users/Public/Desktop/CmpE146Package/GNUARM/bin/../lib/gcc/arm-elf/4.3.2/../../../../arm-elf/lib/libc.a(lib_a-fwalk.o)
 .debug_aranges
                0x00000560       0x20 /cygdrive/c/Users/Public/Desktop/CmpE146Package/GNUARM/bin/../lib/gcc/arm-elf/4.3.2/../../../../arm-elf/lib/libc.a(lib_a-gdtoa-gethex.o)
 .debug_aranges
                0x00000580       0x20 /cygdrive/c/Users/Public/Desktop/CmpE146Package/GNUARM/bin/../lib/gcc/arm-elf/4.3.2/../../../../arm-elf/lib/libc.a(lib_a-gdtoa-hexnan.o)
 .debug_aranges
                0x000005a0       0x20 /cygdrive/c/Users/Public/Desktop/CmpE146Package/GNUARM/bin/../lib/gcc/arm-elf/4.3.2/../../../../arm-elf/lib/libc.a(lib_a-locale.o)
 .debug_aranges
                0x000005c0       0x20 /cygdrive/c/Users/Public/Desktop/CmpE146Package/GNUARM/bin/../lib/gcc/arm-elf/4.3.2/../../../../arm-elf/lib/libc.a(lib_a-makebuf.o)
 .debug_aranges
                0x000005e0       0x20 /cygdrive/c/Users/Public/Desktop/CmpE146Package/GNUARM/bin/../lib/gcc/arm-elf/4.3.2/../../../../arm-elf/lib/libc.a(lib_a-memchr.o)
 .debug_aranges
                0x00000600       0x20 /cygdrive/c/Users/Public/Desktop/CmpE146Package/GNUARM/bin/../lib/gcc/arm-elf/4.3.2/../../../../arm-elf/lib/libc.a(lib_a-mprec.o)
 .debug_aranges
                0x00000620       0x20 /cygdrive/c/Users/Public/Desktop/CmpE146Package/GNUARM/bin/../lib/gcc/arm-elf/4.3.2/../../../../arm-elf/lib/libc.a(lib_a-s_isinfd.o)
 .debug_aranges
                0x00000640       0x20 /cygdrive/c/Users/Public/Desktop/CmpE146Package/GNUARM/bin/../lib/gcc/arm-elf/4.3.2/../../../../arm-elf/lib/libc.a(lib_a-s_isnand.o)
 .debug_aranges
                0x00000660       0x20 /cygdrive/c/Users/Public/Desktop/CmpE146Package/GNUARM/bin/../lib/gcc/arm-elf/4.3.2/../../../../arm-elf/lib/libc.a(lib_a-sf_nan.o)
 .debug_aranges
                0x00000680       0x20 /cygdrive/c/Users/Public/Desktop/CmpE146Package/GNUARM/bin/../lib/gcc/arm-elf/4.3.2/../../../../arm-elf/lib/libc.a(lib_a-stdio.o)
 .debug_aranges
                0x000006a0       0x20 /cygdrive/c/Users/Public/Desktop/CmpE146Package/GNUARM/bin/../lib/gcc/arm-elf/4.3.2/../../../../arm-elf/lib/libc.a(lib_a-syscalls.o)
 .debug_aranges
                0x000006c0       0x20 /cygdrive/c/Users/Public/Desktop/CmpE146Package/GNUARM/bin/../lib/gcc/arm-elf/4.3.2/../../../../arm-elf/lib/libc.a(lib_a-callocr.o)
 .debug_aranges
                0x000006e0       0x20 /cygdrive/c/Users/Public/Desktop/CmpE146Package/GNUARM/bin/../lib/gcc/arm-elf/4.3.2/../../../../arm-elf/lib/libc.a(lib_a-errno.o)
 .debug_aranges
                0x00000700       0x20 /cygdrive/c/Users/Public/Desktop/CmpE146Package/GNUARM/bin/../lib/gcc/arm-elf/4.3.2/../../../../arm-elf/lib/libc.a(lib_a-fclose.o)
 .debug_aranges
                0x00000720       0x20 /cygdrive/c/Users/Public/Desktop/CmpE146Package/GNUARM/bin/../lib/gcc/arm-elf/4.3.2/libgcc.a(_muldivdf3.o)
 .debug_aranges
                0x00000740       0x20 /cygdrive/c/Users/Public/Desktop/CmpE146Package/GNUARM/bin/../lib/gcc/arm-elf/4.3.2/libgcc.a(_cmpdf2.o)
 .debug_aranges
                0x00000760       0x20 /cygdrive/c/Users/Public/Desktop/CmpE146Package/GNUARM/bin/../lib/gcc/arm-elf/4.3.2/libgcc.a(_fixdfsi.o)
 .debug_aranges
                0x00000780       0x20 /cygdrive/c/Users/Public/Desktop/CmpE146Package/GNUARM/bin/../lib/gcc/arm-elf/4.3.2/libgcc.a(_fixunsdfsi.o)

.debug_loc      0x00000000     0xbd78
 .debug_loc     0x00000000       0x13 /cygdrive/c/Users/Public/Desktop/CmpE146Package/GNUARM/bin/../lib/gcc/arm-elf/4.3.2/../../../../arm-elf/lib/libc.a(lib_a-atof.o)
 .debug_loc     0x00000013       0x39 /cygdrive/c/Users/Public/Desktop/CmpE146Package/GNUARM/bin/../lib/gcc/arm-elf/4.3.2/../../../../arm-elf/lib/libc.a(lib_a-atoi.o)
 .debug_loc     0x0000004c       0x7c /cygdrive/c/Users/Public/Desktop/CmpE146Package/GNUARM/bin/../lib/gcc/arm-elf/4.3.2/../../../../arm-elf/lib/libc.a(lib_a-iprintf.o)
 .debug_loc     0x000000c8       0x3c /cygdrive/c/Users/Public/Desktop/CmpE146Package/GNUARM/bin/../lib/gcc/arm-elf/4.3.2/../../../../arm-elf/lib/libc.a(lib_a-malloc.o)
 .debug_loc     0x00000104      0x75d /cygdrive/c/Users/Public/Desktop/CmpE146Package/GNUARM/bin/../lib/gcc/arm-elf/4.3.2/../../../../arm-elf/lib/libc.a(lib_a-mallocr.o)
 .debug_loc     0x00000861      0x102 /cygdrive/c/Users/Public/Desktop/CmpE146Package/GNUARM/bin/../lib/gcc/arm-elf/4.3.2/../../../../arm-elf/lib/libc.a(lib_a-memcmp.o)
 .debug_loc     0x00000963      0x130 /cygdrive/c/Users/Public/Desktop/CmpE146Package/GNUARM/bin/../lib/gcc/arm-elf/4.3.2/../../../../arm-elf/lib/libc.a(lib_a-memcpy.o)
 .debug_loc     0x00000a93      0x193 /cygdrive/c/Users/Public/Desktop/CmpE146Package/GNUARM/bin/../lib/gcc/arm-elf/4.3.2/../../../../arm-elf/lib/libc.a(lib_a-memmove.o)
 .debug_loc     0x00000c26      0x12b /cygdrive/c/Users/Public/Desktop/CmpE146Package/GNUARM/bin/../lib/gcc/arm-elf/4.3.2/../../../../arm-elf/lib/libc.a(lib_a-memset.o)
 .debug_loc     0x00000d51       0x3c /cygdrive/c/Users/Public/Desktop/CmpE146Package/GNUARM/bin/../lib/gcc/arm-elf/4.3.2/../../../../arm-elf/lib/libc.a(lib_a-realloc.o)
 .debug_loc     0x00000d8d      0x727 /cygdrive/c/Users/Public/Desktop/CmpE146Package/GNUARM/bin/../lib/gcc/arm-elf/4.3.2/../../../../arm-elf/lib/libc.a(lib_a-reallocr.o)
 .debug_loc     0x000014b4       0xbf /cygdrive/c/Users/Public/Desktop/CmpE146Package/GNUARM/bin/../lib/gcc/arm-elf/4.3.2/../../../../arm-elf/lib/libc.a(lib_a-siprintf.o)
 .debug_loc     0x00001573       0xbf /cygdrive/c/Users/Public/Desktop/CmpE146Package/GNUARM/bin/../lib/gcc/arm-elf/4.3.2/../../../../arm-elf/lib/libc.a(lib_a-sprintf.o)
 .debug_loc     0x00001632       0x79 /cygdrive/c/Users/Public/Desktop/CmpE146Package/GNUARM/bin/../lib/gcc/arm-elf/4.3.2/../../../../arm-elf/lib/libc.a(lib_a-strcat.o)
 .debug_loc     0x000016ab       0xd3 /cygdrive/c/Users/Public/Desktop/CmpE146Package/GNUARM/bin/../lib/gcc/arm-elf/4.3.2/../../../../arm-elf/lib/libc.a(lib_a-strchr.o)
 .debug_loc     0x0000177e       0xba /cygdrive/c/Users/Public/Desktop/CmpE146Package/GNUARM/bin/../lib/gcc/arm-elf/4.3.2/../../../../arm-elf/lib/libc.a(lib_a-strcmp.o)
 .debug_loc     0x00001838       0xaa /cygdrive/c/Users/Public/Desktop/CmpE146Package/GNUARM/bin/../lib/gcc/arm-elf/4.3.2/../../../../arm-elf/lib/libc.a(lib_a-strcpy.o)
 .debug_loc     0x000018e2       0x47 /cygdrive/c/Users/Public/Desktop/CmpE146Package/GNUARM/bin/../lib/gcc/arm-elf/4.3.2/../../../../arm-elf/lib/libc.a(lib_a-strlen.o)
 .debug_loc     0x00001929      0x128 /cygdrive/c/Users/Public/Desktop/CmpE146Package/GNUARM/bin/../lib/gcc/arm-elf/4.3.2/../../../../arm-elf/lib/libc.a(lib_a-strncpy.o)
 .debug_loc     0x00001a51       0x1e /cygdrive/c/Users/Public/Desktop/CmpE146Package/GNUARM/bin/../lib/gcc/arm-elf/4.3.2/../../../../arm-elf/lib/libc.a(lib_a-strstr.o)
 .debug_loc     0x00001a6f     0x1a1b /cygdrive/c/Users/Public/Desktop/CmpE146Package/GNUARM/bin/../lib/gcc/arm-elf/4.3.2/../../../../arm-elf/lib/libc.a(lib_a-strtod.o)
 .debug_loc     0x0000348a       0x26 /cygdrive/c/Users/Public/Desktop/CmpE146Package/GNUARM/bin/../lib/gcc/arm-elf/4.3.2/../../../../arm-elf/lib/libc.a(lib_a-strtok.o)
 .debug_loc     0x000034b0      0x1c4 /cygdrive/c/Users/Public/Desktop/CmpE146Package/GNUARM/bin/../lib/gcc/arm-elf/4.3.2/../../../../arm-elf/lib/libc.a(lib_a-strtok_r.o)
 .debug_loc     0x00003674      0x210 /cygdrive/c/Users/Public/Desktop/CmpE146Package/GNUARM/bin/../lib/gcc/arm-elf/4.3.2/../../../../arm-elf/lib/libc.a(lib_a-strtol.o)
 .debug_loc     0x00003884       0x13 /cygdrive/c/Users/Public/Desktop/CmpE146Package/GNUARM/bin/../lib/gcc/arm-elf/4.3.2/../../../../arm-elf/lib/libc.a(lib_a-tolower.o)
 .debug_loc     0x00003897       0x13 /cygdrive/c/Users/Public/Desktop/CmpE146Package/GNUARM/bin/../lib/gcc/arm-elf/4.3.2/../../../../arm-elf/lib/libc.a(lib_a-toupper.o)
 .debug_loc     0x000038aa      0xdd7 /cygdrive/c/Users/Public/Desktop/CmpE146Package/GNUARM/bin/../lib/gcc/arm-elf/4.3.2/../../../../arm-elf/lib/libc.a(lib_a-vfiprintf.o)
 .debug_loc     0x00004681     0x1ff6 /cygdrive/c/Users/Public/Desktop/CmpE146Package/GNUARM/bin/../lib/gcc/arm-elf/4.3.2/../../../../arm-elf/lib/libc.a(lib_a-vfprintf.o)
 .debug_loc     0x00006677       0x5b /cygdrive/c/Users/Public/Desktop/CmpE146Package/GNUARM/bin/../lib/gcc/arm-elf/4.3.2/../../../../arm-elf/lib/libc.a(lib_a-wsetup.o)
 .debug_loc     0x000066d2     0x1df2 /cygdrive/c/Users/Public/Desktop/CmpE146Package/GNUARM/bin/../lib/gcc/arm-elf/4.3.2/../../../../arm-elf/lib/libc.a(lib_a-dtoa.o)
 .debug_loc     0x000084c4      0x151 /cygdrive/c/Users/Public/Desktop/CmpE146Package/GNUARM/bin/../lib/gcc/arm-elf/4.3.2/../../../../arm-elf/lib/libc.a(lib_a-fflush.o)
 .debug_loc     0x00008615      0x1a7 /cygdrive/c/Users/Public/Desktop/CmpE146Package/GNUARM/bin/../lib/gcc/arm-elf/4.3.2/../../../../arm-elf/lib/libc.a(lib_a-findfp.o)
 .debug_loc     0x000087bc      0x2ab /cygdrive/c/Users/Public/Desktop/CmpE146Package/GNUARM/bin/../lib/gcc/arm-elf/4.3.2/../../../../arm-elf/lib/libc.a(lib_a-freer.o)
 .debug_loc     0x00008a67      0x42e /cygdrive/c/Users/Public/Desktop/CmpE146Package/GNUARM/bin/../lib/gcc/arm-elf/4.3.2/../../../../arm-elf/lib/libc.a(lib_a-fvwrite.o)
 .debug_loc     0x00008e95       0xc1 /cygdrive/c/Users/Public/Desktop/CmpE146Package/GNUARM/bin/../lib/gcc/arm-elf/4.3.2/../../../../arm-elf/lib/libc.a(lib_a-fwalk.o)
 .debug_loc     0x00008f56      0x957 /cygdrive/c/Users/Public/Desktop/CmpE146Package/GNUARM/bin/../lib/gcc/arm-elf/4.3.2/../../../../arm-elf/lib/libc.a(lib_a-gdtoa-gethex.o)
 .debug_loc     0x000098ad      0x36f /cygdrive/c/Users/Public/Desktop/CmpE146Package/GNUARM/bin/../lib/gcc/arm-elf/4.3.2/../../../../arm-elf/lib/libc.a(lib_a-gdtoa-hexnan.o)
 .debug_loc     0x00009c1c       0xc8 /cygdrive/c/Users/Public/Desktop/CmpE146Package/GNUARM/bin/../lib/gcc/arm-elf/4.3.2/../../../../arm-elf/lib/libc.a(lib_a-locale.o)
 .debug_loc     0x00009ce4       0xcd /cygdrive/c/Users/Public/Desktop/CmpE146Package/GNUARM/bin/../lib/gcc/arm-elf/4.3.2/../../../../arm-elf/lib/libc.a(lib_a-makebuf.o)
 .debug_loc     0x00009db1      0x196 /cygdrive/c/Users/Public/Desktop/CmpE146Package/GNUARM/bin/../lib/gcc/arm-elf/4.3.2/../../../../arm-elf/lib/libc.a(lib_a-memchr.o)
 .debug_loc     0x00009f47     0x107d /cygdrive/c/Users/Public/Desktop/CmpE146Package/GNUARM/bin/../lib/gcc/arm-elf/4.3.2/../../../../arm-elf/lib/libc.a(lib_a-mprec.o)
 .debug_loc     0x0000afc4       0x4f /cygdrive/c/Users/Public/Desktop/CmpE146Package/GNUARM/bin/../lib/gcc/arm-elf/4.3.2/../../../../arm-elf/lib/libc.a(lib_a-s_isinfd.o)
 .debug_loc     0x0000b013       0x4f /cygdrive/c/Users/Public/Desktop/CmpE146Package/GNUARM/bin/../lib/gcc/arm-elf/4.3.2/../../../../arm-elf/lib/libc.a(lib_a-s_isnand.o)
 .debug_loc     0x0000b062       0x13 /cygdrive/c/Users/Public/Desktop/CmpE146Package/GNUARM/bin/../lib/gcc/arm-elf/4.3.2/../../../../arm-elf/lib/libc.a(lib_a-sf_nan.o)
 .debug_loc     0x0000b075      0x1cf /cygdrive/c/Users/Public/Desktop/CmpE146Package/GNUARM/bin/../lib/gcc/arm-elf/4.3.2/../../../../arm-elf/lib/libc.a(lib_a-stdio.o)
 .debug_loc     0x0000b244      0x9f0 /cygdrive/c/Users/Public/Desktop/CmpE146Package/GNUARM/bin/../lib/gcc/arm-elf/4.3.2/../../../../arm-elf/lib/libc.a(lib_a-syscalls.o)
 .debug_loc     0x0000bc34       0xcb /cygdrive/c/Users/Public/Desktop/CmpE146Package/GNUARM/bin/../lib/gcc/arm-elf/4.3.2/../../../../arm-elf/lib/libc.a(lib_a-callocr.o)
 .debug_loc     0x0000bcff       0x79 /cygdrive/c/Users/Public/Desktop/CmpE146Package/GNUARM/bin/../lib/gcc/arm-elf/4.3.2/../../../../arm-elf/lib/libc.a(lib_a-fclose.o)

.debug_pubnames
                0x00000000      0xbe6
 .debug_pubnames
                0x00000000       0x1b /cygdrive/c/Users/Public/Desktop/CmpE146Package/GNUARM/bin/../lib/gcc/arm-elf/4.3.2/../../../../arm-elf/lib/libc.a(lib_a-atof.o)
 .debug_pubnames
                0x0000001b       0x27 /cygdrive/c/Users/Public/Desktop/CmpE146Package/GNUARM/bin/../lib/gcc/arm-elf/4.3.2/../../../../arm-elf/lib/libc.a(lib_a-atoi.o)
 .debug_pubnames
                0x00000042       0x2d /cygdrive/c/Users/Public/Desktop/CmpE146Package/GNUARM/bin/../lib/gcc/arm-elf/4.3.2/../../../../arm-elf/lib/libc.a(lib_a-iprintf.o)
 .debug_pubnames
                0x0000006f       0x26 /cygdrive/c/Users/Public/Desktop/CmpE146Package/GNUARM/bin/../lib/gcc/arm-elf/4.3.2/../../../../arm-elf/lib/libc.a(lib_a-malloc.o)
 .debug_pubnames
                0x00000095       0xce /cygdrive/c/Users/Public/Desktop/CmpE146Package/GNUARM/bin/../lib/gcc/arm-elf/4.3.2/../../../../arm-elf/lib/libc.a(lib_a-mallocr.o)
 .debug_pubnames
                0x00000163       0x1d /cygdrive/c/Users/Public/Desktop/CmpE146Package/GNUARM/bin/../lib/gcc/arm-elf/4.3.2/../../../../arm-elf/lib/libc.a(lib_a-memcmp.o)
 .debug_pubnames
                0x00000180       0x1d /cygdrive/c/Users/Public/Desktop/CmpE146Package/GNUARM/bin/../lib/gcc/arm-elf/4.3.2/../../../../arm-elf/lib/libc.a(lib_a-memcpy.o)
 .debug_pubnames
                0x0000019d       0x1e /cygdrive/c/Users/Public/Desktop/CmpE146Package/GNUARM/bin/../lib/gcc/arm-elf/4.3.2/../../../../arm-elf/lib/libc.a(lib_a-memmove.o)
 .debug_pubnames
                0x000001bb       0x1d /cygdrive/c/Users/Public/Desktop/CmpE146Package/GNUARM/bin/../lib/gcc/arm-elf/4.3.2/../../../../arm-elf/lib/libc.a(lib_a-memset.o)
 .debug_pubnames
                0x000001d8       0x38 /cygdrive/c/Users/Public/Desktop/CmpE146Package/GNUARM/bin/../lib/gcc/arm-elf/4.3.2/../../../../arm-elf/lib/libc.a(lib_a-mlock.o)
 .debug_pubnames
                0x00000210       0x1e /cygdrive/c/Users/Public/Desktop/CmpE146Package/GNUARM/bin/../lib/gcc/arm-elf/4.3.2/../../../../arm-elf/lib/libc.a(lib_a-realloc.o)
 .debug_pubnames
                0x0000022e       0x21 /cygdrive/c/Users/Public/Desktop/CmpE146Package/GNUARM/bin/../lib/gcc/arm-elf/4.3.2/../../../../arm-elf/lib/libc.a(lib_a-reallocr.o)
 .debug_pubnames
                0x0000024f       0x2f /cygdrive/c/Users/Public/Desktop/CmpE146Package/GNUARM/bin/../lib/gcc/arm-elf/4.3.2/../../../../arm-elf/lib/libc.a(lib_a-siprintf.o)
 .debug_pubnames
                0x0000027e       0x2d /cygdrive/c/Users/Public/Desktop/CmpE146Package/GNUARM/bin/../lib/gcc/arm-elf/4.3.2/../../../../arm-elf/lib/libc.a(lib_a-sprintf.o)
 .debug_pubnames
                0x000002ab       0x1d /cygdrive/c/Users/Public/Desktop/CmpE146Package/GNUARM/bin/../lib/gcc/arm-elf/4.3.2/../../../../arm-elf/lib/libc.a(lib_a-strcat.o)
 .debug_pubnames
                0x000002c8       0x1d /cygdrive/c/Users/Public/Desktop/CmpE146Package/GNUARM/bin/../lib/gcc/arm-elf/4.3.2/../../../../arm-elf/lib/libc.a(lib_a-strchr.o)
 .debug_pubnames
                0x000002e5       0x1d /cygdrive/c/Users/Public/Desktop/CmpE146Package/GNUARM/bin/../lib/gcc/arm-elf/4.3.2/../../../../arm-elf/lib/libc.a(lib_a-strcmp.o)
 .debug_pubnames
                0x00000302       0x1d /cygdrive/c/Users/Public/Desktop/CmpE146Package/GNUARM/bin/../lib/gcc/arm-elf/4.3.2/../../../../arm-elf/lib/libc.a(lib_a-strcpy.o)
 .debug_pubnames
                0x0000031f       0x1d /cygdrive/c/Users/Public/Desktop/CmpE146Package/GNUARM/bin/../lib/gcc/arm-elf/4.3.2/../../../../arm-elf/lib/libc.a(lib_a-strlen.o)
 .debug_pubnames
                0x0000033c       0x1e /cygdrive/c/Users/Public/Desktop/CmpE146Package/GNUARM/bin/../lib/gcc/arm-elf/4.3.2/../../../../arm-elf/lib/libc.a(lib_a-strncpy.o)
 .debug_pubnames
                0x0000035a       0x1d /cygdrive/c/Users/Public/Desktop/CmpE146Package/GNUARM/bin/../lib/gcc/arm-elf/4.3.2/../../../../arm-elf/lib/libc.a(lib_a-strstr.o)
 .debug_pubnames
                0x00000377       0x36 /cygdrive/c/Users/Public/Desktop/CmpE146Package/GNUARM/bin/../lib/gcc/arm-elf/4.3.2/../../../../arm-elf/lib/libc.a(lib_a-strtod.o)
 .debug_pubnames
                0x000003ad       0x1d /cygdrive/c/Users/Public/Desktop/CmpE146Package/GNUARM/bin/../lib/gcc/arm-elf/4.3.2/../../../../arm-elf/lib/libc.a(lib_a-strtok.o)
 .debug_pubnames
                0x000003ca       0x2e /cygdrive/c/Users/Public/Desktop/CmpE146Package/GNUARM/bin/../lib/gcc/arm-elf/4.3.2/../../../../arm-elf/lib/libc.a(lib_a-strtok_r.o)
 .debug_pubnames
                0x000003f8       0x2b /cygdrive/c/Users/Public/Desktop/CmpE146Package/GNUARM/bin/../lib/gcc/arm-elf/4.3.2/../../../../arm-elf/lib/libc.a(lib_a-strtol.o)
 .debug_pubnames
                0x00000423       0x1e /cygdrive/c/Users/Public/Desktop/CmpE146Package/GNUARM/bin/../lib/gcc/arm-elf/4.3.2/../../../../arm-elf/lib/libc.a(lib_a-tolower.o)
 .debug_pubnames
                0x00000441       0x1e /cygdrive/c/Users/Public/Desktop/CmpE146Package/GNUARM/bin/../lib/gcc/arm-elf/4.3.2/../../../../arm-elf/lib/libc.a(lib_a-toupper.o)
 .debug_pubnames
                0x0000045f       0x31 /cygdrive/c/Users/Public/Desktop/CmpE146Package/GNUARM/bin/../lib/gcc/arm-elf/4.3.2/../../../../arm-elf/lib/libc.a(lib_a-vfiprintf.o)
 .debug_pubnames
                0x00000490       0x2f /cygdrive/c/Users/Public/Desktop/CmpE146Package/GNUARM/bin/../lib/gcc/arm-elf/4.3.2/../../../../arm-elf/lib/libc.a(lib_a-vfprintf.o)
 .debug_pubnames
                0x000004bf       0x22 /cygdrive/c/Users/Public/Desktop/CmpE146Package/GNUARM/bin/../lib/gcc/arm-elf/4.3.2/../../../../arm-elf/lib/libc.a(lib_a-wsetup.o)
 .debug_pubnames
                0x000004e1       0x2e /cygdrive/c/Users/Public/Desktop/CmpE146Package/GNUARM/bin/../lib/gcc/arm-elf/4.3.2/../../../../arm-elf/lib/libc.a(lib_a-ctype_.o)
 .debug_pubnames
                0x0000050f       0x1e /cygdrive/c/Users/Public/Desktop/CmpE146Package/GNUARM/bin/../lib/gcc/arm-elf/4.3.2/../../../../arm-elf/lib/libc.a(lib_a-dtoa.o)
 .debug_pubnames
                0x0000052d       0x2b /cygdrive/c/Users/Public/Desktop/CmpE146Package/GNUARM/bin/../lib/gcc/arm-elf/4.3.2/../../../../arm-elf/lib/libc.a(lib_a-fflush.o)
 .debug_pubnames
                0x00000558       0xdb /cygdrive/c/Users/Public/Desktop/CmpE146Package/GNUARM/bin/../lib/gcc/arm-elf/4.3.2/../../../../arm-elf/lib/libc.a(lib_a-findfp.o)
 .debug_pubnames
                0x00000633       0x31 /cygdrive/c/Users/Public/Desktop/CmpE146Package/GNUARM/bin/../lib/gcc/arm-elf/4.3.2/../../../../arm-elf/lib/libc.a(lib_a-freer.o)
 .debug_pubnames
                0x00000664       0x23 /cygdrive/c/Users/Public/Desktop/CmpE146Package/GNUARM/bin/../lib/gcc/arm-elf/4.3.2/../../../../arm-elf/lib/libc.a(lib_a-fvwrite.o)
 .debug_pubnames
                0x00000687       0x2e /cygdrive/c/Users/Public/Desktop/CmpE146Package/GNUARM/bin/../lib/gcc/arm-elf/4.3.2/../../../../arm-elf/lib/libc.a(lib_a-fwalk.o)
 .debug_pubnames
                0x000006b5       0x3e /cygdrive/c/Users/Public/Desktop/CmpE146Package/GNUARM/bin/../lib/gcc/arm-elf/4.3.2/../../../../arm-elf/lib/libc.a(lib_a-gdtoa-gethex.o)
 .debug_pubnames
                0x000006f3       0x1f /cygdrive/c/Users/Public/Desktop/CmpE146Package/GNUARM/bin/../lib/gcc/arm-elf/4.3.2/../../../../arm-elf/lib/libc.a(lib_a-gdtoa-hexnan.o)
 .debug_pubnames
                0x00000712       0x39 /cygdrive/c/Users/Public/Desktop/CmpE146Package/GNUARM/bin/../lib/gcc/arm-elf/4.3.2/../../../../arm-elf/lib/libc.a(lib_a-impure.o)
 .debug_pubnames
                0x0000074b       0xc3 /cygdrive/c/Users/Public/Desktop/CmpE146Package/GNUARM/bin/../lib/gcc/arm-elf/4.3.2/../../../../arm-elf/lib/libc.a(lib_a-locale.o)
 .debug_pubnames
                0x0000080e       0x23 /cygdrive/c/Users/Public/Desktop/CmpE146Package/GNUARM/bin/../lib/gcc/arm-elf/4.3.2/../../../../arm-elf/lib/libc.a(lib_a-makebuf.o)
 .debug_pubnames
                0x00000831       0x1d /cygdrive/c/Users/Public/Desktop/CmpE146Package/GNUARM/bin/../lib/gcc/arm-elf/4.3.2/../../../../arm-elf/lib/libc.a(lib_a-memchr.o)
 .debug_pubnames
                0x0000084e      0x13a /cygdrive/c/Users/Public/Desktop/CmpE146Package/GNUARM/bin/../lib/gcc/arm-elf/4.3.2/../../../../arm-elf/lib/libc.a(lib_a-mprec.o)
 .debug_pubnames
                0x00000988       0x1f /cygdrive/c/Users/Public/Desktop/CmpE146Package/GNUARM/bin/../lib/gcc/arm-elf/4.3.2/../../../../arm-elf/lib/libc.a(lib_a-s_isinfd.o)
 .debug_pubnames
                0x000009a7       0x1f /cygdrive/c/Users/Public/Desktop/CmpE146Package/GNUARM/bin/../lib/gcc/arm-elf/4.3.2/../../../../arm-elf/lib/libc.a(lib_a-s_isnand.o)
 .debug_pubnames
                0x000009c6       0x1b /cygdrive/c/Users/Public/Desktop/CmpE146Package/GNUARM/bin/../lib/gcc/arm-elf/4.3.2/../../../../arm-elf/lib/libc.a(lib_a-sf_nan.o)
 .debug_pubnames
                0x000009e1       0x44 /cygdrive/c/Users/Public/Desktop/CmpE146Package/GNUARM/bin/../lib/gcc/arm-elf/4.3.2/../../../../arm-elf/lib/libc.a(lib_a-stdio.o)
 .debug_pubnames
                0x00000a25      0x158 /cygdrive/c/Users/Public/Desktop/CmpE146Package/GNUARM/bin/../lib/gcc/arm-elf/4.3.2/../../../../arm-elf/lib/libc.a(lib_a-syscalls.o)
 .debug_pubnames
                0x00000b7d       0x20 /cygdrive/c/Users/Public/Desktop/CmpE146Package/GNUARM/bin/../lib/gcc/arm-elf/4.3.2/../../../../arm-elf/lib/libc.a(lib_a-callocr.o)
 .debug_pubnames
                0x00000b9d       0x1e /cygdrive/c/Users/Public/Desktop/CmpE146Package/GNUARM/bin/../lib/gcc/arm-elf/4.3.2/../../../../arm-elf/lib/libc.a(lib_a-errno.o)
 .debug_pubnames
                0x00000bbb       0x2b /cygdrive/c/Users/Public/Desktop/CmpE146Package/GNUARM/bin/../lib/gcc/arm-elf/4.3.2/../../../../arm-elf/lib/libc.a(lib_a-fclose.o)

.debug_str      0x00000000     0x2000
 .debug_str     0x00000000       0xc7 /cygdrive/c/Users/Public/Desktop/CmpE146Package/GNUARM/bin/../lib/gcc/arm-elf/4.3.2/../../../../arm-elf/lib/libc.a(lib_a-atof.o)
                                0x107 (size before relaxing)
 .debug_str     0x000000c7      0x387 /cygdrive/c/Users/Public/Desktop/CmpE146Package/GNUARM/bin/../lib/gcc/arm-elf/4.3.2/../../../../arm-elf/lib/libc.a(lib_a-atoi.o)
                                0x49d (size before relaxing)
 .debug_str     0x0000044e       0x93 /cygdrive/c/Users/Public/Desktop/CmpE146Package/GNUARM/bin/../lib/gcc/arm-elf/4.3.2/../../../../arm-elf/lib/libc.a(lib_a-iprintf.o)
                                0x4d9 (size before relaxing)
 .debug_str     0x000004e1       0x4c /cygdrive/c/Users/Public/Desktop/CmpE146Package/GNUARM/bin/../lib/gcc/arm-elf/4.3.2/../../../../arm-elf/lib/libc.a(lib_a-malloc.o)
                                0x4bd (size before relaxing)
 .debug_str     0x0000052d      0x206 /cygdrive/c/Users/Public/Desktop/CmpE146Package/GNUARM/bin/../lib/gcc/arm-elf/4.3.2/../../../../arm-elf/lib/libc.a(lib_a-mallocr.o)
                                0x692 (size before relaxing)
 .debug_str     0x00000733       0x6f /cygdrive/c/Users/Public/Desktop/CmpE146Package/GNUARM/bin/../lib/gcc/arm-elf/4.3.2/../../../../arm-elf/lib/libc.a(lib_a-memcmp.o)
                                0x10b (size before relaxing)
 .debug_str     0x000007a2       0x67 /cygdrive/c/Users/Public/Desktop/CmpE146Package/GNUARM/bin/../lib/gcc/arm-elf/4.3.2/../../../../arm-elf/lib/libc.a(lib_a-memcpy.o)
                                 0xc9 (size before relaxing)
 .debug_str     0x00000809       0x5b /cygdrive/c/Users/Public/Desktop/CmpE146Package/GNUARM/bin/../lib/gcc/arm-elf/4.3.2/../../../../arm-elf/lib/libc.a(lib_a-memmove.o)
                                0x13e (size before relaxing)
 .debug_str     0x00000864       0x54 /cygdrive/c/Users/Public/Desktop/CmpE146Package/GNUARM/bin/../lib/gcc/arm-elf/4.3.2/../../../../arm-elf/lib/libc.a(lib_a-memset.o)
                                0x11f (size before relaxing)
 .debug_str     0x000008b8       0x6b /cygdrive/c/Users/Public/Desktop/CmpE146Package/GNUARM/bin/../lib/gcc/arm-elf/4.3.2/../../../../arm-elf/lib/libc.a(lib_a-mlock.o)
                                0x4c4 (size before relaxing)
 .debug_str     0x00000923       0x42 /cygdrive/c/Users/Public/Desktop/CmpE146Package/GNUARM/bin/../lib/gcc/arm-elf/4.3.2/../../../../arm-elf/lib/libc.a(lib_a-realloc.o)
                                0x4b5 (size before relaxing)
 .debug_str     0x00000965       0x61 /cygdrive/c/Users/Public/Desktop/CmpE146Package/GNUARM/bin/../lib/gcc/arm-elf/4.3.2/../../../../arm-elf/lib/libc.a(lib_a-reallocr.o)
                                0x564 (size before relaxing)
 .debug_str     0x000009c6       0x4f /cygdrive/c/Users/Public/Desktop/CmpE146Package/GNUARM/bin/../lib/gcc/arm-elf/4.3.2/../../../../arm-elf/lib/libc.a(lib_a-siprintf.o)
                                0x4e1 (size before relaxing)
 .debug_str     0x00000a15       0x4c /cygdrive/c/Users/Public/Desktop/CmpE146Package/GNUARM/bin/../lib/gcc/arm-elf/4.3.2/../../../../arm-elf/lib/libc.a(lib_a-sprintf.o)
                                0x4de (size before relaxing)
 .debug_str     0x00000a61       0x4b /cygdrive/c/Users/Public/Desktop/CmpE146Package/GNUARM/bin/../lib/gcc/arm-elf/4.3.2/../../../../arm-elf/lib/libc.a(lib_a-strcat.o)
                                0x10f (size before relaxing)
 .debug_str     0x00000aac       0x40 /cygdrive/c/Users/Public/Desktop/CmpE146Package/GNUARM/bin/../lib/gcc/arm-elf/4.3.2/../../../../arm-elf/lib/libc.a(lib_a-strchr.o)
                                0x116 (size before relaxing)
 .debug_str     0x00000aec       0x40 /cygdrive/c/Users/Public/Desktop/CmpE146Package/GNUARM/bin/../lib/gcc/arm-elf/4.3.2/../../../../arm-elf/lib/libc.a(lib_a-strcmp.o)
                                0x104 (size before relaxing)
 .debug_str     0x00000b2c       0x40 /cygdrive/c/Users/Public/Desktop/CmpE146Package/GNUARM/bin/../lib/gcc/arm-elf/4.3.2/../../../../arm-elf/lib/libc.a(lib_a-strcpy.o)
                                0x126 (size before relaxing)
 .debug_str     0x00000b6c       0x46 /cygdrive/c/Users/Public/Desktop/CmpE146Package/GNUARM/bin/../lib/gcc/arm-elf/4.3.2/../../../../arm-elf/lib/libc.a(lib_a-strlen.o)
                                0x11e (size before relaxing)
 .debug_str     0x00000bb2       0x42 /cygdrive/c/Users/Public/Desktop/CmpE146Package/GNUARM/bin/../lib/gcc/arm-elf/4.3.2/../../../../arm-elf/lib/libc.a(lib_a-strncpy.o)
                                0x135 (size before relaxing)
 .debug_str     0x00000bf4       0x51 /cygdrive/c/Users/Public/Desktop/CmpE146Package/GNUARM/bin/../lib/gcc/arm-elf/4.3.2/../../../../arm-elf/lib/libc.a(lib_a-strstr.o)
                                0x11c (size before relaxing)
 .debug_str     0x00000c45      0x208 /cygdrive/c/Users/Public/Desktop/CmpE146Package/GNUARM/bin/../lib/gcc/arm-elf/4.3.2/../../../../arm-elf/lib/libc.a(lib_a-strtod.o)
                                0x68c (size before relaxing)
 .debug_str     0x00000e4d       0x40 /cygdrive/c/Users/Public/Desktop/CmpE146Package/GNUARM/bin/../lib/gcc/arm-elf/4.3.2/../../../../arm-elf/lib/libc.a(lib_a-strtok.o)
                                0x4ab (size before relaxing)
 .debug_str     0x00000e8d       0x65 /cygdrive/c/Users/Public/Desktop/CmpE146Package/GNUARM/bin/../lib/gcc/arm-elf/4.3.2/../../../../arm-elf/lib/libc.a(lib_a-strtok_r.o)
                                0x13d (size before relaxing)
 .debug_str     0x00000ef2       0x70 /cygdrive/c/Users/Public/Desktop/CmpE146Package/GNUARM/bin/../lib/gcc/arm-elf/4.3.2/../../../../arm-elf/lib/libc.a(lib_a-strtol.o)
                                0x4df (size before relaxing)
 .debug_str     0x00000f62       0x6f /cygdrive/c/Users/Public/Desktop/CmpE146Package/GNUARM/bin/../lib/gcc/arm-elf/4.3.2/../../../../arm-elf/lib/libc.a(lib_a-tolower.o)
                                 0x8c (size before relaxing)
 .debug_str     0x00000fd1       0x41 /cygdrive/c/Users/Public/Desktop/CmpE146Package/GNUARM/bin/../lib/gcc/arm-elf/4.3.2/../../../../arm-elf/lib/libc.a(lib_a-toupper.o)
                                 0x8c (size before relaxing)
 .debug_str     0x00001012      0x122 /cygdrive/c/Users/Public/Desktop/CmpE146Package/GNUARM/bin/../lib/gcc/arm-elf/4.3.2/../../../../arm-elf/lib/libc.a(lib_a-vfiprintf.o)
                                0x604 (size before relaxing)
 .debug_str     0x00001134       0x7b /cygdrive/c/Users/Public/Desktop/CmpE146Package/GNUARM/bin/../lib/gcc/arm-elf/4.3.2/../../../../arm-elf/lib/libc.a(lib_a-vfprintf.o)
                                0x695 (size before relaxing)
 .debug_str     0x000011af       0x44 /cygdrive/c/Users/Public/Desktop/CmpE146Package/GNUARM/bin/../lib/gcc/arm-elf/4.3.2/../../../../arm-elf/lib/libc.a(lib_a-wsetup.o)
                                0x4ad (size before relaxing)
 .debug_str     0x000011f3       0x40 /cygdrive/c/Users/Public/Desktop/CmpE146Package/GNUARM/bin/../lib/gcc/arm-elf/4.3.2/../../../../arm-elf/lib/libc.a(lib_a-ctype_.o)
                                 0x8b (size before relaxing)
 .debug_str     0x00001233       0xd7 /cygdrive/c/Users/Public/Desktop/CmpE146Package/GNUARM/bin/../lib/gcc/arm-elf/4.3.2/../../../../arm-elf/lib/libc.a(lib_a-dtoa.o)
                                0x5a2 (size before relaxing)
 .debug_str     0x0000130a       0x63 /cygdrive/c/Users/Public/Desktop/CmpE146Package/GNUARM/bin/../lib/gcc/arm-elf/4.3.2/../../../../arm-elf/lib/libc.a(lib_a-fflush.o)
                                0x4d3 (size before relaxing)
 .debug_str     0x0000136d      0x100 /cygdrive/c/Users/Public/Desktop/CmpE146Package/GNUARM/bin/../lib/gcc/arm-elf/4.3.2/../../../../arm-elf/lib/libc.a(lib_a-findfp.o)
                                0x595 (size before relaxing)
 .debug_str     0x0000146d       0x3c /cygdrive/c/Users/Public/Desktop/CmpE146Package/GNUARM/bin/../lib/gcc/arm-elf/4.3.2/../../../../arm-elf/lib/libc.a(lib_a-freer.o)
                                0x5e4 (size before relaxing)
 .debug_str     0x000014a9       0x5c /cygdrive/c/Users/Public/Desktop/CmpE146Package/GNUARM/bin/../lib/gcc/arm-elf/4.3.2/../../../../arm-elf/lib/libc.a(lib_a-fvwrite.o)
                                0x504 (size before relaxing)
 .debug_str     0x00001505       0x5c /cygdrive/c/Users/Public/Desktop/CmpE146Package/GNUARM/bin/../lib/gcc/arm-elf/4.3.2/../../../../arm-elf/lib/libc.a(lib_a-fwalk.o)
                                0x4d6 (size before relaxing)
 .debug_str     0x00001561       0xd6 /cygdrive/c/Users/Public/Desktop/CmpE146Package/GNUARM/bin/../lib/gcc/arm-elf/4.3.2/../../../../arm-elf/lib/libc.a(lib_a-gdtoa-gethex.o)
                                0x661 (size before relaxing)
 .debug_str     0x00001637       0x50 /cygdrive/c/Users/Public/Desktop/CmpE146Package/GNUARM/bin/../lib/gcc/arm-elf/4.3.2/../../../../arm-elf/lib/libc.a(lib_a-gdtoa-hexnan.o)
                                0x23a (size before relaxing)
 .debug_str     0x00001687       0x72 /cygdrive/c/Users/Public/Desktop/CmpE146Package/GNUARM/bin/../lib/gcc/arm-elf/4.3.2/../../../../arm-elf/lib/libc.a(lib_a-impure.o)
                                0x4bb (size before relaxing)
 .debug_str     0x000016f9      0x1c6 /cygdrive/c/Users/Public/Desktop/CmpE146Package/GNUARM/bin/../lib/gcc/arm-elf/4.3.2/../../../../arm-elf/lib/libc.a(lib_a-locale.o)
                                0x64a (size before relaxing)
 .debug_str     0x000018bf      0x121 /cygdrive/c/Users/Public/Desktop/CmpE146Package/GNUARM/bin/../lib/gcc/arm-elf/4.3.2/../../../../arm-elf/lib/libc.a(lib_a-makebuf.o)
                                0x5a7 (size before relaxing)
 .debug_str     0x000019e0       0x45 /cygdrive/c/Users/Public/Desktop/CmpE146Package/GNUARM/bin/../lib/gcc/arm-elf/4.3.2/../../../../arm-elf/lib/libc.a(lib_a-memchr.o)
                                0x12c (size before relaxing)
 .debug_str     0x00001a25       0xf6 /cygdrive/c/Users/Public/Desktop/CmpE146Package/GNUARM/bin/../lib/gcc/arm-elf/4.3.2/../../../../arm-elf/lib/libc.a(lib_a-mprec.o)
                                0x5af (size before relaxing)
 .debug_str     0x00001b1b       0x95 /cygdrive/c/Users/Public/Desktop/CmpE146Package/GNUARM/bin/../lib/gcc/arm-elf/4.3.2/../../../../arm-elf/lib/libc.a(lib_a-s_isinfd.o)
                                0x15e (size before relaxing)
 .debug_str     0x00001bb0       0x44 /cygdrive/c/Users/Public/Desktop/CmpE146Package/GNUARM/bin/../lib/gcc/arm-elf/4.3.2/../../../../arm-elf/lib/libc.a(lib_a-s_isnand.o)
                                0x15e (size before relaxing)
 .debug_str     0x00001bf4       0x5e /cygdrive/c/Users/Public/Desktop/CmpE146Package/GNUARM/bin/../lib/gcc/arm-elf/4.3.2/../../../../arm-elf/lib/libc.a(lib_a-sf_nan.o)
                                0x153 (size before relaxing)
 .debug_str     0x00001c52       0x60 /cygdrive/c/Users/Public/Desktop/CmpE146Package/GNUARM/bin/../lib/gcc/arm-elf/4.3.2/../../../../arm-elf/lib/libc.a(lib_a-stdio.o)
                                0x4d2 (size before relaxing)
 .debug_str     0x00001cb2      0x27f /cygdrive/c/Users/Public/Desktop/CmpE146Package/GNUARM/bin/../lib/gcc/arm-elf/4.3.2/../../../../arm-elf/lib/libc.a(lib_a-syscalls.o)
                                0x7e0 (size before relaxing)
 .debug_str     0x00001f31       0x19 /cygdrive/c/Users/Public/Desktop/CmpE146Package/GNUARM/bin/../lib/gcc/arm-elf/4.3.2/../../../../arm-elf/lib/libc.a(lib_a-callocr.o)
                                0x4e3 (size before relaxing)
 .debug_str     0x00001f4a       0x6d /cygdrive/c/Users/Public/Desktop/CmpE146Package/GNUARM/bin/../lib/gcc/arm-elf/4.3.2/../../../../arm-elf/lib/libc.a(lib_a-errno.o)
                                0x4a3 (size before relaxing)
 .debug_str     0x00001fb7       0x49 /cygdrive/c/Users/Public/Desktop/CmpE146Package/GNUARM/bin/../lib/gcc/arm-elf/4.3.2/../../../../arm-elf/lib/libc.a(lib_a-fclose.o)
                                0x4b7 (size before relaxing)

.debug_ranges   0x00000000      0x720
 .debug_ranges  0x00000000       0x58 /cygdrive/c/Users/Public/Desktop/CmpE146Package/GNUARM/bin/../lib/gcc/arm-elf/4.3.2/../../../../arm-elf/lib/libc.a(lib_a-mallocr.o)
 .debug_ranges  0x00000058       0x58 /cygdrive/c/Users/Public/Desktop/CmpE146Package/GNUARM/bin/../lib/gcc/arm-elf/4.3.2/../../../../arm-elf/lib/libc.a(lib_a-reallocr.o)
 .debug_ranges  0x000000b0       0xa8 /cygdrive/c/Users/Public/Desktop/CmpE146Package/GNUARM/bin/../lib/gcc/arm-elf/4.3.2/../../../../arm-elf/lib/libc.a(lib_a-strtod.o)
 .debug_ranges  0x00000158       0x40 /cygdrive/c/Users/Public/Desktop/CmpE146Package/GNUARM/bin/../lib/gcc/arm-elf/4.3.2/../../../../arm-elf/lib/libc.a(lib_a-vfiprintf.o)
 .debug_ranges  0x00000198      0x128 /cygdrive/c/Users/Public/Desktop/CmpE146Package/GNUARM/bin/../lib/gcc/arm-elf/4.3.2/../../../../arm-elf/lib/libc.a(lib_a-vfprintf.o)
 .debug_ranges  0x000002c0       0x38 /cygdrive/c/Users/Public/Desktop/CmpE146Package/GNUARM/bin/../lib/gcc/arm-elf/4.3.2/../../../../arm-elf/lib/libc.a(lib_a-fflush.o)
 .debug_ranges  0x000002f8       0x80 /cygdrive/c/Users/Public/Desktop/CmpE146Package/GNUARM/bin/../lib/gcc/arm-elf/4.3.2/../../../../arm-elf/lib/libc.a(lib_a-findfp.o)
 .debug_ranges  0x00000378       0x20 /cygdrive/c/Users/Public/Desktop/CmpE146Package/GNUARM/bin/../lib/gcc/arm-elf/4.3.2/../../../../arm-elf/lib/libc.a(lib_a-fvwrite.o)
 .debug_ranges  0x00000398       0x40 /cygdrive/c/Users/Public/Desktop/CmpE146Package/GNUARM/bin/../lib/gcc/arm-elf/4.3.2/../../../../arm-elf/lib/libc.a(lib_a-fwalk.o)
 .debug_ranges  0x000003d8       0x40 /cygdrive/c/Users/Public/Desktop/CmpE146Package/GNUARM/bin/../lib/gcc/arm-elf/4.3.2/../../../../arm-elf/lib/libc.a(lib_a-gdtoa-gethex.o)
 .debug_ranges  0x00000418       0x98 /cygdrive/c/Users/Public/Desktop/CmpE146Package/GNUARM/bin/../lib/gcc/arm-elf/4.3.2/../../../../arm-elf/lib/libc.a(lib_a-mprec.o)
 .debug_ranges  0x000004b0      0x258 /cygdrive/c/Users/Public/Desktop/CmpE146Package/GNUARM/bin/../lib/gcc/arm-elf/4.3.2/../../../../arm-elf/lib/libc.a(lib_a-syscalls.o)
 .debug_ranges  0x00000708       0x18 /cygdrive/c/Users/Public/Desktop/CmpE146Package/GNUARM/bin/../lib/gcc/arm-elf/4.3.2/../../../../arm-elf/lib/libc.a(lib_a-callocr.o)
