   1              		.file	"userInterface.cpp"
   2              		.section	.rodata.str1.1,"aMS",%progbits,1
   3              	.LC0:
   4 0000 08200800 		.ascii	"\010 \010\000"
   5              		.text
   6              		.align	2
   7              		.global	_Z11getUartLinePc
   9              	_Z11getUartLinePc:
  10              		@ args = 0, pretend = 0, frame = 4
  11              		@ frame_needed = 0, uses_anonymous_args = 0
  12 0000 70402DE9 		stmfd	sp!, {r4, r5, r6, lr}
  13 0004 04D04DE2 		sub	sp, sp, #4
  14 0008 0050A0E1 		mov	r5, r0
  15 000c 0040A0E3 		mov	r4, #0
  16 0010 03608DE2 		add	r6, sp, #3
  17              	.L9:
  18 0014 0010E0E3 		mvn	r1, #0
  19 0018 0600A0E1 		mov	r0, r6
  20 001c FEFFFFEB 		bl	uart0GetChar
  21 0020 000050E3 		cmp	r0, #0
  22 0024 FAFFFF0A 		beq	.L9
  23 0028 0320DDE5 		ldrb	r2, [sp, #3]	@ zero_extendqisi2
  24 002c 0A0052E3 		cmp	r2, #10
  25 0030 0600001A 		bne	.L3
  26 0034 0030A0E3 		mov	r3, #0
  27 0038 0430C5E7 		strb	r3, [r5, r4]
  28 003c 0200A0E1 		mov	r0, r2
  29 0040 6410A0E3 		mov	r1, #100
  30 0044 FEFFFFEB 		bl	uart0PutChar
  31 0048 04D08DE2 		add	sp, sp, #4
  32 004c 7080BDE8 		ldmfd	sp!, {r4, r5, r6, pc}
  33              	.L3:
  34 0050 0D0052E3 		cmp	r2, #13
  35 0054 EEFFFF0A 		beq	.L9
  36 0058 080052E3 		cmp	r2, #8
  37 005c 0200A0E1 		mov	r0, r2
  38 0060 6410A0E3 		mov	r1, #100
  39 0064 0800001A 		bne	.L4
  40 0068 001054E2 		subs	r1, r4, #0
  41 006c 2C009FE5 		ldr	r0, .L10
  42 0070 0200000A 		beq	.L5
  43 0074 014044E2 		sub	r4, r4, #1
  44 0078 FEFFFFEB 		bl	rprintf
  45 007c E4FFFFEA 		b	.L9
  46              	.L5:
  47 0080 0700A0E3 		mov	r0, #7
  48 0084 FEFFFFEB 		bl	uart0PutChar
  49 0088 E1FFFFEA 		b	.L9
  50              	.L4:
  51 008c FEFFFFEB 		bl	uart0PutChar
  52 0090 0330DDE5 		ldrb	r3, [sp, #3]	@ zero_extendqisi2
  53 0094 0430C5E7 		strb	r3, [r5, r4]
  54 0098 014084E2 		add	r4, r4, #1
  55 009c DCFFFFEA 		b	.L9
  56              	.L11:
  57              		.align	2
  58              	.L10:
  59 00a0 00000000 		.word	.LC0
  61              		.section	.rodata.str1.1
  62              	.LC1:
  63 0004 2D2D2D2D 		.ascii	"---------------------------------------------------"
  63      2D2D2D2D 
  63      2D2D2D2D 
  63      2D2D2D2D 
  63      2D2D2D2D 
  64 0037 2D2D2D2D 		.ascii	"---------------------------------\012\000"
  64      2D2D2D2D 
  64      2D2D2D2D 
  64      2D2D2D2D 
  64      2D2D2D2D 
  65              		.text
  66              		.align	2
  67              		.global	_Z9printLinev
  69              	_Z9printLinev:
  70              		@ args = 0, pretend = 0, frame = 0
  71              		@ frame_needed = 0, uses_anonymous_args = 0
  72              		@ link register save eliminated.
  73 00a4 00009FE5 		ldr	r0, .L14
  74 00a8 FEFFFFEA 		b	rprintf
  75              	.L15:
  76              		.align	2
  77              	.L14:
  78 00ac 04000000 		.word	.LC1
  80              		.section	.rodata.str1.1
  81              	.LC2:
  82 005a 596F7520 		.ascii	"You did not create an SPI Mutex\012\000"
  82      64696420 
  82      6E6F7420 
  82      63726561 
  82      74652061 
  83              	.LC3:
  84 007b 5741524E 		.ascii	"WARNING: SD CARD Could not be mounted!\012\000"
  84      494E473A 
  84      20534420 
  84      43415244 
  84      20436F75 
  85              	.LC4:
  86 00a3 4C50433A 		.ascii	"LPC: \000"
  86      2000
  87              	.LC5:
  88 00a9 2000     		.ascii	" \000"
  89              	.LC6:
  90 00ab 6563686F 		.ascii	"echo\000"
  90      00
  91              	.LC7:
  92 00b0 00       		.ascii	"\000"
  93              	.LC8:
  94 00b1 4563686F 		.ascii	"Echo: %s\012\000"
  94      3A202573 
  94      0A00
  95              	.LC9:
  96 00bb 6C7300   		.ascii	"ls\000"
  97              	.LC11:
  98 00be 496E7661 		.ascii	"Invalid directory: |%s|\012\000"
  98      6C696420 
  98      64697265 
  98      63746F72 
  98      793A207C 
  99              	.LC12:
 100 00d7 44697265 		.ascii	"Directory listing of: %s\012\012\000"
 100      63746F72 
 100      79206C69 
 100      7374696E 
 100      67206F66 
 101              	.LC13:
 102 00f2 25632563 		.ascii	"%c%c%c%c%c %u/%2u/%2u %2u:%2u %10lu %13s\000"
 102      25632563 
 102      25632025 
 102      752F2532 
 102      752F2532 
 103              	.LC14:
 104 011b 202D2D20 		.ascii	" -- %s\000"
 104      257300
 105              	.LC15:
 106 0122 0A00     		.ascii	"\012\000"
 107              	.LC16:
 108 0124 0A253475 		.ascii	"\012%4u File(s), %10u bytes total\012%4u Dir(s)\000"
 108      2046696C 
 108      65287329 
 108      2C202531 
 108      30752062 
 109              	.LC17:
 110 014e 2C202531 		.ascii	", %10uK bytes free\012\000"
 110      30754B20 
 110      62797465 
 110      73206672 
 110      65650A00 
 111              	.LC18:
 112 0162 72656164 		.ascii	"read\000"
 112      00
 113              	.LC19:
 114 0167 46696C65 		.ascii	"File to read: |%s|\012\000"
 114      20746F20 
 114      72656164 
 114      3A207C25 
 114      737C0A00 
 115              	.LC20:
 116 017b 46696C65 		.ascii	"File successfully opened\012\000"
 116      20737563 
 116      63657373 
 116      66756C6C 
 116      79206F70 
 117              	.LC21:
 118 0195 46696C65 		.ascii	"File Contents:\012\000"
 118      20436F6E 
 118      74656E74 
 118      733A0A00 
 119              	.LC22:
 120 01a5 2D2D4661 		.ascii	"--Failed to read file after having it opened--\012\000"
 120      696C6564 
 120      20746F20 
 120      72656164 
 120      2066696C 
 121              	.LC23:
 122 01d5 20202020 		.ascii	"    %s\000"
 122      257300
 123              	.LC24:
 124 01dc 46696C65 		.ascii	"File is closed\012\000"
 124      20697320 
 124      636C6F73 
 124      65640A00 
 125              	.LC25:
 126 01ec 4661696C 		.ascii	"Failed to open the file\012\000"
 126      65642074 
 126      6F206F70 
 126      656E2074 
 126      68652066 
 127              	.LC26:
 128 0205 77726974 		.ascii	"write\000"
 128      6500
 129              	.LC27:
 130 020b 46696C65 		.ascii	"File to write: |%s|\012\000"
 130      20746F20 
 130      77726974 
 130      653A207C 
 130      25737C0A 
 131              	.LC29:
 132 0220 4661696C 		.ascii	"Failed to write file\012\000"
 132      65642074 
 132      6F207772 
 132      69746520 
 132      66696C65 
 133              	.LC30:
 134 0236 43505500 		.ascii	"CPU\000"
 135              	.LC31:
 136 023a 257300   		.ascii	"%s\000"
 137              	.LC32:
 138 023d 43505572 		.ascii	"CPUr\000"
 138      00
 139              	.LC33:
 140 0242 4350556E 		.ascii	"CPUn\000"
 140      00
 141              	.LC34:
 142 0247 44656C61 		.ascii	"Delaying for %ims.  CPU Usage will be reported afte"
 142      79696E67 
 142      20666F72 
 142      2025696D 
 142      732E2020 
 143 027a 72776172 		.ascii	"rwards...\012\000"
 143      64732E2E 
 143      2E0A00
 144              	.LC35:
 145 0285 596F7520 		.ascii	"You must define a delay time in milliseconds as par"
 145      6D757374 
 145      20646566 
 145      696E6520 
 145      61206465 
 146 02b8 616D6574 		.ascii	"ameter.\012\000"
 146      65722E0A 
 146      00
 147              	.LC36:
 148 02c1 696E666F 		.ascii	"info\000"
 148      00
 149              	.LC37:
 150 02c6 48454C50 		.ascii	"HELP\000"
 150      00
 151              	.LC38:
 152 02cb 436F6D6D 		.ascii	"Command list:\012\000"
 152      616E6420 
 152      6C697374 
 152      3A0A00
 153              	.LC39:
 154 02da 6563686F 		.ascii	"echo <anything>    - Echoes back anything sent.\012"
 154      203C616E 
 154      79746869 
 154      6E673E20 
 154      2020202D 
 155 030a 00       		.ascii	"\000"
 156              	.LC40:
 157 030b 6C732020 		.ascii	"ls                 - Get directory listing.\012\000"
 157      20202020 
 157      20202020 
 157      20202020 
 157      2020202D 
 158              	.LC41:
 159 0338 72656164 		.ascii	"read <filename>    - Read a file.\012\000"
 159      203C6669 
 159      6C656E61 
 159      6D653E20 
 159      2020202D 
 160              	.LC42:
 161 035b 77726974 		.ascii	"write <filename>   - Wrie a file.\012\000"
 161      65203C66 
 161      696C656E 
 161      616D653E 
 161      2020202D 
 162              	.LC43:
 163 037e 43505520 		.ascii	"CPU                - Show tasks and CPU Allocation."
 163      20202020 
 163      20202020 
 163      20202020 
 163      2020202D 
 164 03b1 0A00     		.ascii	"\012\000"
 165              	.LC44:
 166 03b3 43505572 		.ascii	"CPUr               - Show tasks and CPU Allocation "
 166      20202020 
 166      20202020 
 166      20202020 
 166      2020202D 
 167 03e6 26207265 		.ascii	"& reset counters\012\000"
 167      73657420 
 167      636F756E 
 167      74657273 
 167      0A00
 168              	.LC45:
 169 03f8 4350556E 		.ascii	"CPUn <# ms>        - Reset counters, delay, then re"
 169      203C2320 
 169      6D733E20 
 169      20202020 
 169      2020202D 
 170 042b 706F7274 		.ascii	"port CPU usage & reset counters\012\000"
 170      20435055 
 170      20757361 
 170      67652026 
 170      20726573 
 171              	.LC46:
 172 044c 696E666F 		.ascii	"info               - Show tasks and their Stack-hig"
 172      20202020 
 172      20202020 
 172      20202020 
 172      2020202D 
 173 047f 68207761 		.ascii	"h watermark.\012\000"
 173      7465726D 
 173      61726B2E 
 173      0A00
 174              	.LC47:
 175 048d 436F6D6D 		.ascii	"Command not recognized.\012\000"
 175      616E6420 
 175      6E6F7420 
 175      7265636F 
 175      676E697A 
 176              	.LC10:
 177 04a6 303A00   		.ascii	"0:\000"
 178              	.LC28:
 179 04a9 46696C65 		.ascii	"File written using FATFS From Chen\012\000"
 179      20777269 
 179      7474656E 
 179      20757369 
 179      6E672046 
 180              		.text
 181              		.align	2
 182              		.global	_Z6uartUIPv
 184              	_Z6uartUIPv:
 185              		@ args = 0, pretend = 0, frame = 1876
 186              		@ frame_needed = 0, uses_anonymous_args = 0
 187 00b0 F04F2DE9 		stmfd	sp!, {r4, r5, r6, r7, r8, r9, sl, fp, lr}
 188 00b4 1C3090E5 		ldr	r3, [r0, #28]
 189 00b8 77DE4DE2 		sub	sp, sp, #1904
 190 00bc 000053E3 		cmp	r3, #0
 191 00c0 08D04DE2 		sub	sp, sp, #8
 192 00c4 0040A0E1 		mov	r4, r0
 193 00c8 0200001A 		bne	.L17
 194 00cc 2C059FE5 		ldr	r0, .L60
 195 00d0 FEFFFFEB 		bl	rprintf
 196              	.L18:
 197 00d4 FEFFFFEA 		b	.L18
 198              	.L17:
 199 00d8 FEFFFFEB 		bl	initialize_SSPSPI
 200 00dc 20059FE5 		ldr	r0, .L60+4
 201 00e0 FEFFFFEB 		bl	initialize_I2C0
 202 00e4 1C0084E2 		add	r0, r4, #28
 203 00e8 FEFFFFEB 		bl	diskio_initializeSPIMutex
 204 00ec FEFFFFEB 		bl	initialize_SdCardSignals
 205 00f0 FEFFFFEB 		bl	initialize_sta013
 206 00f4 FEFFFFEB 		bl	initialize_pcm1774
 207 00f8 0000A0E3 		mov	r0, #0
 208 00fc 28108DE2 		add	r1, sp, #40
 209 0100 FEFFFFEB 		bl	f_mount
 210 0104 000050E3 		cmp	r0, #0
 211 0108 F8049F15 		ldrne	r0, .L60+8
 212 010c FEFFFF1B 		blne	rprintf
 213              	.L51:
 214 0110 1D3D8DE2 		add	r3, sp, #1856
 215 0114 0C3083E2 		add	r3, r3, #12
 216 0118 093083E2 		add	r3, r3, #9
 217 011c 9ABF8DE2 		add	fp, sp, #616
 218 0120 24308DE5 		str	r3, [sp, #36]
 219 0124 09B04BE2 		sub	fp, fp, #9
 220              	.L54:
 221 0128 DC049FE5 		ldr	r0, .L60+12
 222 012c 665E8DE2 		add	r5, sp, #1632
 223 0130 FEFFFFEB 		bl	rprintf
 224 0134 0010A0E3 		mov	r1, #0
 225 0138 8020A0E3 		mov	r2, #128
 226 013c 0500A0E1 		mov	r0, r5
 227 0140 FEFFFFEB 		bl	memset
 228 0144 0500A0E1 		mov	r0, r5
 229 0148 FEFFFFEB 		bl	_Z11getUartLinePc
 230 014c 6036DDE5 		ldrb	r3, [sp, #1632]	@ zero_extendqisi2
 231 0150 000053E3 		cmp	r3, #0
 232 0154 F3FFFF0A 		beq	.L54
 233 0158 B0149FE5 		ldr	r1, .L60+16
 234 015c 0500A0E1 		mov	r0, r5
 235 0160 FEFFFFEB 		bl	strtok
 236 0164 A8149FE5 		ldr	r1, .L60+20
 237 0168 0040A0E1 		mov	r4, r0
 238 016c FEFFFFEB 		bl	strcmp
 239 0170 000050E3 		cmp	r0, #0
 240 0174 0400001A 		bne	.L20
 241 0178 98149FE5 		ldr	r1, .L60+24
 242 017c FEFFFFEB 		bl	strtok
 243 0180 0010A0E1 		mov	r1, r0
 244 0184 90049FE5 		ldr	r0, .L60+28
 245 0188 FA0000EA 		b	.L55
 246              	.L20:
 247 018c 8C049FE5 		ldr	r0, .L60+32
 248 0190 0410A0E1 		mov	r1, r4
 249 0194 FEFFFFEB 		bl	strcmp
 250 0198 003050E2 		subs	r3, r0, #0
 251 019c 6B00001A 		bne	.L21
 252 01a0 774E8DE2 		add	r4, sp, #1904
 253 01a4 054084E2 		add	r4, r4, #5
 254 01a8 726E8DE2 		add	r6, sp, #1824
 255 01ac 70149FE5 		ldr	r1, .L60+36
 256 01b0 0320A0E3 		mov	r2, #3
 257 01b4 0400A0E1 		mov	r0, r4
 258 01b8 086086E2 		add	r6, r6, #8
 259 01bc 6C378DE5 		str	r3, [sp, #1900]
 260 01c0 FEFFFFEB 		bl	memcpy
 261 01c4 0410A0E1 		mov	r1, r4
 262 01c8 0600A0E1 		mov	r0, r6
 263 01cc FEFFFFEB 		bl	f_opendir
 264 01d0 005050E2 		subs	r5, r0, #0
 265 01d4 0410A011 		movne	r1, r4
 266 01d8 48049F15 		ldrne	r0, .L60+40
 267 01dc E500001A 		bne	.L55
 268 01e0 0410A0E1 		mov	r1, r4
 269 01e4 40049FE5 		ldr	r0, .L60+44
 270 01e8 FEFFFFEB 		bl	rprintf
 271 01ec 05A0A0E1 		mov	sl, r5
 272 01f0 0590A0E1 		mov	r9, r5
 273              	.L34:
 274 01f4 1D1D8DE2 		add	r1, sp, #1856
 275 01f8 720E8DE2 		add	r0, sp, #1824
 276 01fc 46CE8DE2 		add	ip, sp, #1120
 277 0200 023CA0E3 		mov	r3, #512
 278 0204 0C1081E2 		add	r1, r1, #12
 279 0208 080080E2 		add	r0, r0, #8
 280 020c 64C78DE5 		str	ip, [sp, #1892]
 281 0210 68378DE5 		str	r3, [sp, #1896]
 282 0214 FEFFFFEB 		bl	f_readdir
 283 0218 FF0010E3 		tst	r0, #255
 284 021c 3700001A 		bne	.L23
 285 0220 5537DDE5 		ldrb	r3, [sp, #1877]	@ zero_extendqisi2
 286 0224 000053E3 		cmp	r3, #0
 287 0228 3400000A 		beq	.L23
 288 022c 5407DDE5 		ldrb	r0, [sp, #1876]	@ zero_extendqisi2
 289 0230 07CC8DE2 		add	ip, sp, #1792
 290 0234 B045DCE1 		ldrh	r4, [ip, #80]
 291 0238 100010E3 		tst	r0, #16
 292 023c 6C379D05 		ldreq	r3, [sp, #1900]
 293 0240 4C279D05 		ldreq	r2, [sp, #1868]
 294 0244 B265DCE1 		ldrh	r6, [ip, #82]
 295 0248 C4C4A0E1 		mov	ip, r4, asr #9
 296 024c 02308300 		addeq	r3, r3, r2
 297 0250 7BCE8CE2 		add	ip, ip, #1968
 298 0254 4410A013 		movne	r1, #68
 299 0258 6C378D05 		streq	r3, [sp, #1900]
 300 025c 2D10A003 		moveq	r1, #45
 301 0260 01908912 		addne	r9, r9, #1
 302 0264 01A08A02 		addeq	sl, sl, #1
 303 0268 0CC08CE2 		add	ip, ip, #12
 304 026c 010010E3 		tst	r0, #1
 305 0270 5220A013 		movne	r2, #82
 306 0274 2D20A003 		moveq	r2, #45
 307 0278 08C08DE5 		str	ip, [sp, #8]
 308 027c 020010E3 		tst	r0, #2
 309 0280 4CC79DE5 		ldr	ip, [sp, #1868]
 310 0284 4830A013 		movne	r3, #72
 311 0288 2D30A003 		moveq	r3, #45
 312 028c 040010E3 		tst	r0, #4
 313 0290 5380A013 		movne	r8, #83
 314 0294 2D80A003 		moveq	r8, #45
 315 0298 1CC08DE5 		str	ip, [sp, #28]
 316 029c 200010E3 		tst	r0, #32
 317 02a0 24C09DE5 		ldr	ip, [sp, #36]
 318 02a4 C652A0E1 		mov	r5, r6, asr #5
 319 02a8 C4E2A0E1 		mov	lr, r4, asr #5
 320 02ac 4170A013 		movne	r7, #65
 321 02b0 2D70A003 		moveq	r7, #45
 322 02b4 0FE00EE2 		and	lr, lr, #15
 323 02b8 1F4004E2 		and	r4, r4, #31
 324 02bc 3F5005E2 		and	r5, r5, #63
 325 02c0 C665A0E1 		mov	r6, r6, asr #11
 326 02c4 64039FE5 		ldr	r0, .L60+48
 327 02c8 0CE08DE5 		str	lr, [sp, #12]
 328 02cc 20C08DE5 		str	ip, [sp, #32]
 329 02d0 00808DE5 		str	r8, [sp, #0]
 330 02d4 04708DE5 		str	r7, [sp, #4]
 331 02d8 10408DE5 		str	r4, [sp, #16]
 332 02dc 14608DE5 		str	r6, [sp, #20]
 333 02e0 18508DE5 		str	r5, [sp, #24]
 334 02e4 FEFFFFEB 		bl	iprintf
 335 02e8 461E8DE2 		add	r1, sp, #1120
 336 02ec 40039FE5 		ldr	r0, .L60+52
 337 02f0 FEFFFFEB 		bl	iprintf
 338 02f4 3C039FE5 		ldr	r0, .L60+56
 339 02f8 FEFFFFEB 		bl	iprintf
 340 02fc BCFFFFEA 		b	.L34
 341              	.L23:
 342 0300 0A10A0E1 		mov	r1, sl
 343 0304 0930A0E1 		mov	r3, r9
 344 0308 6C279DE5 		ldr	r2, [sp, #1900]
 345 030c 28039FE5 		ldr	r0, .L60+60
 346 0310 FEFFFFEB 		bl	iprintf
 347 0314 761E8DE2 		add	r1, sp, #1888
 348 0318 660E8DE2 		add	r0, sp, #1632
 349 031c 0C1081E2 		add	r1, r1, #12
 350 0320 772E8DE2 		add	r2, sp, #1904
 351 0324 FEFFFFEB 		bl	f_getfree
 352 0328 000050E3 		cmp	r0, #0
 353 032c 7DFFFF1A 		bne	.L54
 354 0330 70379DE5 		ldr	r3, [sp, #1904]
 355 0334 0220D3E5 		ldrb	r2, [r3, #2]	@ zero_extendqisi2
 356 0338 6C379DE5 		ldr	r3, [sp, #1900]
 357 033c 930201E0 		mul	r1, r3, r2
 358 0340 F8029FE5 		ldr	r0, .L60+64
 359 0344 A110A0E1 		mov	r1, r1, lsr #1
 360 0348 FEFFFFEB 		bl	iprintf
 361 034c 75FFFFEA 		b	.L54
 362              	.L21:
 363 0350 0400A0E1 		mov	r0, r4
 364 0354 E8129FE5 		ldr	r1, .L60+68
 365 0358 FEFFFFEB 		bl	strcmp
 366 035c 000050E3 		cmp	r0, #0
 367 0360 2B00001A 		bne	.L35
 368 0364 AC129FE5 		ldr	r1, .L60+24
 369 0368 FEFFFFEB 		bl	strtok
 370 036c 0010A0E1 		mov	r1, r0
 371 0370 0040A0E1 		mov	r4, r0
 372 0374 CC029FE5 		ldr	r0, .L60+72
 373 0378 FEFFFFEB 		bl	rprintf
 374 037c 070C8DE2 		add	r0, sp, #1792
 375 0380 040080E2 		add	r0, r0, #4
 376 0384 0410A0E1 		mov	r1, r4
 377 0388 0120A0E3 		mov	r2, #1
 378 038c FEFFFFEB 		bl	f_open
 379 0390 005050E2 		subs	r5, r0, #0
 380 0394 4700001A 		bne	.L41
 381 0398 AC029FE5 		ldr	r0, .L60+76
 382 039c 774E8DE2 		add	r4, sp, #1904
 383 03a0 FEFFFFEB 		bl	rprintf
 384 03a4 084084E2 		add	r4, r4, #8
 385 03a8 0510A0E1 		mov	r1, r5
 386 03ac 9C229FE5 		ldr	r2, .L60+80
 387 03b0 0B00A0E1 		mov	r0, fp
 388 03b4 FEFFFFEB 		bl	memset
 389 03b8 94029FE5 		ldr	r0, .L60+84
 390 03bc 0C5024E5 		str	r5, [r4, #-12]!
 391 03c0 FEFFFFEB 		bl	rprintf
 392 03c4 FEFFFFEB 		bl	_Z9printLinev
 393              	.L39:
 394 03c8 070C8DE2 		add	r0, sp, #1792
 395 03cc 0B10A0E1 		mov	r1, fp
 396 03d0 022CA0E3 		mov	r2, #512
 397 03d4 0430A0E1 		mov	r3, r4
 398 03d8 040080E2 		add	r0, r0, #4
 399 03dc FEFFFFEB 		bl	f_read
 400 03e0 000050E3 		cmp	r0, #0
 401 03e4 0B10A0E1 		mov	r1, fp
 402 03e8 68029FE5 		ldr	r0, .L60+88
 403 03ec 0200000A 		beq	.L37
 404 03f0 64029FE5 		ldr	r0, .L60+92
 405 03f4 FEFFFFEB 		bl	rprintf
 406 03f8 030000EA 		b	.L38
 407              	.L37:
 408 03fc FEFFFFEB 		bl	rprintf
 409 0400 6C379DE5 		ldr	r3, [sp, #1900]
 410 0404 020C53E3 		cmp	r3, #512
 411 0408 EEFFFF0A 		beq	.L39
 412              	.L38:
 413 040c FEFFFFEB 		bl	_Z9printLinev
 414 0410 230000EA 		b	.L42
 415              	.L35:
 416 0414 0400A0E1 		mov	r0, r4
 417 0418 40129FE5 		ldr	r1, .L60+96
 418 041c FEFFFFEB 		bl	strcmp
 419 0420 000050E3 		cmp	r0, #0
 420 0424 2500001A 		bne	.L40
 421 0428 E8119FE5 		ldr	r1, .L60+24
 422 042c FEFFFFEB 		bl	strtok
 423 0430 0010A0E1 		mov	r1, r0
 424 0434 0040A0E1 		mov	r4, r0
 425 0438 24029FE5 		ldr	r0, .L60+100
 426 043c FEFFFFEB 		bl	rprintf
 427 0440 070C8DE2 		add	r0, sp, #1792
 428 0444 040080E2 		add	r0, r0, #4
 429 0448 0410A0E1 		mov	r1, r4
 430 044c 0A20A0E3 		mov	r2, #10
 431 0450 FEFFFFEB 		bl	f_open
 432 0454 005050E2 		subs	r5, r0, #0
 433 0458 1600001A 		bne	.L41
 434 045c E8019FE5 		ldr	r0, .L60+76
 435 0460 6E4E8DE2 		add	r4, sp, #1760
 436 0464 FEFFFFEB 		bl	rprintf
 437 0468 F8119FE5 		ldr	r1, .L60+104
 438 046c 2420A0E3 		mov	r2, #36
 439 0470 0400A0E1 		mov	r0, r4
 440 0474 FEFFFFEB 		bl	memcpy
 441 0478 773E8DE2 		add	r3, sp, #1904
 442 047c 083083E2 		add	r3, r3, #8
 443 0480 070C8DE2 		add	r0, sp, #1792
 444 0484 0C5023E5 		str	r5, [r3, #-12]!
 445 0488 0410A0E1 		mov	r1, r4
 446 048c 040080E2 		add	r0, r0, #4
 447 0490 2420A0E3 		mov	r2, #36
 448 0494 FEFFFFEB 		bl	f_write
 449 0498 000050E3 		cmp	r0, #0
 450 049c C8019F15 		ldrne	r0, .L60+108
 451 04a0 FEFFFF1B 		blne	rprintf
 452              	.L42:
 453 04a4 070C8DE2 		add	r0, sp, #1792
 454 04a8 040080E2 		add	r0, r0, #4
 455 04ac FEFFFFEB 		bl	f_close
 456 04b0 B8019FE5 		ldr	r0, .L60+112
 457 04b4 4F0000EA 		b	.L56
 458              	.L41:
 459 04b8 B4019FE5 		ldr	r0, .L60+116
 460 04bc 4D0000EA 		b	.L56
 461              	.L40:
 462 04c0 B0119FE5 		ldr	r1, .L60+120
 463 04c4 0400A0E1 		mov	r0, r4
 464 04c8 FEFFFFEB 		bl	strcmp
 465 04cc 000050E3 		cmp	r0, #0
 466 04d0 0010A001 		moveq	r1, r0
 467 04d4 0500A001 		moveq	r0, r5
 468 04d8 1900000A 		beq	.L58
 469 04dc 0400A0E1 		mov	r0, r4
 470 04e0 94119FE5 		ldr	r1, .L60+124
 471 04e4 FEFFFFEB 		bl	strcmp
 472 04e8 000050E3 		cmp	r0, #0
 473 04ec 1200000A 		beq	.L59
 474              	.L44:
 475 04f0 0400A0E1 		mov	r0, r4
 476 04f4 84119FE5 		ldr	r1, .L60+128
 477 04f8 FEFFFFEB 		bl	strcmp
 478 04fc 000050E3 		cmp	r0, #0
 479 0500 1200001A 		bne	.L45
 480 0504 0C119FE5 		ldr	r1, .L60+24
 481 0508 FEFFFFEB 		bl	strtok
 482 050c FEFFFFEB 		bl	atoi
 483 0510 004050E2 		subs	r4, r0, #0
 484 0514 68019FD5 		ldrle	r0, .L60+132
 485 0518 360000DA 		ble	.L56
 486 051c 0410A0E1 		mov	r1, r4
 487 0520 60019FE5 		ldr	r0, .L60+136
 488 0524 FEFFFFEB 		bl	rprintf
 489 0528 0500A0E1 		mov	r0, r5
 490 052c 0110A0E3 		mov	r1, #1
 491 0530 FEFFFFEB 		bl	vTaskGetRunTimeStats
 492 0534 0400A0E1 		mov	r0, r4
 493 0538 FEFFFFEB 		bl	vTaskDelay
 494              	.L59:
 495 053c 0500A0E1 		mov	r0, r5
 496 0540 0110A0E3 		mov	r1, #1
 497              	.L58:
 498 0544 FEFFFFEB 		bl	vTaskGetRunTimeStats
 499 0548 0510A0E1 		mov	r1, r5
 500 054c 080000EA 		b	.L57
 501              	.L45:
 502 0550 0400A0E1 		mov	r0, r4
 503 0554 30119FE5 		ldr	r1, .L60+140
 504 0558 FEFFFFEB 		bl	strcmp
 505 055c 000050E3 		cmp	r0, #0
 506 0560 0600001A 		bne	.L47
 507 0564 464E8DE2 		add	r4, sp, #1120
 508 0568 0400A0E1 		mov	r0, r4
 509 056c FEFFFFEB 		bl	vTaskList
 510 0570 0410A0E1 		mov	r1, r4
 511              	.L57:
 512 0574 14019FE5 		ldr	r0, .L60+144
 513              	.L55:
 514 0578 FEFFFFEB 		bl	rprintf
 515 057c E9FEFFEA 		b	.L54
 516              	.L47:
 517 0580 0410A0E1 		mov	r1, r4
 518 0584 08019FE5 		ldr	r0, .L60+148
 519 0588 FEFFFFEB 		bl	strcmp
 520 058c 000050E3 		cmp	r0, #0
 521 0590 00019F15 		ldrne	r0, .L60+152
 522 0594 1700001A 		bne	.L56
 523 0598 98009FE5 		ldr	r0, .L60+56
 524 059c FEFFFFEB 		bl	rprintf
 525 05a0 FEFFFFEB 		bl	_Z9printLinev
 526 05a4 F0009FE5 		ldr	r0, .L60+156
 527 05a8 FEFFFFEB 		bl	rprintf
 528 05ac FEFFFFEB 		bl	_Z9printLinev
 529 05b0 E8009FE5 		ldr	r0, .L60+160
 530 05b4 FEFFFFEB 		bl	rprintf
 531 05b8 E4009FE5 		ldr	r0, .L60+164
 532 05bc FEFFFFEB 		bl	rprintf
 533 05c0 E0009FE5 		ldr	r0, .L60+168
 534 05c4 FEFFFFEB 		bl	rprintf
 535 05c8 DC009FE5 		ldr	r0, .L60+172
 536 05cc FEFFFFEB 		bl	rprintf
 537 05d0 D8009FE5 		ldr	r0, .L60+176
 538 05d4 FEFFFFEB 		bl	rprintf
 539 05d8 D4009FE5 		ldr	r0, .L60+180
 540 05dc FEFFFFEB 		bl	rprintf
 541 05e0 D0009FE5 		ldr	r0, .L60+184
 542 05e4 FEFFFFEB 		bl	rprintf
 543 05e8 CC009FE5 		ldr	r0, .L60+188
 544 05ec FEFFFFEB 		bl	rprintf
 545 05f0 FEFFFFEB 		bl	_Z9printLinev
 546 05f4 CBFEFFEA 		b	.L54
 547              	.L56:
 548 05f8 FEFFFFEB 		bl	rprintf
 549 05fc C9FEFFEA 		b	.L54
 550              	.L61:
 551              		.align	2
 552              	.L60:
 553 0600 5A000000 		.word	.LC2
 554 0604 A0860100 		.word	100000
 555 0608 7B000000 		.word	.LC3
 556 060c A3000000 		.word	.LC4
 557 0610 A9000000 		.word	.LC5
 558 0614 AB000000 		.word	.LC6
 559 0618 B0000000 		.word	.LC7
 560 061c B1000000 		.word	.LC8
 561 0620 BB000000 		.word	.LC9
 562 0624 A6040000 		.word	.LC10
 563 0628 BE000000 		.word	.LC11
 564 062c D7000000 		.word	.LC12
 565 0630 F2000000 		.word	.LC13
 566 0634 1B010000 		.word	.LC14
 567 0638 22010000 		.word	.LC15
 568 063c 24010000 		.word	.LC16
 569 0640 4E010000 		.word	.LC17
 570 0644 62010000 		.word	.LC18
 571 0648 67010000 		.word	.LC19
 572 064c 7B010000 		.word	.LC20
 573 0650 01020000 		.word	513
 574 0654 95010000 		.word	.LC21
 575 0658 D5010000 		.word	.LC23
 576 065c A5010000 		.word	.LC22
 577 0660 05020000 		.word	.LC26
 578 0664 0B020000 		.word	.LC27
 579 0668 A9040000 		.word	.LC28
 580 066c 20020000 		.word	.LC29
 581 0670 DC010000 		.word	.LC24
 582 0674 EC010000 		.word	.LC25
 583 0678 36020000 		.word	.LC30
 584 067c 3D020000 		.word	.LC32
 585 0680 42020000 		.word	.LC33
 586 0684 85020000 		.word	.LC35
 587 0688 47020000 		.word	.LC34
 588 068c C1020000 		.word	.LC36
 589 0690 3A020000 		.word	.LC31
 590 0694 C6020000 		.word	.LC37
 591 0698 8D040000 		.word	.LC47
 592 069c CB020000 		.word	.LC38
 593 06a0 DA020000 		.word	.LC39
 594 06a4 0B030000 		.word	.LC40
 595 06a8 38030000 		.word	.LC41
 596 06ac 5B030000 		.word	.LC42
 597 06b0 7E030000 		.word	.LC43
 598 06b4 B3030000 		.word	.LC44
 599 06b8 F8030000 		.word	.LC45
 600 06bc 4C040000 		.word	.LC46
 602              		.ident	"GCC: (GNU) 4.3.2"