   1              		.file	"pcm1774.c"
   2              		.text
   3              		.align	2
   4              		.global	pcm1774_readByte
   6              	pcm1774_readByte:
   7              		@ args = 0, pretend = 0, frame = 0
   8              		@ frame_needed = 0, uses_anonymous_args = 0
   9              		@ link register save eliminated.
  10 0000 FF1000E2 		and	r1, r0, #255
  11 0004 8C00A0E3 		mov	r0, #140
  12 0008 FEFFFFEA 		b	i2cReadDeviceRegister
  14              		.align	2
  15              		.global	pcm1774_readShortCircuitStatusRight
  17              	pcm1774_readShortCircuitStatusRight:
  18              		@ args = 0, pretend = 0, frame = 0
  19              		@ frame_needed = 0, uses_anonymous_args = 0
  20 000c 04E02DE5 		str	lr, [sp, #-4]!
  21 0010 4D10A0E3 		mov	r1, #77
  22 0014 8C00A0E3 		mov	r0, #140
  23 0018 FEFFFFEB 		bl	i2cReadDeviceRegister
  24 001c A001A0E1 		mov	r0, r0, lsr #3
  25 0020 010020E2 		eor	r0, r0, #1
  26 0024 010000E2 		and	r0, r0, #1
  27 0028 04F09DE4 		ldr	pc, [sp], #4
  29              		.align	2
  30              		.global	pcm1774_readShortCircuitStatusLeft
  32              	pcm1774_readShortCircuitStatusLeft:
  33              		@ args = 0, pretend = 0, frame = 0
  34              		@ frame_needed = 0, uses_anonymous_args = 0
  35 002c 04E02DE5 		str	lr, [sp, #-4]!
  36 0030 4D10A0E3 		mov	r1, #77
  37 0034 8C00A0E3 		mov	r0, #140
  38 0038 FEFFFFEB 		bl	i2cReadDeviceRegister
  39 003c 2001A0E1 		mov	r0, r0, lsr #2
  40 0040 010020E2 		eor	r0, r0, #1
  41 0044 010000E2 		and	r0, r0, #1
  42 0048 04F09DE4 		ldr	pc, [sp], #4
  44              		.align	2
  45              		.global	pcm1774_sendByte
  47              	pcm1774_sendByte:
  48              		@ args = 0, pretend = 0, frame = 0
  49              		@ frame_needed = 0, uses_anonymous_args = 0
  50              		@ link register save eliminated.
  51 004c FF0000E2 		and	r0, r0, #255
  52 0050 FF2001E2 		and	r2, r1, #255
  53 0054 0010A0E1 		mov	r1, r0
  54 0058 8C00A0E3 		mov	r0, #140
  55 005c FEFFFFEA 		b	i2cWriteDeviceRegister
  57              		.align	2
  58              		.global	pcm1774_trebleBoost
  60              	pcm1774_trebleBoost:
  61              		@ args = 0, pretend = 0, frame = 28
  62              		@ frame_needed = 0, uses_anonymous_args = 0
  63 0060 10402DE9 		stmfd	sp!, {r4, lr}
  64 0064 1CD04DE2 		sub	sp, sp, #28
  65 0068 004CA0E1 		mov	r4, r0, asl #24
  66 006c 38109FE5 		ldr	r1, .L12
  67 0070 1920A0E3 		mov	r2, #25
  68 0074 03008DE2 		add	r0, sp, #3
  69 0078 FEFFFFEB 		bl	memcpy
  70 007c 444CA0E1 		mov	r4, r4, asr #24
  71 0080 0C3084E2 		add	r3, r4, #12
  72 0084 180053E3 		cmp	r3, #24
  73 0088 1C208DE2 		add	r2, sp, #28
  74 008c 0040A083 		movhi	r4, #0
  75 0090 043082E0 		add	r3, r2, r4
  76 0094 0D2053E5 		ldrb	r2, [r3, #-13]	@ zero_extendqisi2
  77 0098 8C00A0E3 		mov	r0, #140
  78 009c 5E10A0E3 		mov	r1, #94
  79 00a0 1CD08DE2 		add	sp, sp, #28
  80 00a4 1040BDE8 		ldmfd	sp!, {r4, lr}
  81 00a8 FEFFFFEA 		b	i2cWriteDeviceRegister
  82              	.L13:
  83              		.align	2
  84              	.L12:
  85 00ac 00000000 		.word	C.4.1456
  87              		.align	2
  88              		.global	pcm1774_middleBoost
  90              	pcm1774_middleBoost:
  91              		@ args = 0, pretend = 0, frame = 28
  92              		@ frame_needed = 0, uses_anonymous_args = 0
  93 00b0 10402DE9 		stmfd	sp!, {r4, lr}
  94 00b4 1CD04DE2 		sub	sp, sp, #28
  95 00b8 004CA0E1 		mov	r4, r0, asl #24
  96 00bc 38109FE5 		ldr	r1, .L17
  97 00c0 1920A0E3 		mov	r2, #25
  98 00c4 03008DE2 		add	r0, sp, #3
  99 00c8 FEFFFFEB 		bl	memcpy
 100 00cc 444CA0E1 		mov	r4, r4, asr #24
 101 00d0 0C3084E2 		add	r3, r4, #12
 102 00d4 180053E3 		cmp	r3, #24
 103 00d8 1C208DE2 		add	r2, sp, #28
 104 00dc 0040A083 		movhi	r4, #0
 105 00e0 043082E0 		add	r3, r2, r4
 106 00e4 0D2053E5 		ldrb	r2, [r3, #-13]	@ zero_extendqisi2
 107 00e8 8C00A0E3 		mov	r0, #140
 108 00ec 5D10A0E3 		mov	r1, #93
 109 00f0 1CD08DE2 		add	sp, sp, #28
 110 00f4 1040BDE8 		ldmfd	sp!, {r4, lr}
 111 00f8 FEFFFFEA 		b	i2cWriteDeviceRegister
 112              	.L18:
 113              		.align	2
 114              	.L17:
 115 00fc 00000000 		.word	C.4.1456
 117              		.align	2
 118              		.global	pcm1774_bassBoost
 120              	pcm1774_bassBoost:
 121              		@ args = 0, pretend = 0, frame = 28
 122              		@ frame_needed = 0, uses_anonymous_args = 0
 123 0100 10402DE9 		stmfd	sp!, {r4, lr}
 124 0104 1CD04DE2 		sub	sp, sp, #28
 125 0108 004CA0E1 		mov	r4, r0, asl #24
 126 010c 38109FE5 		ldr	r1, .L22
 127 0110 1920A0E3 		mov	r2, #25
 128 0114 03008DE2 		add	r0, sp, #3
 129 0118 FEFFFFEB 		bl	memcpy
 130 011c 444CA0E1 		mov	r4, r4, asr #24
 131 0120 0C3084E2 		add	r3, r4, #12
 132 0124 180053E3 		cmp	r3, #24
 133 0128 1C208DE2 		add	r2, sp, #28
 134 012c 0040A083 		movhi	r4, #0
 135 0130 043082E0 		add	r3, r2, r4
 136 0134 0D2053E5 		ldrb	r2, [r3, #-13]	@ zero_extendqisi2
 137 0138 8C00A0E3 		mov	r0, #140
 138 013c 5C10A0E3 		mov	r1, #92
 139 0140 1CD08DE2 		add	sp, sp, #28
 140 0144 1040BDE8 		ldmfd	sp!, {r4, lr}
 141 0148 FEFFFFEA 		b	i2cWriteDeviceRegister
 142              	.L23:
 143              		.align	2
 144              	.L22:
 145 014c 00000000 		.word	C.4.1456
 147              		.global	__divsi3
 148              		.align	2
 149              		.global	pcm1774_DigitalVolume
 151              	pcm1774_DigitalVolume:
 152              		@ args = 0, pretend = 0, frame = 0
 153              		@ frame_needed = 0, uses_anonymous_args = 0
 154 0150 BE30A0E3 		mov	r3, #190
 155 0154 10402DE9 		stmfd	sp!, {r4, lr}
 156 0158 930000E0 		mul	r0, r3, r0
 157 015c 930104E0 		mul	r4, r3, r1
 158 0160 4B1FA0E3 		mov	r1, #300
 159 0164 FEFFFFEB 		bl	__divsi3
 160 0168 4410A0E3 		mov	r1, #68
 161 016c 3F2000E2 		and	r2, r0, #63
 162 0170 8C00A0E3 		mov	r0, #140
 163 0174 FEFFFFEB 		bl	i2cWriteDeviceRegister
 164 0178 0400A0E1 		mov	r0, r4
 165 017c 4B1FA0E3 		mov	r1, #300
 166 0180 FEFFFFEB 		bl	__divsi3
 167 0184 4510A0E3 		mov	r1, #69
 168 0188 3F2000E2 		and	r2, r0, #63
 169 018c 8C00A0E3 		mov	r0, #140
 170 0190 1040BDE8 		ldmfd	sp!, {r4, lr}
 171 0194 FEFFFFEA 		b	i2cWriteDeviceRegister
 173              		.align	2
 174              		.global	pcm1774_OutputVolume
 176              	pcm1774_OutputVolume:
 177              		@ args = 0, pretend = 0, frame = 0
 178              		@ frame_needed = 0, uses_anonymous_args = 0
 179 0198 BE30A0E3 		mov	r3, #190
 180 019c 10402DE9 		stmfd	sp!, {r4, lr}
 181 01a0 930000E0 		mul	r0, r3, r0
 182 01a4 930104E0 		mul	r4, r3, r1
 183 01a8 4B1FA0E3 		mov	r1, #300
 184 01ac FEFFFFEB 		bl	__divsi3
 185 01b0 4010A0E3 		mov	r1, #64
 186 01b4 3F2000E2 		and	r2, r0, #63
 187 01b8 8C00A0E3 		mov	r0, #140
 188 01bc FEFFFFEB 		bl	i2cWriteDeviceRegister
 189 01c0 0400A0E1 		mov	r0, r4
 190 01c4 4B1FA0E3 		mov	r1, #300
 191 01c8 FEFFFFEB 		bl	__divsi3
 192 01cc 4110A0E3 		mov	r1, #65
 193 01d0 3F2000E2 		and	r2, r0, #63
 194 01d4 8C00A0E3 		mov	r0, #140
 195 01d8 1040BDE8 		ldmfd	sp!, {r4, lr}
 196 01dc FEFFFFEA 		b	i2cWriteDeviceRegister
 198              		.align	2
 199              		.global	initialize_pcm1774
 201              	initialize_pcm1774:
 202              		@ args = 0, pretend = 0, frame = 0
 203              		@ frame_needed = 0, uses_anonymous_args = 0
 204 01e0 04E02DE5 		str	lr, [sp, #-4]!
 205 01e4 4010A0E3 		mov	r1, #64
 206 01e8 2720A0E3 		mov	r2, #39
 207 01ec 8C00A0E3 		mov	r0, #140
 208 01f0 FEFFFFEB 		bl	i2cWriteDeviceRegister
 209 01f4 4110A0E3 		mov	r1, #65
 210 01f8 2720A0E3 		mov	r2, #39
 211 01fc 8C00A0E3 		mov	r0, #140
 212 0200 FEFFFFEB 		bl	i2cWriteDeviceRegister
 213 0204 4410A0E3 		mov	r1, #68
 214 0208 2720A0E3 		mov	r2, #39
 215 020c 8C00A0E3 		mov	r0, #140
 216 0210 FEFFFFEB 		bl	i2cWriteDeviceRegister
 217 0214 4510A0E3 		mov	r1, #69
 218 0218 2720A0E3 		mov	r2, #39
 219 021c 8C00A0E3 		mov	r0, #140
 220 0220 FEFFFFEB 		bl	i2cWriteDeviceRegister
 221 0224 4610A0E3 		mov	r1, #70
 222 0228 2020A0E3 		mov	r2, #32
 223 022c 8C00A0E3 		mov	r0, #140
 224 0230 FEFFFFEB 		bl	i2cWriteDeviceRegister
 225 0234 4910A0E3 		mov	r1, #73
 226 0238 E020A0E3 		mov	r2, #224
 227 023c 8C00A0E3 		mov	r0, #140
 228 0240 FEFFFFEB 		bl	i2cWriteDeviceRegister
 229 0244 5610A0E3 		mov	r1, #86
 230 0248 0120A0E3 		mov	r2, #1
 231 024c 8C00A0E3 		mov	r0, #140
 232 0250 FEFFFFEB 		bl	i2cWriteDeviceRegister
 233 0254 4810A0E3 		mov	r1, #72
 234 0258 0320A0E3 		mov	r2, #3
 235 025c 8C00A0E3 		mov	r0, #140
 236 0260 FEFFFFEB 		bl	i2cWriteDeviceRegister
 237 0264 5810A0E3 		mov	r1, #88
 238 0268 1120A0E3 		mov	r2, #17
 239 026c 8C00A0E3 		mov	r0, #140
 240 0270 FEFFFFEB 		bl	i2cWriteDeviceRegister
 241 0274 4910A0E3 		mov	r1, #73
 242 0278 EC20A0E3 		mov	r2, #236
 243 027c 8C00A0E3 		mov	r0, #140
 244 0280 FEFFFFEB 		bl	i2cWriteDeviceRegister
 245 0284 4A10A0E3 		mov	r1, #74
 246 0288 0120A0E3 		mov	r2, #1
 247 028c 8C00A0E3 		mov	r0, #140
 248 0290 FEFFFFEB 		bl	i2cWriteDeviceRegister
 249 0294 5210A0E3 		mov	r1, #82
 250 0298 3020A0E3 		mov	r2, #48
 251 029c 8C00A0E3 		mov	r0, #140
 252 02a0 FEFFFFEB 		bl	i2cWriteDeviceRegister
 253 02a4 0020A0E3 		mov	r2, #0
 254 02a8 5710A0E3 		mov	r1, #87
 255 02ac 8C00A0E3 		mov	r0, #140
 256 02b0 FEFFFFEB 		bl	i2cWriteDeviceRegister
 257 02b4 5A00A0E3 		mov	r0, #90
 258 02b8 0010A0E1 		mov	r1, r0
 259 02bc FEFFFFEB 		bl	pcm1774_DigitalVolume
 260 02c0 3200A0E3 		mov	r0, #50
 261 02c4 0010A0E1 		mov	r1, r0
 262 02c8 FEFFFFEB 		bl	pcm1774_OutputVolume
 263 02cc 0100A0E3 		mov	r0, #1
 264 02d0 04F09DE4 		ldr	pc, [sp], #4
 266              		.align	2
 267              		.global	pcm1774_bitMask
 269              	pcm1774_bitMask:
 270              		@ args = 0, pretend = 0, frame = 0
 271              		@ frame_needed = 0, uses_anonymous_args = 0
 272 02d4 FF0012E3 		tst	r2, #255
 273 02d8 30402DE9 		stmfd	sp!, {r4, r5, lr}
 274 02dc FF4000E2 		and	r4, r0, #255
 275 02e0 FF5001E2 		and	r5, r1, #255
 276 02e4 0400000A 		beq	.L31
 277 02e8 8C00A0E3 		mov	r0, #140
 278 02ec 0410A0E1 		mov	r1, r4
 279 02f0 FEFFFFEB 		bl	i2cReadDeviceRegister
 280 02f4 000085E1 		orr	r0, r5, r0
 281 02f8 030000EA 		b	.L34
 282              	.L31:
 283 02fc 8C00A0E3 		mov	r0, #140
 284 0300 0410A0E1 		mov	r1, r4
 285 0304 FEFFFFEB 		bl	i2cReadDeviceRegister
 286 0308 0500C0E1 		bic	r0, r0, r5
 287              	.L34:
 288 030c FF2000E2 		and	r2, r0, #255
 289 0310 0410A0E1 		mov	r1, r4
 290 0314 8C00A0E3 		mov	r0, #140
 291 0318 3040BDE8 		ldmfd	sp!, {r4, r5, lr}
 292 031c FEFFFFEA 		b	i2cWriteDeviceRegister
 294              		.align	2
 295              		.global	pcm1774_redirectAnalogInputToRightOutput
 297              	pcm1774_redirectAnalogInputToRightOutput:
 298              		@ args = 0, pretend = 0, frame = 0
 299              		@ frame_needed = 0, uses_anonymous_args = 0
 300 0320 30402DE9 		stmfd	sp!, {r4, r5, lr}
 301 0324 0020A0E3 		mov	r2, #0
 302 0328 0150A0E1 		mov	r5, r1
 303 032c FF4000E2 		and	r4, r0, #255
 304 0330 6010A0E3 		mov	r1, #96
 305 0334 5800A0E3 		mov	r0, #88
 306 0338 FEFFFFEB 		bl	pcm1774_bitMask
 307 033c FF5005E2 		and	r5, r5, #255
 308 0340 0443A0E1 		mov	r4, r4, asl #6
 309 0344 854284E1 		orr	r4, r4, r5, asl #5
 310 0348 E01004E2 		and	r1, r4, #224
 311 034c 5800A0E3 		mov	r0, #88
 312 0350 0120A0E3 		mov	r2, #1
 313 0354 3040BDE8 		ldmfd	sp!, {r4, r5, lr}
 314 0358 FEFFFFEA 		b	pcm1774_bitMask
 316              		.align	2
 317              		.global	pcm1774_redirectAnalogInputToLeftOutput
 319              	pcm1774_redirectAnalogInputToLeftOutput:
 320              		@ args = 0, pretend = 0, frame = 0
 321              		@ frame_needed = 0, uses_anonymous_args = 0
 322 035c 30402DE9 		stmfd	sp!, {r4, r5, lr}
 323 0360 0020A0E3 		mov	r2, #0
 324 0364 0150A0E1 		mov	r5, r1
 325 0368 FF4000E2 		and	r4, r0, #255
 326 036c 0610A0E3 		mov	r1, #6
 327 0370 5800A0E3 		mov	r0, #88
 328 0374 FEFFFFEB 		bl	pcm1774_bitMask
 329 0378 FF5005E2 		and	r5, r5, #255
 330 037c 8440A0E1 		mov	r4, r4, asl #1
 331 0380 054184E1 		orr	r4, r4, r5, asl #2
 332 0384 FE1004E2 		and	r1, r4, #254
 333 0388 5800A0E3 		mov	r0, #88
 334 038c 0120A0E3 		mov	r2, #1
 335 0390 3040BDE8 		ldmfd	sp!, {r4, r5, lr}
 336 0394 FEFFFFEA 		b	pcm1774_bitMask
 338              		.align	2
 339              		.global	pcm1774_gainAmplifierAnalogInput
 341              	pcm1774_gainAmplifierAnalogInput:
 342              		@ args = 0, pretend = 0, frame = 0
 343              		@ frame_needed = 0, uses_anonymous_args = 0
 344 0398 30402DE9 		stmfd	sp!, {r4, r5, lr}
 345 039c 0020A0E3 		mov	r2, #0
 346 03a0 0050A0E1 		mov	r5, r0
 347 03a4 0140A0E1 		mov	r4, r1
 348 03a8 5900A0E3 		mov	r0, #89
 349 03ac 7710A0E3 		mov	r1, #119
 350 03b0 FEFFFFEB 		bl	pcm1774_bitMask
 351 03b4 074004E2 		and	r4, r4, #7
 352 03b8 075005E2 		and	r5, r5, #7
 353 03bc 041285E1 		orr	r1, r5, r4, asl #4
 354 03c0 5900A0E3 		mov	r0, #89
 355 03c4 0120A0E3 		mov	r2, #1
 356 03c8 3040BDE8 		ldmfd	sp!, {r4, r5, lr}
 357 03cc FEFFFFEA 		b	pcm1774_bitMask
 359              		.align	2
 360              		.global	pcm1774_selectAnalogInput
 362              	pcm1774_selectAnalogInput:
 363              		@ args = 0, pretend = 0, frame = 0
 364              		@ frame_needed = 0, uses_anonymous_args = 0
 365 03d0 10402DE9 		stmfd	sp!, {r4, lr}
 366 03d4 FF2000E2 		and	r2, r0, #255
 367 03d8 FF4001E2 		and	r4, r1, #255
 368 03dc 5700A0E3 		mov	r0, #87
 369 03e0 0110A0E3 		mov	r1, #1
 370 03e4 FEFFFFEB 		bl	pcm1774_bitMask
 371 03e8 0420A0E1 		mov	r2, r4
 372 03ec 5700A0E3 		mov	r0, #87
 373 03f0 1010A0E3 		mov	r1, #16
 374 03f4 1040BDE8 		ldmfd	sp!, {r4, lr}
 375 03f8 FEFFFFEA 		b	pcm1774_bitMask
 377              		.align	2
 378              		.global	pcm1774_PowerUpGainAmplifierAnalog
 380              	pcm1774_PowerUpGainAmplifierAnalog:
 381              		@ args = 0, pretend = 0, frame = 0
 382              		@ frame_needed = 0, uses_anonymous_args = 0
 383 03fc 10402DE9 		stmfd	sp!, {r4, lr}
 384 0400 FF2000E2 		and	r2, r0, #255
 385 0404 FF4001E2 		and	r4, r1, #255
 386 0408 5200A0E3 		mov	r0, #82
 387 040c 1010A0E3 		mov	r1, #16
 388 0410 FEFFFFEB 		bl	pcm1774_bitMask
 389 0414 0420A0E1 		mov	r2, r4
 390 0418 5200A0E3 		mov	r0, #82
 391 041c 2010A0E3 		mov	r1, #32
 392 0420 1040BDE8 		ldmfd	sp!, {r4, lr}
 393 0424 FEFFFFEA 		b	pcm1774_bitMask
 395              		.align	2
 396              		.global	pcm1774_setShortCircuitProtectionRight
 398              	pcm1774_setShortCircuitProtectionRight:
 399              		@ args = 0, pretend = 0, frame = 0
 400              		@ frame_needed = 0, uses_anonymous_args = 0
 401              		@ link register save eliminated.
 402 0428 FF0010E3 		tst	r0, #255
 403 042c 4A00A013 		movne	r0, #74
 404 0430 0810A013 		movne	r1, #8
 405 0434 0020A013 		movne	r2, #0
 406 0438 4A00A003 		moveq	r0, #74
 407 043c 0810A003 		moveq	r1, #8
 408 0440 0120A003 		moveq	r2, #1
 409 0444 FEFFFFEA 		b	pcm1774_bitMask
 411              		.align	2
 412              		.global	pcm1774_setShortCircuitProtectionLeft
 414              	pcm1774_setShortCircuitProtectionLeft:
 415              		@ args = 0, pretend = 0, frame = 0
 416              		@ frame_needed = 0, uses_anonymous_args = 0
 417              		@ link register save eliminated.
 418 0448 FF0010E3 		tst	r0, #255
 419 044c 4A00A013 		movne	r0, #74
 420 0450 0410A013 		movne	r1, #4
 421 0454 0020A013 		movne	r2, #0
 422 0458 4A00A003 		moveq	r0, #74
 423 045c 0410A003 		moveq	r1, #4
 424 0460 0120A003 		moveq	r2, #1
 425 0464 FEFFFFEA 		b	pcm1774_bitMask
 427              		.align	2
 428              		.global	pcm1774_PowerUpVcom
 430              	pcm1774_PowerUpVcom:
 431              		@ args = 0, pretend = 0, frame = 0
 432              		@ frame_needed = 0, uses_anonymous_args = 0
 433              		@ link register save eliminated.
 434 0468 FF2000E2 		and	r2, r0, #255
 435 046c 0110A0E3 		mov	r1, #1
 436 0470 4A00A0E3 		mov	r0, #74
 437 0474 FEFFFFEA 		b	pcm1774_bitMask
 439              		.align	2
 440              		.global	pcm1774_LineOutputConfiguration
 442              	pcm1774_LineOutputConfiguration:
 443              		@ args = 0, pretend = 0, frame = 0
 444              		@ frame_needed = 0, uses_anonymous_args = 0
 445 0478 10402DE9 		stmfd	sp!, {r4, lr}
 446 047c 0C10A0E3 		mov	r1, #12
 447 0480 FF4000E2 		and	r4, r0, #255
 448 0484 0020A0E3 		mov	r2, #0
 449 0488 4A00A0E3 		mov	r0, #74
 450 048c FEFFFFEB 		bl	pcm1774_bitMask
 451 0490 010054E3 		cmp	r4, #1
 452 0494 4A00A003 		moveq	r0, #74
 453 0498 C010A003 		moveq	r1, #192
 454 049c 0420A003 		moveq	r2, #4
 455 04a0 0600000A 		beq	.L61
 456 04a4 020054E3 		cmp	r4, #2
 457 04a8 4A00A013 		movne	r0, #74
 458 04ac C010A013 		movne	r1, #192
 459 04b0 0020A013 		movne	r2, #0
 460 04b4 4A00A003 		moveq	r0, #74
 461 04b8 C010A003 		moveq	r1, #192
 462 04bc 0820A003 		moveq	r2, #8
 463              	.L61:
 464 04c0 1040BDE8 		ldmfd	sp!, {r4, lr}
 465 04c4 FEFFFFEA 		b	pcm1774_bitMask
 467              		.align	2
 468              		.global	pcm1774_PowerUpAnalog
 470              	pcm1774_PowerUpAnalog:
 471              		@ args = 0, pretend = 0, frame = 0
 472              		@ frame_needed = 0, uses_anonymous_args = 0
 473 04c8 10402DE9 		stmfd	sp!, {r4, lr}
 474 04cc FF2000E2 		and	r2, r0, #255
 475 04d0 FF4001E2 		and	r4, r1, #255
 476 04d4 4900A0E3 		mov	r0, #73
 477 04d8 0410A0E3 		mov	r1, #4
 478 04dc FEFFFFEB 		bl	pcm1774_bitMask
 479 04e0 0420A0E1 		mov	r2, r4
 480 04e4 4900A0E3 		mov	r0, #73
 481 04e8 0810A0E3 		mov	r1, #8
 482 04ec 1040BDE8 		ldmfd	sp!, {r4, lr}
 483 04f0 FEFFFFEA 		b	pcm1774_bitMask
 485              		.align	2
 486              		.global	pcm1774_PowerUpDAC
 488              	pcm1774_PowerUpDAC:
 489              		@ args = 0, pretend = 0, frame = 0
 490              		@ frame_needed = 0, uses_anonymous_args = 0
 491 04f4 10402DE9 		stmfd	sp!, {r4, lr}
 492 04f8 FF2000E2 		and	r2, r0, #255
 493 04fc FF4001E2 		and	r4, r1, #255
 494 0500 4900A0E3 		mov	r0, #73
 495 0504 2010A0E3 		mov	r1, #32
 496 0508 FEFFFFEB 		bl	pcm1774_bitMask
 497 050c 0420A0E1 		mov	r2, r4
 498 0510 4900A0E3 		mov	r0, #73
 499 0514 4010A0E3 		mov	r1, #64
 500 0518 1040BDE8 		ldmfd	sp!, {r4, lr}
 501 051c FEFFFFEA 		b	pcm1774_bitMask
 503              		.align	2
 504              		.global	pcm1774_PowerUpAnalogBiasControl
 506              	pcm1774_PowerUpAnalogBiasControl:
 507              		@ args = 0, pretend = 0, frame = 0
 508              		@ frame_needed = 0, uses_anonymous_args = 0
 509              		@ link register save eliminated.
 510 0520 FF2000E2 		and	r2, r0, #255
 511 0524 8010A0E3 		mov	r1, #128
 512 0528 4900A0E3 		mov	r0, #73
 513 052c FEFFFFEA 		b	pcm1774_bitMask
 515              		.align	2
 516              		.global	pcm1774_PowerUpMixer
 518              	pcm1774_PowerUpMixer:
 519              		@ args = 0, pretend = 0, frame = 0
 520              		@ frame_needed = 0, uses_anonymous_args = 0
 521 0530 10402DE9 		stmfd	sp!, {r4, lr}
 522 0534 FF2000E2 		and	r2, r0, #255
 523 0538 FF4001E2 		and	r4, r1, #255
 524 053c 4800A0E3 		mov	r0, #72
 525 0540 0110A0E3 		mov	r1, #1
 526 0544 FEFFFFEB 		bl	pcm1774_bitMask
 527 0548 0420A0E1 		mov	r2, r4
 528 054c 4800A0E3 		mov	r0, #72
 529 0550 0210A0E3 		mov	r1, #2
 530 0554 1040BDE8 		ldmfd	sp!, {r4, lr}
 531 0558 FEFFFFEA 		b	pcm1774_bitMask
 533              		.align	2
 534              		.global	pcm1774_DigitalOversamplingControl
 536              	pcm1774_DigitalOversamplingControl:
 537              		@ args = 0, pretend = 0, frame = 0
 538              		@ frame_needed = 0, uses_anonymous_args = 0
 539              		@ link register save eliminated.
 540 055c FF2000E2 		and	r2, r0, #255
 541 0560 0110A0E3 		mov	r1, #1
 542 0564 4600A0E3 		mov	r0, #70
 543 0568 FEFFFFEA 		b	pcm1774_bitMask
 545              		.align	2
 546              		.global	pcm1774_DigitalGainControl
 548              	pcm1774_DigitalGainControl:
 549              		@ args = 0, pretend = 0, frame = 0
 550              		@ frame_needed = 0, uses_anonymous_args = 0
 551 056c 10402DE9 		stmfd	sp!, {r4, lr}
 552 0570 0C10A0E3 		mov	r1, #12
 553 0574 0040A0E1 		mov	r4, r0
 554 0578 0020A0E3 		mov	r2, #0
 555 057c 4600A0E3 		mov	r0, #70
 556 0580 FEFFFFEB 		bl	pcm1774_bitMask
 557 0584 034004E2 		and	r4, r4, #3
 558 0588 0411A0E1 		mov	r1, r4, asl #2
 559 058c 4600A0E3 		mov	r0, #70
 560 0590 0120A0E3 		mov	r2, #1
 561 0594 1040BDE8 		ldmfd	sp!, {r4, lr}
 562 0598 FEFFFFEA 		b	pcm1774_bitMask
 564              		.align	2
 565              		.global	pcm1774_DigitalInterfaceSelection
 567              	pcm1774_DigitalInterfaceSelection:
 568              		@ args = 0, pretend = 0, frame = 0
 569              		@ frame_needed = 0, uses_anonymous_args = 0
 570 059c 10402DE9 		stmfd	sp!, {r4, lr}
 571 05a0 3010A0E3 		mov	r1, #48
 572 05a4 0040A0E1 		mov	r4, r0
 573 05a8 0020A0E3 		mov	r2, #0
 574 05ac 4600A0E3 		mov	r0, #70
 575 05b0 FEFFFFEB 		bl	pcm1774_bitMask
 576 05b4 034004E2 		and	r4, r4, #3
 577 05b8 0412A0E1 		mov	r1, r4, asl #4
 578 05bc 4600A0E3 		mov	r0, #70
 579 05c0 0120A0E3 		mov	r2, #1
 580 05c4 1040BDE8 		ldmfd	sp!, {r4, lr}
 581 05c8 FEFFFFEA 		b	pcm1774_bitMask
 583              		.align	2
 584              		.global	pcm1774_DigitalDeEmphasisFilter
 586              	pcm1774_DigitalDeEmphasisFilter:
 587              		@ args = 0, pretend = 0, frame = 0
 588              		@ frame_needed = 0, uses_anonymous_args = 0
 589 05cc 10402DE9 		stmfd	sp!, {r4, lr}
 590 05d0 C010A0E3 		mov	r1, #192
 591 05d4 FF4000E2 		and	r4, r0, #255
 592 05d8 0020A0E3 		mov	r2, #0
 593 05dc 4600A0E3 		mov	r0, #70
 594 05e0 FEFFFFEB 		bl	pcm1774_bitMask
 595 05e4 0443A0E1 		mov	r4, r4, asl #6
 596 05e8 C01004E2 		and	r1, r4, #192
 597 05ec 4600A0E3 		mov	r0, #70
 598 05f0 0120A0E3 		mov	r2, #1
 599 05f4 1040BDE8 		ldmfd	sp!, {r4, lr}
 600 05f8 FEFFFFEA 		b	pcm1774_bitMask
 602              		.align	2
 603              		.global	pcm1774_ConnectDigitalOutputs
 605              	pcm1774_ConnectDigitalOutputs:
 606              		@ args = 0, pretend = 0, frame = 0
 607              		@ frame_needed = 0, uses_anonymous_args = 0
 608 05fc 10402DE9 		stmfd	sp!, {r4, lr}
 609 0600 FF2000E2 		and	r2, r0, #255
 610 0604 FF4001E2 		and	r4, r1, #255
 611 0608 5800A0E3 		mov	r0, #88
 612 060c 0110A0E3 		mov	r1, #1
 613 0610 FEFFFFEB 		bl	pcm1774_bitMask
 614 0614 0420A0E1 		mov	r2, r4
 615 0618 5800A0E3 		mov	r0, #88
 616 061c 1010A0E3 		mov	r1, #16
 617 0620 1040BDE8 		ldmfd	sp!, {r4, lr}
 618 0624 FEFFFFEA 		b	pcm1774_bitMask
 620              		.align	2
 621              		.global	pcm1774_LoadDefaultDigitalConfiguration
 623              	pcm1774_LoadDefaultDigitalConfiguration:
 624              		@ args = 0, pretend = 0, frame = 0
 625              		@ frame_needed = 0, uses_anonymous_args = 0
 626 0628 04E02DE5 		str	lr, [sp, #-4]!
 627 062c FEFFFFEB 		bl	initialize_pcm1774
 628 0630 0100A0E3 		mov	r0, #1
 629 0634 0010A0E1 		mov	r1, r0
 630 0638 FEFFFFEB 		bl	pcm1774_PowerUpMixer
 631 063c 0100A0E3 		mov	r0, #1
 632 0640 0010A0E1 		mov	r1, r0
 633 0644 FEFFFFEB 		bl	pcm1774_PowerUpAnalog
 634 0648 0100A0E3 		mov	r0, #1
 635 064c 0010A0E1 		mov	r1, r0
 636 0650 FEFFFFEB 		bl	pcm1774_PowerUpGainAmplifierAnalog
 637 0654 0000A0E3 		mov	r0, #0
 638 0658 0010A0E1 		mov	r1, r0
 639 065c FEFFFFEB 		bl	pcm1774_selectAnalogInput
 640 0660 0000A0E3 		mov	r0, #0
 641 0664 0010A0E1 		mov	r1, r0
 642 0668 FEFFFFEB 		bl	pcm1774_redirectAnalogInputToLeftOutput
 643 066c 0000A0E3 		mov	r0, #0
 644 0670 0010A0E1 		mov	r1, r0
 645 0674 FEFFFFEB 		bl	pcm1774_redirectAnalogInputToRightOutput
 646 0678 0400A0E3 		mov	r0, #4
 647 067c 0010A0E1 		mov	r1, r0
 648 0680 FEFFFFEB 		bl	pcm1774_gainAmplifierAnalogInput
 649 0684 0100A0E3 		mov	r0, #1
 650 0688 0010A0E1 		mov	r1, r0
 651 068c FEFFFFEB 		bl	pcm1774_ConnectDigitalOutputs
 652 0690 2800A0E3 		mov	r0, #40
 653 0694 0010A0E1 		mov	r1, r0
 654 0698 FEFFFFEB 		bl	pcm1774_DigitalVolume
 655 069c 3200A0E3 		mov	r0, #50
 656 06a0 0010A0E1 		mov	r1, r0
 657 06a4 04E09DE4 		ldr	lr, [sp], #4
 658 06a8 FEFFFFEA 		b	pcm1774_OutputVolume
 660              		.align	2
 661              		.global	pcm1774_3dSoundEffect
 663              	pcm1774_3dSoundEffect:
 664              		@ args = 0, pretend = 0, frame = 0
 665              		@ frame_needed = 0, uses_anonymous_args = 0
 666              		@ link register save eliminated.
 667 06ac FF2001E2 		and	r2, r1, #255
 668 06b0 FF0010E3 		tst	r0, #255
 669 06b4 0010A013 		movne	r1, #0
 670 06b8 1010A003 		moveq	r1, #16
 671 06bc 0A0052E3 		cmp	r2, #10
 672 06c0 0A20A083 		movhi	r2, #10
 673 06c4 0400008A 		bhi	.L86
 674 06c8 000052E3 		cmp	r2, #0
 675 06cc 0200001A 		bne	.L86
 676 06d0 8C00A0E3 		mov	r0, #140
 677 06d4 5F10A0E3 		mov	r1, #95
 678 06d8 FEFFFFEA 		b	i2cWriteDeviceRegister
 679              	.L86:
 680 06dc 401081E3 		orr	r1, r1, #64
 681 06e0 011082E1 		orr	r1, r2, r1
 682 06e4 5F00A0E3 		mov	r0, #95
 683 06e8 0120A0E3 		mov	r2, #1
 684 06ec FEFFFFEA 		b	pcm1774_bitMask
 686              		.align	2
 687              		.global	pcm1774_Reset
 689              	pcm1774_Reset:
 690              		@ args = 0, pretend = 0, frame = 4
 691              		@ frame_needed = 0, uses_anonymous_args = 0
 692 06f0 10402DE9 		stmfd	sp!, {r4, lr}
 693 06f4 8020A0E3 		mov	r2, #128
 694 06f8 04D04DE2 		sub	sp, sp, #4
 695 06fc 0040A0E3 		mov	r4, #0
 696 0700 8C00A0E3 		mov	r0, #140
 697 0704 5510A0E3 		mov	r1, #85
 698 0708 00408DE5 		str	r4, [sp, #0]
 699 070c FEFFFFEB 		bl	i2cWriteDeviceRegister
 700 0710 00408DE5 		str	r4, [sp, #0]
 701 0714 28209FE5 		ldr	r2, .L92
 702 0718 020000EA 		b	.L89
 703              	.L90:
 704 071c 00309DE5 		ldr	r3, [sp, #0]
 705 0720 013083E2 		add	r3, r3, #1
 706 0724 00308DE5 		str	r3, [sp, #0]
 707              	.L89:
 708 0728 00309DE5 		ldr	r3, [sp, #0]
 709 072c 020053E1 		cmp	r3, r2
 710 0730 F9FFFFDA 		ble	.L90
 711 0734 FEFFFFEB 		bl	initialize_pcm1774
 712 0738 04D08DE2 		add	sp, sp, #4
 713 073c 1040BDE8 		ldmfd	sp!, {r4, lr}
 714 0740 FEFFFFEA 		b	pcm1774_LoadDefaultDigitalConfiguration
 715              	.L93:
 716              		.align	2
 717              	.L92:
 718 0744 87130000 		.word	4999
 720              		.section	.rodata
 723              	C.4.1456:
 724 0000 9B       		.byte	-101
 725 0001 9A       		.byte	-102
 726 0002 99       		.byte	-103
 727 0003 98       		.byte	-104
 728 0004 97       		.byte	-105
 729 0005 96       		.byte	-106
 730 0006 95       		.byte	-107
 731 0007 94       		.byte	-108
 732 0008 93       		.byte	-109
 733 0009 92       		.byte	-110
 734 000a 91       		.byte	-111
 735 000b 90       		.byte	-112
 736 000c 80       		.byte	-128
 737 000d 8E       		.byte	-114
 738 000e 8D       		.byte	-115
 739 000f 8C       		.byte	-116
 740 0010 8B       		.byte	-117
 741 0011 8A       		.byte	-118
 742 0012 89       		.byte	-119
 743 0013 88       		.byte	-120
 744 0014 87       		.byte	-121
 745 0015 86       		.byte	-122
 746 0016 85       		.byte	-123
 747 0017 84       		.byte	-124
 748 0018 83       		.byte	-125
 749              		.ident	"GCC: (GNU) 4.3.2"