   1              		.file	"tasks.c"
   2              		.text
   3              		.align	2
   4              		.global	xTaskIsTaskSuspended
   6              	xTaskIsTaskSuspended:
   7              		@ args = 0, pretend = 0, frame = 0
   8              		@ frame_needed = 0, uses_anonymous_args = 0
   9              		@ link register save eliminated.
  10 0000 142090E5 		ldr	r2, [r0, #20]
  11 0004 28309FE5 		ldr	r3, .L5
  12 0008 030052E1 		cmp	r2, r3
  13 000c 0600001A 		bne	.L2
  14 0010 280090E5 		ldr	r0, [r0, #40]
  15 0014 1C309FE5 		ldr	r3, .L5+4
  16 0018 030050E1 		cmp	r0, r3
  17 001c 0200000A 		beq	.L2
  18 0020 010070E2 		rsbs	r0, r0, #1
  19 0024 0000A033 		movcc	r0, #0
  20 0028 1EFF2FE1 		bx	lr
  21              	.L2:
  22 002c 0000A0E3 		mov	r0, #0
  23 0030 1EFF2FE1 		bx	lr
  24              	.L6:
  25              		.align	2
  26              	.L5:
  27 0034 C8000000 		.word	xSuspendedTaskList
  28 0038 B4000000 		.word	xPendingReadyList
  30              		.align	2
  31              		.global	vTaskSuspendAll
  33              	vTaskSuspendAll:
  34              		@ args = 0, pretend = 0, frame = 0
  35              		@ frame_needed = 0, uses_anonymous_args = 0
  36              		@ link register save eliminated.
  37 003c 0C209FE5 		ldr	r2, .L9
  38 0040 003092E5 		ldr	r3, [r2, #0]
  39 0044 013083E2 		add	r3, r3, #1
  40 0048 003082E5 		str	r3, [r2, #0]
  41 004c 1EFF2FE1 		bx	lr
  42              	.L10:
  43              		.align	2
  44              	.L9:
  45 0050 10000000 		.word	uxSchedulerSuspended
  47              		.align	2
  48              		.global	xTaskGetTickCountFromISR
  50              	xTaskGetTickCountFromISR:
  51              		@ args = 0, pretend = 0, frame = 0
  52              		@ frame_needed = 0, uses_anonymous_args = 0
  53              		@ link register save eliminated.
  54 0054 04309FE5 		ldr	r3, .L13
  55 0058 000093E5 		ldr	r0, [r3, #0]
  56 005c 1EFF2FE1 		bx	lr
  57              	.L14:
  58              		.align	2
  59              	.L13:
  60 0060 1C000000 		.word	xTickCount
  62              		.align	2
  63              		.global	uxTaskGetNumberOfTasks
  65              	uxTaskGetNumberOfTasks:
  66              		@ args = 0, pretend = 0, frame = 0
  67              		@ frame_needed = 0, uses_anonymous_args = 0
  68              		@ link register save eliminated.
  69 0064 04309FE5 		ldr	r3, .L17
  70 0068 000093E5 		ldr	r0, [r3, #0]
  71 006c 1EFF2FE1 		bx	lr
  72              	.L18:
  73              		.align	2
  74              	.L17:
  75 0070 2C000000 		.word	uxCurrentNumberOfTasks
  77              		.align	2
  78              		.global	runTimeStatISREntry
  80              	runTimeStatISREntry:
  81              		@ args = 0, pretend = 0, frame = 0
  82              		@ frame_needed = 0, uses_anonymous_args = 0
  83              		@ link register save eliminated.
  84 0074 28309FE5 		ldr	r3, .L21
  85 0078 08C093E5 		ldr	ip, [r3, #8]
  86 007c 24309FE5 		ldr	r3, .L21+4
  87 0080 001093E5 		ldr	r1, [r3, #0]
  88 0084 20009FE5 		ldr	r0, .L21+8
  89 0088 483091E5 		ldr	r3, [r1, #72]
  90 008c 002090E5 		ldr	r2, [r0, #0]
  91 0090 03308CE0 		add	r3, ip, r3
  92 0094 033062E0 		rsb	r3, r2, r3
  93 0098 483081E5 		str	r3, [r1, #72]
  94 009c 00C080E5 		str	ip, [r0, #0]
  95 00a0 1EFF2FE1 		bx	lr
  96              	.L22:
  97              		.align	2
  98              	.L21:
  99 00a4 008000E0 		.word	-536838144
 100 00a8 00000000 		.word	pxCurrentTCB
 101 00ac 20000000 		.word	ulTaskSwitchedInTime
 103              		.align	2
 104              		.global	runTimeStatISRExit
 106              	runTimeStatISRExit:
 107              		@ args = 0, pretend = 0, frame = 0
 108              		@ frame_needed = 0, uses_anonymous_args = 0
 109              		@ link register save eliminated.
 110 00b0 24009FE5 		ldr	r0, .L25
 111 00b4 24309FE5 		ldr	r3, .L25+4
 112 00b8 24C09FE5 		ldr	ip, .L25+8
 113 00bc 081093E5 		ldr	r1, [r3, #8]
 114 00c0 003090E5 		ldr	r3, [r0, #0]
 115 00c4 00209CE5 		ldr	r2, [ip, #0]
 116 00c8 033081E0 		add	r3, r1, r3
 117 00cc 033062E0 		rsb	r3, r2, r3
 118 00d0 003080E5 		str	r3, [r0, #0]
 119 00d4 00108CE5 		str	r1, [ip, #0]
 120 00d8 1EFF2FE1 		bx	lr
 121              	.L26:
 122              		.align	2
 123              	.L25:
 124 00dc 00000000 		.word	ulISROverhead
 125 00e0 008000E0 		.word	-536838144
 126 00e4 20000000 		.word	ulTaskSwitchedInTime
 128              		.align	2
 129              		.global	vTaskSetTimeOutState
 131              	vTaskSetTimeOutState:
 132              		@ args = 0, pretend = 0, frame = 0
 133              		@ frame_needed = 0, uses_anonymous_args = 0
 134              		@ link register save eliminated.
 135 00e8 10309FE5 		ldr	r3, .L29
 136 00ec 002093E5 		ldr	r2, [r3, #0]
 137 00f0 0C309FE5 		ldr	r3, .L29+4
 138 00f4 003093E5 		ldr	r3, [r3, #0]
 139 00f8 0C0080E8 		stmia	r0, {r2, r3}	@ phole stm
 140 00fc 1EFF2FE1 		bx	lr
 141              	.L30:
 142              		.align	2
 143              	.L29:
 144 0100 18000000 		.word	xNumOfOverflows
 145 0104 1C000000 		.word	xTickCount
 147              		.align	2
 148              		.global	vTaskMissedYield
 150              	vTaskMissedYield:
 151              		@ args = 0, pretend = 0, frame = 0
 152              		@ frame_needed = 0, uses_anonymous_args = 0
 153              		@ link register save eliminated.
 154 0108 08309FE5 		ldr	r3, .L33
 155 010c 0120A0E3 		mov	r2, #1
 156 0110 002083E5 		str	r2, [r3, #0]
 157 0114 1EFF2FE1 		bx	lr
 158              	.L34:
 159              		.align	2
 160              	.L33:
 161 0118 14000000 		.word	xMissedYield
 163              		.align	2
 164              		.global	uxTaskGetTaskNumber
 166              	uxTaskGetTaskNumber:
 167              		@ args = 0, pretend = 0, frame = 0
 168              		@ frame_needed = 0, uses_anonymous_args = 0
 169              		@ link register save eliminated.
 170 011c 000050E3 		cmp	r0, #0
 171 0120 40009015 		ldrne	r0, [r0, #64]
 172 0124 1EFF2FE1 		bx	lr
 174              		.align	2
 175              		.global	vTaskSetTaskNumber
 177              	vTaskSetTaskNumber:
 178              		@ args = 0, pretend = 0, frame = 0
 179              		@ frame_needed = 0, uses_anonymous_args = 0
 180              		@ link register save eliminated.
 181 0128 000050E3 		cmp	r0, #0
 182 012c 40108015 		strne	r1, [r0, #64]
 183 0130 1EFF2FE1 		bx	lr
 185              		.align	2
 186              		.global	uxTaskGetStackHighWaterMark
 188              	uxTaskGetStackHighWaterMark:
 189              		@ args = 0, pretend = 0, frame = 0
 190              		@ frame_needed = 0, uses_anonymous_args = 0
 191              		@ link register save eliminated.
 192 0134 000050E3 		cmp	r0, #0
 193 0138 24309F05 		ldreq	r3, .L48
 194 013c 00009305 		ldreq	r0, [r3, #0]
 195 0140 301090E5 		ldr	r1, [r0, #48]
 196 0144 0020A0E3 		mov	r2, #0
 197              	.L45:
 198 0148 0230D1E7 		ldrb	r3, [r1, r2]	@ zero_extendqisi2
 199 014c A50053E3 		cmp	r3, #165
 200 0150 0238A0E1 		mov	r3, r2, asl #16
 201 0154 2308A0E1 		mov	r0, r3, lsr #16
 202 0158 012082E2 		add	r2, r2, #1
 203 015c F9FFFF0A 		beq	.L45
 204 0160 1EFF2FE1 		bx	lr
 205              	.L49:
 206              		.align	2
 207              	.L48:
 208 0164 00000000 		.word	pxCurrentTCB
 210              		.align	2
 211              		.global	xTaskGetCurrentTaskHandle
 213              	xTaskGetCurrentTaskHandle:
 214              		@ args = 0, pretend = 0, frame = 0
 215              		@ frame_needed = 0, uses_anonymous_args = 0
 216              		@ link register save eliminated.
 217 0168 04309FE5 		ldr	r3, .L52
 218 016c 000093E5 		ldr	r0, [r3, #0]
 219 0170 1EFF2FE1 		bx	lr
 220              	.L53:
 221              		.align	2
 222              	.L52:
 223 0174 00000000 		.word	pxCurrentTCB
 225              		.align	2
 226              		.global	xTaskGetSchedulerState
 228              	xTaskGetSchedulerState:
 229              		@ args = 0, pretend = 0, frame = 0
 230              		@ frame_needed = 0, uses_anonymous_args = 0
 231              		@ link register save eliminated.
 232 0178 20309FE5 		ldr	r3, .L59
 233 017c 000093E5 		ldr	r0, [r3, #0]
 234 0180 000050E3 		cmp	r0, #0
 235 0184 1EFF2F01 		bxeq	lr
 236 0188 14309FE5 		ldr	r3, .L59+4
 237 018c 003093E5 		ldr	r3, [r3, #0]
 238 0190 000053E3 		cmp	r3, #0
 239 0194 0100A003 		moveq	r0, #1
 240 0198 0200A013 		movne	r0, #2
 241 019c 1EFF2FE1 		bx	lr
 242              	.L60:
 243              		.align	2
 244              	.L59:
 245 01a0 0C000000 		.word	xSchedulerRunning
 246 01a4 10000000 		.word	uxSchedulerSuspended
 248              		.align	2
 249              		.global	vTaskPriorityDisinherit
 251              	vTaskPriorityDisinherit:
 252              		@ args = 0, pretend = 0, frame = 0
 253              		@ frame_needed = 0, uses_anonymous_args = 0
 254 01a8 30402DE9 		stmfd	sp!, {r4, r5, lr}
 255 01ac 004050E2 		subs	r4, r0, #0
 256 01b0 3080BD08 		ldmeqfd	sp!, {r4, r5, pc}
 257 01b4 2C2094E5 		ldr	r2, [r4, #44]
 258 01b8 443094E5 		ldr	r3, [r4, #68]
 259 01bc 030052E1 		cmp	r2, r3
 260 01c0 3080BD08 		ldmeqfd	sp!, {r4, r5, pc}
 261 01c4 045084E2 		add	r5, r4, #4
 262 01c8 0500A0E1 		mov	r0, r5
 263 01cc FEFFFFEB 		bl	vListRemove
 264 01d0 30209FE5 		ldr	r2, .L65
 265 01d4 441094E5 		ldr	r1, [r4, #68]
 266 01d8 003092E5 		ldr	r3, [r2, #0]
 267 01dc 030051E1 		cmp	r1, r3
 268 01e0 043061E2 		rsb	r3, r1, #4
 269 01e4 183084E5 		str	r3, [r4, #24]
 270 01e8 2C1084E5 		str	r1, [r4, #44]
 271 01ec 00108285 		strhi	r1, [r2, #0]
 272 01f0 14209FE5 		ldr	r2, .L65+4
 273 01f4 1430A0E3 		mov	r3, #20
 274 01f8 932120E0 		mla	r0, r3, r1, r2
 275 01fc 0510A0E1 		mov	r1, r5
 276 0200 3040BDE8 		ldmfd	sp!, {r4, r5, lr}
 277 0204 FEFFFFEA 		b	vListInsertEnd
 278              	.L66:
 279              		.align	2
 280              	.L65:
 281 0208 08000000 		.word	uxTopReadyPriority
 282 020c 34000000 		.word	pxReadyTasksLists
 284              		.align	2
 285              		.global	vTaskPriorityInherit
 287              	vTaskPriorityInherit:
 288              		@ args = 0, pretend = 0, frame = 0
 289              		@ frame_needed = 0, uses_anonymous_args = 0
 290 0210 70402DE9 		stmfd	sp!, {r4, r5, r6, lr}
 291 0214 88509FE5 		ldr	r5, .L72
 292 0218 003095E5 		ldr	r3, [r5, #0]
 293 021c 0040A0E1 		mov	r4, r0
 294 0220 2C3093E5 		ldr	r3, [r3, #44]
 295 0224 2C0090E5 		ldr	r0, [r0, #44]
 296 0228 030050E1 		cmp	r0, r3
 297 022c 7080BD28 		ldmcsfd	sp!, {r4, r5, r6, pc}
 298 0230 70209FE5 		ldr	r2, .L72+4
 299 0234 1430A0E3 		mov	r3, #20
 300 0238 932021E0 		mla	r1, r3, r0, r2
 301 023c 003095E5 		ldr	r3, [r5, #0]
 302 0240 142094E5 		ldr	r2, [r4, #20]
 303 0244 2C3093E5 		ldr	r3, [r3, #44]
 304 0248 010052E1 		cmp	r2, r1
 305 024c 043063E2 		rsb	r3, r3, #4
 306 0250 183084E5 		str	r3, [r4, #24]
 307 0254 00309515 		ldrne	r3, [r5, #0]
 308 0258 2C309315 		ldrne	r3, [r3, #44]
 309 025c 2C308415 		strne	r3, [r4, #44]
 310 0260 7080BD18 		ldmnefd	sp!, {r4, r5, r6, pc}
 311 0264 046084E2 		add	r6, r4, #4
 312 0268 0600A0E1 		mov	r0, r6
 313 026c FEFFFFEB 		bl	vListRemove
 314 0270 003095E5 		ldr	r3, [r5, #0]
 315 0274 30209FE5 		ldr	r2, .L72+8
 316 0278 2C1093E5 		ldr	r1, [r3, #44]
 317 027c 003092E5 		ldr	r3, [r2, #0]
 318 0280 030051E1 		cmp	r1, r3
 319 0284 2C1084E5 		str	r1, [r4, #44]
 320 0288 00108285 		strhi	r1, [r2, #0]
 321 028c 14209FE5 		ldr	r2, .L72+4
 322 0290 1430A0E3 		mov	r3, #20
 323 0294 932120E0 		mla	r0, r3, r1, r2
 324 0298 0610A0E1 		mov	r1, r6
 325 029c 7040BDE8 		ldmfd	sp!, {r4, r5, r6, lr}
 326 02a0 FEFFFFEA 		b	vListInsertEnd
 327              	.L73:
 328              		.align	2
 329              	.L72:
 330 02a4 00000000 		.word	pxCurrentTCB
 331 02a8 34000000 		.word	pxReadyTasksLists
 332 02ac 08000000 		.word	uxTopReadyPriority
 334              		.align	2
 335              		.global	xTaskRemoveFromEventList
 337              	xTaskRemoveFromEventList:
 338              		@ args = 0, pretend = 0, frame = 0
 339              		@ frame_needed = 0, uses_anonymous_args = 0
 340 02b0 0C3090E5 		ldr	r3, [r0, #12]
 341 02b4 30402DE9 		stmfd	sp!, {r4, r5, lr}
 342 02b8 0C5093E5 		ldr	r5, [r3, #12]
 343 02bc 184085E2 		add	r4, r5, #24
 344 02c0 0400A0E1 		mov	r0, r4
 345 02c4 FEFFFFEB 		bl	vListRemove
 346 02c8 64309FE5 		ldr	r3, .L80
 347 02cc 003093E5 		ldr	r3, [r3, #0]
 348 02d0 000053E3 		cmp	r3, #0
 349 02d4 0410A011 		movne	r1, r4
 350 02d8 58009F15 		ldrne	r0, .L80+4
 351 02dc 0B00001A 		bne	.L79
 352 02e0 044085E2 		add	r4, r5, #4
 353 02e4 0400A0E1 		mov	r0, r4
 354 02e8 FEFFFFEB 		bl	vListRemove
 355 02ec 48209FE5 		ldr	r2, .L80+8
 356 02f0 2C1095E5 		ldr	r1, [r5, #44]
 357 02f4 003092E5 		ldr	r3, [r2, #0]
 358 02f8 030051E1 		cmp	r1, r3
 359 02fc 00108285 		strhi	r1, [r2, #0]
 360 0300 38209FE5 		ldr	r2, .L80+12
 361 0304 1430A0E3 		mov	r3, #20
 362 0308 932120E0 		mla	r0, r3, r1, r2
 363 030c 0410A0E1 		mov	r1, r4
 364              	.L79:
 365 0310 FEFFFFEB 		bl	vListInsertEnd
 366 0314 28309FE5 		ldr	r3, .L80+16
 367 0318 003093E5 		ldr	r3, [r3, #0]
 368 031c 2C2095E5 		ldr	r2, [r5, #44]
 369 0320 2C0093E5 		ldr	r0, [r3, #44]
 370 0324 000052E1 		cmp	r2, r0
 371 0328 0000A033 		movcc	r0, #0
 372 032c 0100A023 		movcs	r0, #1
 373 0330 3080BDE8 		ldmfd	sp!, {r4, r5, pc}
 374              	.L81:
 375              		.align	2
 376              	.L80:
 377 0334 10000000 		.word	uxSchedulerSuspended
 378 0338 B4000000 		.word	xPendingReadyList
 379 033c 08000000 		.word	uxTopReadyPriority
 380 0340 34000000 		.word	pxReadyTasksLists
 381 0344 00000000 		.word	pxCurrentTCB
 383              		.align	2
 384              		.global	vTaskIncrementTick
 386              	vTaskIncrementTick:
 387              		@ args = 0, pretend = 0, frame = 0
 388              		@ frame_needed = 0, uses_anonymous_args = 0
 389 0348 30319FE5 		ldr	r3, .L96
 390 034c 003093E5 		ldr	r3, [r3, #0]
 391 0350 000053E3 		cmp	r3, #0
 392 0354 F0472DE9 		stmfd	sp!, {r4, r5, r6, r7, r8, r9, sl, lr}
 393 0358 4300001A 		bne	.L83
 394 035c 20319FE5 		ldr	r3, .L96+4
 395 0360 002093E5 		ldr	r2, [r3, #0]
 396 0364 012082E2 		add	r2, r2, #1
 397 0368 002083E5 		str	r2, [r3, #0]
 398 036c 003093E5 		ldr	r3, [r3, #0]
 399 0370 000053E3 		cmp	r3, #0
 400 0374 1300001A 		bne	.L84
 401 0378 08019FE5 		ldr	r0, .L96+8
 402 037c 08219FE5 		ldr	r2, .L96+12
 403 0380 001090E5 		ldr	r1, [r0, #0]
 404 0384 003092E5 		ldr	r3, [r2, #0]
 405 0388 003080E5 		str	r3, [r0, #0]
 406 038c 001082E5 		str	r1, [r2, #0]
 407 0390 F8209FE5 		ldr	r2, .L96+16
 408 0394 003092E5 		ldr	r3, [r2, #0]
 409 0398 013083E2 		add	r3, r3, #1
 410 039c 003082E5 		str	r3, [r2, #0]
 411 03a0 003090E5 		ldr	r3, [r0, #0]
 412 03a4 003093E5 		ldr	r3, [r3, #0]
 413 03a8 000053E3 		cmp	r3, #0
 414 03ac 00309015 		ldrne	r3, [r0, #0]
 415 03b0 0C309315 		ldrne	r3, [r3, #12]
 416 03b4 0C309315 		ldrne	r3, [r3, #12]
 417 03b8 D4209FE5 		ldr	r2, .L96+20
 418 03bc 04309315 		ldrne	r3, [r3, #4]
 419 03c0 0030E003 		mvneq	r3, #0
 420 03c4 003082E5 		str	r3, [r2, #0]
 421              	.L84:
 422 03c8 C4309FE5 		ldr	r3, .L96+20
 423 03cc B0109FE5 		ldr	r1, .L96+4
 424 03d0 002093E5 		ldr	r2, [r3, #0]
 425 03d4 003091E5 		ldr	r3, [r1, #0]
 426 03d8 020053E1 		cmp	r3, r2
 427 03dc F087BD38 		ldmccfd	sp!, {r4, r5, r6, r7, r8, r9, sl, pc}
 428 03e0 A0709FE5 		ldr	r7, .L96+8
 429 03e4 AC609FE5 		ldr	r6, .L96+24
 430 03e8 AC909FE5 		ldr	r9, .L96+28
 431 03ec 01A0A0E1 		mov	sl, r1
 432 03f0 1480A0E3 		mov	r8, #20
 433              	.L93:
 434 03f4 003097E5 		ldr	r3, [r7, #0]
 435 03f8 003093E5 		ldr	r3, [r3, #0]
 436 03fc 000053E3 		cmp	r3, #0
 437 0400 0020E003 		mvneq	r2, #0
 438 0404 0800000A 		beq	.L95
 439              	.L87:
 440 0408 003097E5 		ldr	r3, [r7, #0]
 441 040c 0C3093E5 		ldr	r3, [r3, #12]
 442 0410 0C4093E5 		ldr	r4, [r3, #12]
 443 0414 00309AE5 		ldr	r3, [sl, #0]
 444 0418 042094E5 		ldr	r2, [r4, #4]
 445 041c 045084E2 		add	r5, r4, #4
 446 0420 020053E1 		cmp	r3, r2
 447 0424 0500A0E1 		mov	r0, r5
 448 0428 0200002A 		bcs	.L88
 449              	.L95:
 450 042c 60309FE5 		ldr	r3, .L96+20
 451 0430 002083E5 		str	r2, [r3, #0]
 452 0434 F087BDE8 		ldmfd	sp!, {r4, r5, r6, r7, r8, r9, sl, pc}
 453              	.L88:
 454 0438 FEFFFFEB 		bl	vListRemove
 455 043c 283094E5 		ldr	r3, [r4, #40]
 456 0440 000053E3 		cmp	r3, #0
 457 0444 180084E2 		add	r0, r4, #24
 458 0448 FEFFFF1B 		blne	vListRemove
 459              	.L89:
 460 044c 2C2094E5 		ldr	r2, [r4, #44]
 461 0450 003096E5 		ldr	r3, [r6, #0]
 462 0454 989220E0 		mla	r0, r8, r2, r9
 463 0458 030052E1 		cmp	r2, r3
 464 045c 0510A0E1 		mov	r1, r5
 465 0460 00208685 		strhi	r2, [r6, #0]
 466 0464 FEFFFFEB 		bl	vListInsertEnd
 467 0468 E1FFFFEA 		b	.L93
 468              	.L83:
 469 046c 2C209FE5 		ldr	r2, .L96+32
 470 0470 003092E5 		ldr	r3, [r2, #0]
 471 0474 013083E2 		add	r3, r3, #1
 472 0478 003082E5 		str	r3, [r2, #0]
 473 047c F087BDE8 		ldmfd	sp!, {r4, r5, r6, r7, r8, r9, sl, pc}
 474              	.L97:
 475              		.align	2
 476              	.L96:
 477 0480 10000000 		.word	uxSchedulerSuspended
 478 0484 1C000000 		.word	xTickCount
 479 0488 AC000000 		.word	pxDelayedTaskList
 480 048c B0000000 		.word	pxOverflowDelayedTaskList
 481 0490 18000000 		.word	xNumOfOverflows
 482 0494 00000000 		.word	xNextTaskUnblockTime
 483 0498 08000000 		.word	uxTopReadyPriority
 484 049c 34000000 		.word	pxReadyTasksLists
 485 04a0 24000000 		.word	uxMissedTicks
 487              		.align	2
 488              		.global	xTaskResumeFromISR
 490              	xTaskResumeFromISR:
 491              		@ args = 0, pretend = 0, frame = 0
 492              		@ frame_needed = 0, uses_anonymous_args = 0
 493 04a4 142090E5 		ldr	r2, [r0, #20]
 494 04a8 A4309FE5 		ldr	r3, .L110
 495 04ac 030052E1 		cmp	r2, r3
 496 04b0 F0402DE9 		stmfd	sp!, {r4, r5, r6, r7, lr}
 497 04b4 0050A0E1 		mov	r5, r0
 498 04b8 1D00001A 		bne	.L99
 499 04bc 284090E5 		ldr	r4, [r0, #40]
 500 04c0 90009FE5 		ldr	r0, .L110+4
 501 04c4 000054E1 		cmp	r4, r0
 502 04c8 1900000A 		beq	.L99
 503 04cc 000054E3 		cmp	r4, #0
 504 04d0 1700001A 		bne	.L99
 505 04d4 190000EA 		b	.L108
 506              	.L103:
 507 04d8 7C309FE5 		ldr	r3, .L110+8
 508 04dc 044085E2 		add	r4, r5, #4
 509 04e0 003093E5 		ldr	r3, [r3, #0]
 510 04e4 0400A0E1 		mov	r0, r4
 511 04e8 2C7093E5 		ldr	r7, [r3, #44]
 512 04ec 2C6095E5 		ldr	r6, [r5, #44]
 513 04f0 FEFFFFEB 		bl	vListRemove
 514 04f4 64209FE5 		ldr	r2, .L110+12
 515 04f8 2C1095E5 		ldr	r1, [r5, #44]
 516 04fc 003092E5 		ldr	r3, [r2, #0]
 517 0500 030051E1 		cmp	r1, r3
 518 0504 00108285 		strhi	r1, [r2, #0]
 519 0508 54209FE5 		ldr	r2, .L110+16
 520 050c 1430A0E3 		mov	r3, #20
 521 0510 932120E0 		mla	r0, r3, r1, r2
 522 0514 0410A0E1 		mov	r1, r4
 523 0518 070056E1 		cmp	r6, r7
 524 051c 0040A033 		movcc	r4, #0
 525 0520 0140A023 		movcs	r4, #1
 526 0524 000000EA 		b	.L107
 527              	.L109:
 528 0528 181085E2 		add	r1, r5, #24
 529              	.L107:
 530 052c FEFFFFEB 		bl	vListInsertEnd
 531 0530 000000EA 		b	.L102
 532              	.L99:
 533 0534 0040A0E3 		mov	r4, #0
 534              	.L102:
 535 0538 0400A0E1 		mov	r0, r4
 536 053c F080BDE8 		ldmfd	sp!, {r4, r5, r6, r7, pc}
 537              	.L108:
 538 0540 20309FE5 		ldr	r3, .L110+20
 539 0544 003093E5 		ldr	r3, [r3, #0]
 540 0548 000053E3 		cmp	r3, #0
 541 054c E1FFFF0A 		beq	.L103
 542 0550 F4FFFFEA 		b	.L109
 543              	.L111:
 544              		.align	2
 545              	.L110:
 546 0554 C8000000 		.word	xSuspendedTaskList
 547 0558 B4000000 		.word	xPendingReadyList
 548 055c 00000000 		.word	pxCurrentTCB
 549 0560 08000000 		.word	uxTopReadyPriority
 550 0564 34000000 		.word	pxReadyTasksLists
 551 0568 10000000 		.word	uxSchedulerSuspended
 553              		.align	2
 554              		.global	xTaskCheckForTimeOut
 556              	xTaskCheckForTimeOut:
 557              		@ args = 0, pretend = 0, frame = 0
 558              		@ frame_needed = 0, uses_anonymous_args = 0
 559 056c 30402DE9 		stmfd	sp!, {r4, r5, lr}
 560 0570 0150A0E1 		mov	r5, r1
 561 0574 0040A0E1 		mov	r4, r0
 562 0578 FEFFFFEB 		bl	vPortEnterCritical
 563 057c 001095E5 		ldr	r1, [r5, #0]
 564 0580 010071E3 		cmn	r1, #1
 565 0584 1700000A 		beq	.L118
 566              	.L113:
 567 0588 70309FE5 		ldr	r3, .L119
 568 058c 002093E5 		ldr	r2, [r3, #0]
 569 0590 003094E5 		ldr	r3, [r4, #0]
 570 0594 030052E1 		cmp	r2, r3
 571 0598 0400000A 		beq	.L115
 572 059c 60309FE5 		ldr	r3, .L119+4
 573 05a0 002093E5 		ldr	r2, [r3, #0]
 574 05a4 043094E5 		ldr	r3, [r4, #4]
 575 05a8 030052E1 		cmp	r2, r3
 576 05ac 0F00002A 		bcs	.L116
 577              	.L115:
 578 05b0 4C009FE5 		ldr	r0, .L119+4
 579 05b4 042094E5 		ldr	r2, [r4, #4]
 580 05b8 003090E5 		ldr	r3, [r0, #0]
 581 05bc 033062E0 		rsb	r3, r2, r3
 582 05c0 010053E1 		cmp	r3, r1
 583 05c4 0900002A 		bcs	.L116
 584 05c8 003090E5 		ldr	r3, [r0, #0]
 585 05cc 023063E0 		rsb	r3, r3, r2
 586 05d0 013083E0 		add	r3, r3, r1
 587 05d4 003085E5 		str	r3, [r5, #0]
 588 05d8 20309FE5 		ldr	r3, .L119
 589 05dc 002093E5 		ldr	r2, [r3, #0]
 590 05e0 003090E5 		ldr	r3, [r0, #0]
 591 05e4 0C0084E8 		stmia	r4, {r2, r3}	@ phole stm
 592              	.L118:
 593 05e8 0040A0E3 		mov	r4, #0
 594 05ec 000000EA 		b	.L114
 595              	.L116:
 596 05f0 0140A0E3 		mov	r4, #1
 597              	.L114:
 598 05f4 FEFFFFEB 		bl	vPortExitCritical
 599 05f8 0400A0E1 		mov	r0, r4
 600 05fc 3080BDE8 		ldmfd	sp!, {r4, r5, pc}
 601              	.L120:
 602              		.align	2
 603              	.L119:
 604 0600 18000000 		.word	xNumOfOverflows
 605 0604 1C000000 		.word	xTickCount
 607              		.align	2
 608              		.global	xTaskGetTickCount
 610              	xTaskGetTickCount:
 611              		@ args = 0, pretend = 0, frame = 0
 612              		@ frame_needed = 0, uses_anonymous_args = 0
 613 0608 10402DE9 		stmfd	sp!, {r4, lr}
 614 060c FEFFFFEB 		bl	vPortEnterCritical
 615 0610 0C309FE5 		ldr	r3, .L123
 616 0614 004093E5 		ldr	r4, [r3, #0]
 617 0618 FEFFFFEB 		bl	vPortExitCritical
 618 061c 0400A0E1 		mov	r0, r4
 619 0620 1080BDE8 		ldmfd	sp!, {r4, pc}
 620              	.L124:
 621              		.align	2
 622              	.L123:
 623 0624 1C000000 		.word	xTickCount
 625              		.align	2
 626              		.global	xTaskResumeAll
 628              	xTaskResumeAll:
 629              		@ args = 0, pretend = 0, frame = 0
 630              		@ frame_needed = 0, uses_anonymous_args = 0
 631 0628 F04F2DE9 		stmfd	sp!, {r4, r5, r6, r7, r8, r9, sl, fp, lr}
 632 062c FEFFFFEB 		bl	vPortEnterCritical
 633 0630 10219FE5 		ldr	r2, .L140
 634 0634 003092E5 		ldr	r3, [r2, #0]
 635 0638 013043E2 		sub	r3, r3, #1
 636 063c 003082E5 		str	r3, [r2, #0]
 637 0640 002092E5 		ldr	r2, [r2, #0]
 638 0644 000052E3 		cmp	r2, #0
 639 0648 3A00001A 		bne	.L126
 640 064c F8309FE5 		ldr	r3, .L140+4
 641 0650 003093E5 		ldr	r3, [r3, #0]
 642 0654 000053E3 		cmp	r3, #0
 643 0658 3600000A 		beq	.L126
 644 065c 0260A0E1 		mov	r6, r2
 645 0660 E8809FE5 		ldr	r8, .L140+8
 646 0664 E8709FE5 		ldr	r7, .L140+12
 647 0668 14B0A0E3 		mov	fp, #20
 648 066c E4909FE5 		ldr	r9, .L140+16
 649 0670 E4A09FE5 		ldr	sl, .L140+20
 650 0674 120000EA 		b	.L136
 651              	.L129:
 652 0678 0C3098E5 		ldr	r3, [r8, #12]
 653 067c 0C5093E5 		ldr	r5, [r3, #12]
 654 0680 180085E2 		add	r0, r5, #24
 655 0684 044085E2 		add	r4, r5, #4
 656 0688 FEFFFFEB 		bl	vListRemove
 657 068c 0400A0E1 		mov	r0, r4
 658 0690 FEFFFFEB 		bl	vListRemove
 659 0694 2C2095E5 		ldr	r2, [r5, #44]
 660 0698 003097E5 		ldr	r3, [r7, #0]
 661 069c 9B9220E0 		mla	r0, fp, r2, r9
 662 06a0 030052E1 		cmp	r2, r3
 663 06a4 0410A0E1 		mov	r1, r4
 664 06a8 00208785 		strhi	r2, [r7, #0]
 665 06ac FEFFFFEB 		bl	vListInsertEnd
 666 06b0 00309AE5 		ldr	r3, [sl, #0]
 667 06b4 2C2095E5 		ldr	r2, [r5, #44]
 668 06b8 2C3093E5 		ldr	r3, [r3, #44]
 669 06bc 030052E1 		cmp	r2, r3
 670 06c0 0160A023 		movcs	r6, #1
 671              	.L136:
 672 06c4 003098E5 		ldr	r3, [r8, #0]
 673 06c8 000053E3 		cmp	r3, #0
 674 06cc E9FFFF1A 		bne	.L129
 675 06d0 88209FE5 		ldr	r2, .L140+24
 676 06d4 003092E5 		ldr	r3, [r2, #0]
 677 06d8 000053E3 		cmp	r3, #0
 678 06dc 0240A011 		movne	r4, r2
 679 06e0 0400001A 		bne	.L138
 680 06e4 070000EA 		b	.L139
 681              	.L132:
 682 06e8 FEFFFFEB 		bl	vTaskIncrementTick
 683 06ec 003094E5 		ldr	r3, [r4, #0]
 684 06f0 013043E2 		sub	r3, r3, #1
 685 06f4 003084E5 		str	r3, [r4, #0]
 686              	.L138:
 687 06f8 003094E5 		ldr	r3, [r4, #0]
 688 06fc 000053E3 		cmp	r3, #0
 689 0700 F8FFFF1A 		bne	.L132
 690 0704 050000EA 		b	.L133
 691              	.L139:
 692 0708 010056E3 		cmp	r6, #1
 693 070c 0300000A 		beq	.L133
 694 0710 4C309FE5 		ldr	r3, .L140+28
 695 0714 003093E5 		ldr	r3, [r3, #0]
 696 0718 010053E3 		cmp	r3, #1
 697 071c 0500001A 		bne	.L126
 698              	.L133:
 699 0720 3C309FE5 		ldr	r3, .L140+28
 700 0724 0020A0E3 		mov	r2, #0
 701 0728 002083E5 		str	r2, [r3, #0]
 702              	@ 1192 "../FreeRTOS/src/tasks.c" 1
 703 072c 000000EF 		SWI 0
 704              	@ 0 "" 2
 705 0730 0140A0E3 		mov	r4, #1
 706 0734 000000EA 		b	.L134
 707              	.L126:
 708 0738 0040A0E3 		mov	r4, #0
 709              	.L134:
 710 073c FEFFFFEB 		bl	vPortExitCritical
 711 0740 0400A0E1 		mov	r0, r4
 712 0744 F08FBDE8 		ldmfd	sp!, {r4, r5, r6, r7, r8, r9, sl, fp, pc}
 713              	.L141:
 714              		.align	2
 715              	.L140:
 716 0748 10000000 		.word	uxSchedulerSuspended
 717 074c 2C000000 		.word	uxCurrentNumberOfTasks
 718 0750 B4000000 		.word	xPendingReadyList
 719 0754 08000000 		.word	uxTopReadyPriority
 720 0758 34000000 		.word	pxReadyTasksLists
 721 075c 00000000 		.word	pxCurrentTCB
 722 0760 24000000 		.word	uxMissedTicks
 723 0764 14000000 		.word	xMissedYield
 725              		.align	2
 726              		.global	vTaskResume
 728              	vTaskResume:
 729              		@ args = 0, pretend = 0, frame = 0
 730              		@ frame_needed = 0, uses_anonymous_args = 0
 731 0768 30402DE9 		stmfd	sp!, {r4, r5, lr}
 732 076c 004050E2 		subs	r4, r0, #0
 733 0770 3080BD08 		ldmeqfd	sp!, {r4, r5, pc}
 734 0774 94309FE5 		ldr	r3, .L151
 735 0778 003093E5 		ldr	r3, [r3, #0]
 736 077c 030054E1 		cmp	r4, r3
 737 0780 3080BD08 		ldmeqfd	sp!, {r4, r5, pc}
 738 0784 FEFFFFEB 		bl	vPortEnterCritical
 739 0788 142094E5 		ldr	r2, [r4, #20]
 740 078c 80309FE5 		ldr	r3, .L151+4
 741 0790 030052E1 		cmp	r2, r3
 742 0794 0700001A 		bne	.L144
 743 0798 282094E5 		ldr	r2, [r4, #40]
 744 079c 74309FE5 		ldr	r3, .L151+8
 745 07a0 030052E1 		cmp	r2, r3
 746 07a4 0300000A 		beq	.L144
 747 07a8 000052E3 		cmp	r2, #0
 748 07ac 0100001A 		bne	.L144
 749 07b0 020000EA 		b	.L149
 750              	.L150:
 751              	@ 982 "../FreeRTOS/src/tasks.c" 1
 752 07b4 000000EF 		SWI 0
 753              	@ 0 "" 2
 754              	.L144:
 755 07b8 3040BDE8 		ldmfd	sp!, {r4, r5, lr}
 756 07bc FEFFFFEA 		b	vPortExitCritical
 757              	.L149:
 758 07c0 045084E2 		add	r5, r4, #4
 759 07c4 0500A0E1 		mov	r0, r5
 760 07c8 FEFFFFEB 		bl	vListRemove
 761 07cc 48209FE5 		ldr	r2, .L151+12
 762 07d0 2C1094E5 		ldr	r1, [r4, #44]
 763 07d4 003092E5 		ldr	r3, [r2, #0]
 764 07d8 030051E1 		cmp	r1, r3
 765 07dc 00108285 		strhi	r1, [r2, #0]
 766 07e0 38209FE5 		ldr	r2, .L151+16
 767 07e4 1430A0E3 		mov	r3, #20
 768 07e8 932120E0 		mla	r0, r3, r1, r2
 769 07ec 0510A0E1 		mov	r1, r5
 770 07f0 FEFFFFEB 		bl	vListInsertEnd
 771 07f4 14309FE5 		ldr	r3, .L151
 772 07f8 003093E5 		ldr	r3, [r3, #0]
 773 07fc 2C2094E5 		ldr	r2, [r4, #44]
 774 0800 2C3093E5 		ldr	r3, [r3, #44]
 775 0804 030052E1 		cmp	r2, r3
 776 0808 EAFFFF3A 		bcc	.L144
 777 080c E8FFFFEA 		b	.L150
 778              	.L152:
 779              		.align	2
 780              	.L151:
 781 0810 00000000 		.word	pxCurrentTCB
 782 0814 C8000000 		.word	xSuspendedTaskList
 783 0818 B4000000 		.word	xPendingReadyList
 784 081c 08000000 		.word	uxTopReadyPriority
 785 0820 34000000 		.word	pxReadyTasksLists
 787              		.align	2
 789              	prvAddCurrentTaskToDelayedList:
 790              		@ args = 0, pretend = 0, frame = 0
 791              		@ frame_needed = 0, uses_anonymous_args = 0
 792 0824 5C109FE5 		ldr	r1, .L157
 793 0828 5C209FE5 		ldr	r2, .L157+4
 794 082c 003091E5 		ldr	r3, [r1, #0]
 795 0830 002092E5 		ldr	r2, [r2, #0]
 796 0834 020050E1 		cmp	r0, r2
 797 0838 10402DE9 		stmfd	sp!, {r4, lr}
 798 083c 040083E5 		str	r0, [r3, #4]
 799 0840 0040A0E1 		mov	r4, r0
 800 0844 0500002A 		bcs	.L154
 801 0848 40309FE5 		ldr	r3, .L157+8
 802 084c 000093E5 		ldr	r0, [r3, #0]
 803 0850 001091E5 		ldr	r1, [r1, #0]
 804 0854 041081E2 		add	r1, r1, #4
 805 0858 1040BDE8 		ldmfd	sp!, {r4, lr}
 806 085c FEFFFFEA 		b	vListInsert
 807              	.L154:
 808 0860 2C309FE5 		ldr	r3, .L157+12
 809 0864 000093E5 		ldr	r0, [r3, #0]
 810 0868 001091E5 		ldr	r1, [r1, #0]
 811 086c 041081E2 		add	r1, r1, #4
 812 0870 FEFFFFEB 		bl	vListInsert
 813 0874 1C209FE5 		ldr	r2, .L157+16
 814 0878 003092E5 		ldr	r3, [r2, #0]
 815 087c 030054E1 		cmp	r4, r3
 816 0880 00408235 		strcc	r4, [r2, #0]
 817 0884 1080BDE8 		ldmfd	sp!, {r4, pc}
 818              	.L158:
 819              		.align	2
 820              	.L157:
 821 0888 00000000 		.word	pxCurrentTCB
 822 088c 1C000000 		.word	xTickCount
 823 0890 B0000000 		.word	pxOverflowDelayedTaskList
 824 0894 AC000000 		.word	pxDelayedTaskList
 825 0898 00000000 		.word	xNextTaskUnblockTime
 827              		.align	2
 828              		.global	vTaskPlaceOnEventListRestricted
 830              	vTaskPlaceOnEventListRestricted:
 831              		@ args = 0, pretend = 0, frame = 0
 832              		@ frame_needed = 0, uses_anonymous_args = 0
 833 089c 30402DE9 		stmfd	sp!, {r4, r5, lr}
 834 08a0 2C409FE5 		ldr	r4, .L161
 835 08a4 003094E5 		ldr	r3, [r4, #0]
 836 08a8 0150A0E1 		mov	r5, r1
 837 08ac 181083E2 		add	r1, r3, #24
 838 08b0 FEFFFFEB 		bl	vListInsertEnd
 839 08b4 000094E5 		ldr	r0, [r4, #0]
 840 08b8 040080E2 		add	r0, r0, #4
 841 08bc FEFFFFEB 		bl	vListRemove
 842 08c0 10309FE5 		ldr	r3, .L161+4
 843 08c4 000093E5 		ldr	r0, [r3, #0]
 844 08c8 000085E0 		add	r0, r5, r0
 845 08cc 3040BDE8 		ldmfd	sp!, {r4, r5, lr}
 846 08d0 D3FFFFEA 		b	prvAddCurrentTaskToDelayedList
 847              	.L162:
 848              		.align	2
 849              	.L161:
 850 08d4 00000000 		.word	pxCurrentTCB
 851 08d8 1C000000 		.word	xTickCount
 853              		.align	2
 854              		.global	vTaskDelay
 856              	vTaskDelay:
 857              		@ args = 0, pretend = 0, frame = 0
 858              		@ frame_needed = 0, uses_anonymous_args = 0
 859 08dc 30402DE9 		stmfd	sp!, {r4, r5, lr}
 860 08e0 005050E2 		subs	r5, r0, #0
 861 08e4 0E00000A 		beq	.L164
 862 08e8 3C209FE5 		ldr	r2, .L167
 863 08ec 003092E5 		ldr	r3, [r2, #0]
 864 08f0 013083E2 		add	r3, r3, #1
 865 08f4 003082E5 		str	r3, [r2, #0]
 866 08f8 30309FE5 		ldr	r3, .L167+4
 867 08fc 004093E5 		ldr	r4, [r3, #0]
 868 0900 2C309FE5 		ldr	r3, .L167+8
 869 0904 000093E5 		ldr	r0, [r3, #0]
 870 0908 040080E2 		add	r0, r0, #4
 871 090c FEFFFFEB 		bl	vListRemove
 872 0910 040085E0 		add	r0, r5, r4
 873 0914 C2FFFFEB 		bl	prvAddCurrentTaskToDelayedList
 874 0918 FEFFFFEB 		bl	xTaskResumeAll
 875 091c 000050E3 		cmp	r0, #0
 876 0920 3080BD18 		ldmnefd	sp!, {r4, r5, pc}
 877              	.L164:
 878              	@ 714 "../FreeRTOS/src/tasks.c" 1
 879 0924 000000EF 		SWI 0
 880              	@ 0 "" 2
 881 0928 3080BDE8 		ldmfd	sp!, {r4, r5, pc}
 882              	.L168:
 883              		.align	2
 884              	.L167:
 885 092c 10000000 		.word	uxSchedulerSuspended
 886 0930 1C000000 		.word	xTickCount
 887 0934 00000000 		.word	pxCurrentTCB
 889              		.align	2
 890              		.global	vTaskDelayUntil
 892              	vTaskDelayUntil:
 893              		@ args = 0, pretend = 0, frame = 0
 894              		@ frame_needed = 0, uses_anonymous_args = 0
 895 0938 88309FE5 		ldr	r3, .L177
 896 093c 002093E5 		ldr	r2, [r3, #0]
 897 0940 012082E2 		add	r2, r2, #1
 898 0944 002083E5 		str	r2, [r3, #0]
 899 0948 7CC09FE5 		ldr	ip, .L177+4
 900 094c 002090E5 		ldr	r2, [r0, #0]
 901 0950 00309CE5 		ldr	r3, [ip, #0]
 902 0954 020053E1 		cmp	r3, r2
 903 0958 10402DE9 		stmfd	sp!, {r4, lr}
 904 095c 024081E0 		add	r4, r1, r2
 905 0960 0300002A 		bcs	.L170
 906 0964 020054E1 		cmp	r4, r2
 907 0968 0030A023 		movcs	r3, #0
 908 096c 0700002A 		bcs	.L172
 909 0970 020000EA 		b	.L173
 910              	.L170:
 911 0974 020054E1 		cmp	r4, r2
 912 0978 0130A033 		movcc	r3, #1
 913 097c 0300003A 		bcc	.L172
 914              	.L173:
 915 0980 00309CE5 		ldr	r3, [ip, #0]
 916 0984 030054E1 		cmp	r4, r3
 917 0988 0030A093 		movls	r3, #0
 918 098c 0130A083 		movhi	r3, #1
 919              	.L172:
 920 0990 000053E3 		cmp	r3, #0
 921 0994 004080E5 		str	r4, [r0, #0]
 922 0998 0500000A 		beq	.L174
 923 099c 2C309FE5 		ldr	r3, .L177+8
 924 09a0 000093E5 		ldr	r0, [r3, #0]
 925 09a4 040080E2 		add	r0, r0, #4
 926 09a8 FEFFFFEB 		bl	vListRemove
 927 09ac 0400A0E1 		mov	r0, r4
 928 09b0 9BFFFFEB 		bl	prvAddCurrentTaskToDelayedList
 929              	.L174:
 930 09b4 FEFFFFEB 		bl	xTaskResumeAll
 931 09b8 000050E3 		cmp	r0, #0
 932 09bc 1080BD18 		ldmnefd	sp!, {r4, pc}
 933              	@ 668 "../FreeRTOS/src/tasks.c" 1
 934 09c0 000000EF 		SWI 0
 935              	@ 0 "" 2
 936 09c4 1080BDE8 		ldmfd	sp!, {r4, pc}
 937              	.L178:
 938              		.align	2
 939              	.L177:
 940 09c8 10000000 		.word	uxSchedulerSuspended
 941 09cc 1C000000 		.word	xTickCount
 942 09d0 00000000 		.word	pxCurrentTCB
 944              		.align	2
 945              		.global	vTaskPlaceOnEventList
 947              	vTaskPlaceOnEventList:
 948              		@ args = 0, pretend = 0, frame = 0
 949              		@ frame_needed = 0, uses_anonymous_args = 0
 950 09d4 30402DE9 		stmfd	sp!, {r4, r5, lr}
 951 09d8 48409FE5 		ldr	r4, .L182
 952 09dc 003094E5 		ldr	r3, [r4, #0]
 953 09e0 0150A0E1 		mov	r5, r1
 954 09e4 181083E2 		add	r1, r3, #24
 955 09e8 FEFFFFEB 		bl	vListInsert
 956 09ec 000094E5 		ldr	r0, [r4, #0]
 957 09f0 040080E2 		add	r0, r0, #4
 958 09f4 FEFFFFEB 		bl	vListRemove
 959 09f8 010075E3 		cmn	r5, #1
 960 09fc 0400001A 		bne	.L180
 961 0a00 001094E5 		ldr	r1, [r4, #0]
 962 0a04 20009FE5 		ldr	r0, .L182+4
 963 0a08 041081E2 		add	r1, r1, #4
 964 0a0c 3040BDE8 		ldmfd	sp!, {r4, r5, lr}
 965 0a10 FEFFFFEA 		b	vListInsertEnd
 966              	.L180:
 967 0a14 14309FE5 		ldr	r3, .L182+8
 968 0a18 000093E5 		ldr	r0, [r3, #0]
 969 0a1c 000085E0 		add	r0, r5, r0
 970 0a20 3040BDE8 		ldmfd	sp!, {r4, r5, lr}
 971 0a24 7EFFFFEA 		b	prvAddCurrentTaskToDelayedList
 972              	.L183:
 973              		.align	2
 974              	.L182:
 975 0a28 00000000 		.word	pxCurrentTCB
 976 0a2c C8000000 		.word	xSuspendedTaskList
 977 0a30 1C000000 		.word	xTickCount
 979              		.align	2
 980              		.global	vTaskSwitchContext
 982              	vTaskSwitchContext:
 983              		@ args = 0, pretend = 0, frame = 0
 984              		@ frame_needed = 0, uses_anonymous_args = 0
 985 0a34 0C319FE5 		ldr	r3, .L194
 986 0a38 003093E5 		ldr	r3, [r3, #0]
 987 0a3c 000053E3 		cmp	r3, #0
 988 0a40 30402DE9 		stmfd	sp!, {r4, r5, lr}
 989 0a44 0120A013 		movne	r2, #1
 990 0a48 FC309F15 		ldrne	r3, .L194+4
 991 0a4c 3B00001A 		bne	.L193
 992 0a50 F8509FE5 		ldr	r5, .L194+8
 993 0a54 F8309FE5 		ldr	r3, .L194+12
 994 0a58 084093E5 		ldr	r4, [r3, #8]
 995 0a5c 00C095E5 		ldr	ip, [r5, #0]
 996 0a60 F0E09FE5 		ldr	lr, .L194+16
 997 0a64 002095E5 		ldr	r2, [r5, #0]
 998 0a68 001095E5 		ldr	r1, [r5, #0]
 999 0a6c 48309CE5 		ldr	r3, [ip, #72]
 1000 0a70 000092E5 		ldr	r0, [r2, #0]
 1001 0a74 302091E5 		ldr	r2, [r1, #48]
 1002 0a78 00109EE5 		ldr	r1, [lr, #0]
 1003 0a7c 033084E0 		add	r3, r4, r3
 1004 0a80 033061E0 		rsb	r3, r1, r3
 1005 0a84 020050E1 		cmp	r0, r2
 1006 0a88 48308CE5 		str	r3, [ip, #72]
 1007 0a8c 00408EE5 		str	r4, [lr, #0]
 1008 0a90 00009595 		ldrls	r0, [r5, #0]
 1009 0a94 00109595 		ldrls	r1, [r5, #0]
 1010 0a98 34108192 		addls	r1, r1, #52
 1011 0a9c FEFFFF9B 		blls	vApplicationStackOverflowHook
 1012              	.L187:
 1013 0aa0 A8409FE5 		ldr	r4, .L194+8
 1014 0aa4 003094E5 		ldr	r3, [r4, #0]
 1015 0aa8 AC109FE5 		ldr	r1, .L194+20
 1016 0aac 300093E5 		ldr	r0, [r3, #48]
 1017 0ab0 1420A0E3 		mov	r2, #20
 1018 0ab4 FEFFFFEB 		bl	memcmp
 1019 0ab8 000050E3 		cmp	r0, #0
 1020 0abc 0800000A 		beq	.L188
 1021 0ac0 000094E5 		ldr	r0, [r4, #0]
 1022 0ac4 001094E5 		ldr	r1, [r4, #0]
 1023 0ac8 341081E2 		add	r1, r1, #52
 1024 0acc FEFFFFEB 		bl	vApplicationStackOverflowHook
 1025 0ad0 030000EA 		b	.L188
 1026              	.L189:
 1027 0ad4 003092E5 		ldr	r3, [r2, #0]
 1028 0ad8 013043E2 		sub	r3, r3, #1
 1029 0adc 003082E5 		str	r3, [r2, #0]
 1030 0ae0 020000EA 		b	.L192
 1031              	.L188:
 1032 0ae4 74209FE5 		ldr	r2, .L194+24
 1033 0ae8 74009FE5 		ldr	r0, .L194+28
 1034 0aec 1410A0E3 		mov	r1, #20
 1035              	.L192:
 1036 0af0 003092E5 		ldr	r3, [r2, #0]
 1037 0af4 910303E0 		mul	r3, r1, r3
 1038 0af8 033090E7 		ldr	r3, [r0, r3]
 1039 0afc 000053E3 		cmp	r3, #0
 1040 0b00 F3FFFF0A 		beq	.L189
 1041 0b04 54309FE5 		ldr	r3, .L194+24
 1042 0b08 54209FE5 		ldr	r2, .L194+28
 1043 0b0c 001093E5 		ldr	r1, [r3, #0]
 1044 0b10 1430A0E3 		mov	r3, #20
 1045 0b14 932120E0 		mla	r0, r3, r1, r2
 1046 0b18 043090E5 		ldr	r3, [r0, #4]
 1047 0b1c 042093E5 		ldr	r2, [r3, #4]
 1048 0b20 083080E2 		add	r3, r0, #8
 1049 0b24 042080E5 		str	r2, [r0, #4]
 1050 0b28 030052E1 		cmp	r2, r3
 1051 0b2c 04309205 		ldreq	r3, [r2, #4]
 1052 0b30 04308005 		streq	r3, [r0, #4]
 1053 0b34 043090E5 		ldr	r3, [r0, #4]
 1054 0b38 0C2093E5 		ldr	r2, [r3, #12]
 1055 0b3c 0C309FE5 		ldr	r3, .L194+8
 1056              	.L193:
 1057 0b40 002083E5 		str	r2, [r3, #0]
 1058 0b44 3080BDE8 		ldmfd	sp!, {r4, r5, pc}
 1059              	.L195:
 1060              		.align	2
 1061              	.L194:
 1062 0b48 10000000 		.word	uxSchedulerSuspended
 1063 0b4c 14000000 		.word	xMissedYield
 1064 0b50 00000000 		.word	pxCurrentTCB
 1065 0b54 008000E0 		.word	-536838144
 1066 0b58 20000000 		.word	ulTaskSwitchedInTime
 1067 0b5c 00000000 		.word	ucExpectedStackBytes.3122
 1068 0b60 08000000 		.word	uxTopReadyPriority
 1069 0b64 34000000 		.word	pxReadyTasksLists
 1071              		.align	2
 1072              		.global	vTaskSuspend
 1074              	vTaskSuspend:
 1075              		@ args = 0, pretend = 0, frame = 0
 1076              		@ frame_needed = 0, uses_anonymous_args = 0
 1077 0b68 70402DE9 		stmfd	sp!, {r4, r5, r6, lr}
 1078 0b6c 0050A0E1 		mov	r5, r0
 1079 0b70 FEFFFFEB 		bl	vPortEnterCritical
 1080 0b74 94309FE5 		ldr	r3, .L206
 1081 0b78 003093E5 		ldr	r3, [r3, #0]
 1082 0b7c 030055E1 		cmp	r5, r3
 1083 0b80 0050A003 		moveq	r5, #0
 1084 0b84 0200000A 		beq	.L198
 1085 0b88 000055E3 		cmp	r5, #0
 1086 0b8c 0540A011 		movne	r4, r5
 1087 0b90 0100001A 		bne	.L200
 1088              	.L198:
 1089 0b94 74309FE5 		ldr	r3, .L206
 1090 0b98 004093E5 		ldr	r4, [r3, #0]
 1091              	.L200:
 1092 0b9c 046084E2 		add	r6, r4, #4
 1093 0ba0 0600A0E1 		mov	r0, r6
 1094 0ba4 FEFFFFEB 		bl	vListRemove
 1095 0ba8 283094E5 		ldr	r3, [r4, #40]
 1096 0bac 000053E3 		cmp	r3, #0
 1097 0bb0 18008412 		addne	r0, r4, #24
 1098 0bb4 FEFFFF1B 		blne	vListRemove
 1099              	.L201:
 1100 0bb8 54409FE5 		ldr	r4, .L206+4
 1101 0bbc 0610A0E1 		mov	r1, r6
 1102 0bc0 0400A0E1 		mov	r0, r4
 1103 0bc4 FEFFFFEB 		bl	vListInsertEnd
 1104 0bc8 FEFFFFEB 		bl	vPortExitCritical
 1105 0bcc 000055E3 		cmp	r5, #0
 1106 0bd0 7080BD18 		ldmnefd	sp!, {r4, r5, r6, pc}
 1107 0bd4 3C309FE5 		ldr	r3, .L206+8
 1108 0bd8 003093E5 		ldr	r3, [r3, #0]
 1109 0bdc 000053E3 		cmp	r3, #0
 1110 0be0 0100000A 		beq	.L203
 1111              	@ 889 "../FreeRTOS/src/tasks.c" 1
 1112 0be4 000000EF 		SWI 0
 1113              	@ 0 "" 2
 1114 0be8 7080BDE8 		ldmfd	sp!, {r4, r5, r6, pc}
 1115              	.L203:
 1116 0bec 28209FE5 		ldr	r2, .L206+12
 1117 0bf0 003094E5 		ldr	r3, [r4, #0]
 1118 0bf4 002092E5 		ldr	r2, [r2, #0]
 1119 0bf8 020053E1 		cmp	r3, r2
 1120 0bfc 0C309F05 		ldreq	r3, .L206
 1121 0c00 00508305 		streq	r5, [r3, #0]
 1122 0c04 7080BD08 		ldmeqfd	sp!, {r4, r5, r6, pc}
 1123 0c08 7040BDE8 		ldmfd	sp!, {r4, r5, r6, lr}
 1124 0c0c FEFFFFEA 		b	vTaskSwitchContext
 1125              	.L207:
 1126              		.align	2
 1127              	.L206:
 1128 0c10 00000000 		.word	pxCurrentTCB
 1129 0c14 C8000000 		.word	xSuspendedTaskList
 1130 0c18 0C000000 		.word	xSchedulerRunning
 1131 0c1c 2C000000 		.word	uxCurrentNumberOfTasks
 1133              		.section	.rodata.str1.1,"aMS",%progbits,1
 1134              	.LC0:
 1135 0000 25387320 		.ascii	"%8s  %10u    0%%\015\012\000"
 1135      20253130 
 1135      75202020 
 1135      20302525 
 1135      0D0A00
 1136              		.global	__udivsi3
 1137              	.LC1:
 1138 0013 25387320 		.ascii	"%8s  %10u  %3u%%\015\012\000"
 1138      20253130 
 1138      75202025 
 1138      33752525 
 1138      0D0A00
 1139              	.LC2:
 1140 0026 25387320 		.ascii	"%8s  %10u   <1%%\015\012\000"
 1140      20253130 
 1140      75202020 
 1140      3C312525 
 1140      0D0A00
 1141              		.text
 1142              		.align	2
 1144              	prvGenerateRunTimeStatsForTasksInList:
 1145              		@ args = 0, pretend = 0, frame = 4
 1146              		@ frame_needed = 0, uses_anonymous_args = 0
 1147 0c20 F04F2DE9 		stmfd	sp!, {r4, r5, r6, r7, r8, r9, sl, fp, lr}
 1148 0c24 0160A0E1 		mov	r6, r1
 1149 0c28 041091E5 		ldr	r1, [r1, #4]
 1150 0c2c 04C091E5 		ldr	ip, [r1, #4]
 1151 0c30 081086E2 		add	r1, r6, #8
 1152 0c34 04C086E5 		str	ip, [r6, #4]
 1153 0c38 FF3003E2 		and	r3, r3, #255
 1154 0c3c 01005CE1 		cmp	ip, r1
 1155 0c40 08D04DE2 		sub	sp, sp, #8
 1156 0c44 04308DE5 		str	r3, [sp, #4]
 1157 0c48 04309C05 		ldreq	r3, [ip, #4]
 1158 0c4c 04308605 		streq	r3, [r6, #4]
 1159 0c50 043096E5 		ldr	r3, [r6, #4]
 1160 0c54 0CB093E5 		ldr	fp, [r3, #12]
 1161 0c58 0070A0E1 		mov	r7, r0
 1162 0c5c 0290A0E1 		mov	r9, r2
 1163 0c60 08A086E2 		add	sl, r6, #8
 1164              	.L215:
 1165 0c64 043096E5 		ldr	r3, [r6, #4]
 1166 0c68 043093E5 		ldr	r3, [r3, #4]
 1167 0c6c 043086E5 		str	r3, [r6, #4]
 1168 0c70 0A0053E1 		cmp	r3, sl
 1169 0c74 04309A05 		ldreq	r3, [sl, #4]
 1170 0c78 04308605 		streq	r3, [r6, #4]
 1171 0c7c 043096E5 		ldr	r3, [r6, #4]
 1172 0c80 000059E3 		cmp	r9, #0
 1173 0c84 0C4093E5 		ldr	r4, [r3, #12]
 1174 0c88 2300000A 		beq	.L211
 1175 0c8c 485094E5 		ldr	r5, [r4, #72]
 1176 0c90 000055E3 		cmp	r5, #0
 1177 0c94 0600001A 		bne	.L212
 1178 0c98 0700A0E1 		mov	r0, r7
 1179 0c9c FEFFFFEB 		bl	strlen
 1180 0ca0 0530A0E1 		mov	r3, r5
 1181 0ca4 000087E0 		add	r0, r7, r0
 1182 0ca8 7C109FE5 		ldr	r1, .L219
 1183 0cac 342084E2 		add	r2, r4, #52
 1184 0cb0 140000EA 		b	.L218
 1185              	.L212:
 1186 0cb4 480094E5 		ldr	r0, [r4, #72]
 1187 0cb8 0910A0E1 		mov	r1, r9
 1188 0cbc FEFFFFEB 		bl	__udivsi3
 1189 0cc0 008050E2 		subs	r8, r0, #0
 1190 0cc4 345084E2 		add	r5, r4, #52
 1191 0cc8 0800000A 		beq	.L214
 1192 0ccc 0700A0E1 		mov	r0, r7
 1193 0cd0 FEFFFFEB 		bl	strlen
 1194 0cd4 483094E5 		ldr	r3, [r4, #72]
 1195 0cd8 000087E0 		add	r0, r7, r0
 1196 0cdc 0520A0E1 		mov	r2, r5
 1197 0ce0 48109FE5 		ldr	r1, .L219+4
 1198 0ce4 00808DE5 		str	r8, [sp, #0]
 1199 0ce8 FEFFFFEB 		bl	siprintf
 1200 0cec 060000EA 		b	.L213
 1201              	.L214:
 1202 0cf0 0700A0E1 		mov	r0, r7
 1203 0cf4 FEFFFFEB 		bl	strlen
 1204 0cf8 483094E5 		ldr	r3, [r4, #72]
 1205 0cfc 30109FE5 		ldr	r1, .L219+8
 1206 0d00 000087E0 		add	r0, r7, r0
 1207 0d04 0520A0E1 		mov	r2, r5
 1208              	.L218:
 1209 0d08 FEFFFFEB 		bl	siprintf
 1210              	.L213:
 1211 0d0c 04309DE5 		ldr	r3, [sp, #4]
 1212 0d10 000053E3 		cmp	r3, #0
 1213 0d14 0030A013 		movne	r3, #0
 1214 0d18 48308415 		strne	r3, [r4, #72]
 1215              	.L211:
 1216 0d1c 0B0054E1 		cmp	r4, fp
 1217 0d20 CFFFFF1A 		bne	.L215
 1218 0d24 08D08DE2 		add	sp, sp, #8
 1219 0d28 F08FBDE8 		ldmfd	sp!, {r4, r5, r6, r7, r8, r9, sl, fp, pc}
 1220              	.L220:
 1221              		.align	2
 1222              	.L219:
 1223 0d2c 00000000 		.word	.LC0
 1224 0d30 13000000 		.word	.LC1
 1225 0d34 26000000 		.word	.LC2
 1227              		.section	.rodata.str1.1
 1228              	.LC3:
 1229 0039 3C4F5645 		.ascii	"<OVERHEAD>\000"
 1229      52484541 
 1229      443E00
 1230              		.text
 1231              		.align	2
 1232              		.global	vTaskGetRunTimeStats
 1234              	vTaskGetRunTimeStats:
 1235              		@ args = 0, pretend = 0, frame = 0
 1236              		@ frame_needed = 0, uses_anonymous_args = 0
 1237 0d38 74219FE5 		ldr	r2, .L232
 1238 0d3c 003092E5 		ldr	r3, [r2, #0]
 1239 0d40 F0412DE9 		stmfd	sp!, {r4, r5, r6, r7, r8, lr}
 1240 0d44 013083E2 		add	r3, r3, #1
 1241 0d48 003082E5 		str	r3, [r2, #0]
 1242 0d4c 64319FE5 		ldr	r3, .L232+4
 1243 0d50 083093E5 		ldr	r3, [r3, #8]
 1244 0d54 0120A0E1 		mov	r2, r1
 1245 0d58 0060A0E1 		mov	r6, r0
 1246 0d5c 04D04DE2 		sub	sp, sp, #4
 1247 0d60 0300A0E1 		mov	r0, r3
 1248 0d64 6410A0E3 		mov	r1, #100
 1249 0d68 FF8002E2 		and	r8, r2, #255
 1250 0d6c FEFFFFEB 		bl	__udivsi3
 1251 0d70 0030A0E3 		mov	r3, #0
 1252 0d74 0030C6E5 		strb	r3, [r6, #0]
 1253 0d78 3C319FE5 		ldr	r3, .L232+8
 1254 0d7c 003093E5 		ldr	r3, [r3, #0]
 1255 0d80 38219FE5 		ldr	r2, .L232+12
 1256 0d84 015083E2 		add	r5, r3, #1
 1257 0d88 1430A0E3 		mov	r3, #20
 1258 0d8c 932524E0 		mla	r4, r3, r5, r2
 1259 0d90 0070A0E1 		mov	r7, r0
 1260              	.L223:
 1261 0d94 003094E5 		ldr	r3, [r4, #0]
 1262 0d98 000053E3 		cmp	r3, #0
 1263 0d9c 015045E2 		sub	r5, r5, #1
 1264 0da0 0410A011 		movne	r1, r4
 1265 0da4 0600A011 		movne	r0, r6
 1266 0da8 0720A011 		movne	r2, r7
 1267 0dac 0830A011 		movne	r3, r8
 1268 0db0 9AFFFF1B 		blne	prvGenerateRunTimeStatsForTasksInList
 1269              	.L222:
 1270 0db4 000055E3 		cmp	r5, #0
 1271 0db8 144044E2 		sub	r4, r4, #20
 1272 0dbc F4FFFF1A 		bne	.L223
 1273 0dc0 FC109FE5 		ldr	r1, .L232+16
 1274 0dc4 003091E5 		ldr	r3, [r1, #0]
 1275 0dc8 003093E5 		ldr	r3, [r3, #0]
 1276 0dcc 000053E3 		cmp	r3, #0
 1277 0dd0 00109115 		ldrne	r1, [r1, #0]
 1278 0dd4 0600A011 		movne	r0, r6
 1279 0dd8 0720A011 		movne	r2, r7
 1280 0ddc 0830A011 		movne	r3, r8
 1281 0de0 8EFFFF1B 		blne	prvGenerateRunTimeStatsForTasksInList
 1282              	.L224:
 1283 0de4 DC109FE5 		ldr	r1, .L232+20
 1284 0de8 003091E5 		ldr	r3, [r1, #0]
 1285 0dec 003093E5 		ldr	r3, [r3, #0]
 1286 0df0 000053E3 		cmp	r3, #0
 1287 0df4 00109115 		ldrne	r1, [r1, #0]
 1288 0df8 0600A011 		movne	r0, r6
 1289 0dfc 0720A011 		movne	r2, r7
 1290 0e00 0830A011 		movne	r3, r8
 1291 0e04 85FFFF1B 		blne	prvGenerateRunTimeStatsForTasksInList
 1292              	.L225:
 1293 0e08 BC109FE5 		ldr	r1, .L232+24
 1294 0e0c 003091E5 		ldr	r3, [r1, #0]
 1295 0e10 000053E3 		cmp	r3, #0
 1296 0e14 0600A011 		movne	r0, r6
 1297 0e18 0720A011 		movne	r2, r7
 1298 0e1c 0830A011 		movne	r3, r8
 1299 0e20 7EFFFF1B 		blne	prvGenerateRunTimeStatsForTasksInList
 1300              	.L226:
 1301 0e24 A4309FE5 		ldr	r3, .L232+28
 1302 0e28 004093E5 		ldr	r4, [r3, #0]
 1303 0e2c 0710A0E1 		mov	r1, r7
 1304 0e30 0400A0E1 		mov	r0, r4
 1305 0e34 FEFFFFEB 		bl	__udivsi3
 1306 0e38 005050E2 		subs	r5, r0, #0
 1307 0e3c 0700001A 		bne	.L227
 1308 0e40 0600A0E1 		mov	r0, r6
 1309 0e44 FEFFFFEB 		bl	strlen
 1310 0e48 0430A0E1 		mov	r3, r4
 1311 0e4c 000086E0 		add	r0, r6, r0
 1312 0e50 7C109FE5 		ldr	r1, .L232+32
 1313 0e54 7C209FE5 		ldr	r2, .L232+36
 1314 0e58 FEFFFFEB 		bl	siprintf
 1315 0e5c 070000EA 		b	.L228
 1316              	.L227:
 1317 0e60 0600A0E1 		mov	r0, r6
 1318 0e64 FEFFFFEB 		bl	strlen
 1319 0e68 0430A0E1 		mov	r3, r4
 1320 0e6c 000086E0 		add	r0, r6, r0
 1321 0e70 64109FE5 		ldr	r1, .L232+40
 1322 0e74 5C209FE5 		ldr	r2, .L232+36
 1323 0e78 00508DE5 		str	r5, [sp, #0]
 1324 0e7c FEFFFFEB 		bl	siprintf
 1325              	.L228:
 1326 0e80 000058E3 		cmp	r8, #0
 1327 0e84 0700000A 		beq	.L229
 1328 0e88 40309FE5 		ldr	r3, .L232+28
 1329 0e8c 0020A0E3 		mov	r2, #0
 1330 0e90 002083E5 		str	r2, [r3, #0]
 1331 0e94 1C109FE5 		ldr	r1, .L232+4
 1332 0e98 40309FE5 		ldr	r3, .L232+44
 1333 0e9c 002083E5 		str	r2, [r3, #0]
 1334 0ea0 102081E5 		str	r2, [r1, #16]
 1335 0ea4 082081E5 		str	r2, [r1, #8]
 1336              	.L229:
 1337 0ea8 04D08DE2 		add	sp, sp, #4
 1338 0eac F041BDE8 		ldmfd	sp!, {r4, r5, r6, r7, r8, lr}
 1339 0eb0 FEFFFFEA 		b	xTaskResumeAll
 1340              	.L233:
 1341              		.align	2
 1342              	.L232:
 1343 0eb4 10000000 		.word	uxSchedulerSuspended
 1344 0eb8 008000E0 		.word	-536838144
 1345 0ebc 28000000 		.word	uxTopUsedPriority
 1346 0ec0 20000000 		.word	pxReadyTasksLists-20
 1347 0ec4 AC000000 		.word	pxDelayedTaskList
 1348 0ec8 B0000000 		.word	pxOverflowDelayedTaskList
 1349 0ecc C8000000 		.word	xSuspendedTaskList
 1350 0ed0 00000000 		.word	ulISROverhead
 1351 0ed4 26000000 		.word	.LC2
 1352 0ed8 39000000 		.word	.LC3
 1353 0edc 13000000 		.word	.LC1
 1354 0ee0 20000000 		.word	ulTaskSwitchedInTime
 1356              		.section	.rodata.str1.1
 1357              	.LC4:
 1358 0044 25387320 		.ascii	"%8s  %c  %u  %5u  %u\015\012\000"
 1358      20256320 
 1358      20257520 
 1358      20253575 
 1358      20202575 
 1359              		.text
 1360              		.align	2
 1362              	prvListTaskWithinSingleList:
 1363              		@ args = 0, pretend = 0, frame = 0
 1364              		@ frame_needed = 0, uses_anonymous_args = 0
 1365 0ee4 043091E5 		ldr	r3, [r1, #4]
 1366 0ee8 F04F2DE9 		stmfd	sp!, {r4, r5, r6, r7, r8, r9, sl, fp, lr}
 1367 0eec 0150A0E1 		mov	r5, r1
 1368 0ef0 041093E5 		ldr	r1, [r3, #4]
 1369 0ef4 083085E2 		add	r3, r5, #8
 1370 0ef8 041085E5 		str	r1, [r5, #4]
 1371 0efc 030051E1 		cmp	r1, r3
 1372 0f00 04309105 		ldreq	r3, [r1, #4]
 1373 0f04 04308505 		streq	r3, [r5, #4]
 1374 0f08 043095E5 		ldr	r3, [r5, #4]
 1375 0f0c 0C9093E5 		ldr	r9, [r3, #12]
 1376 0f10 0CD04DE2 		sub	sp, sp, #12
 1377 0f14 00A0A0E1 		mov	sl, r0
 1378 0f18 02B0A0E1 		mov	fp, r2
 1379 0f1c 088085E2 		add	r8, r5, #8
 1380              	.L238:
 1381 0f20 043095E5 		ldr	r3, [r5, #4]
 1382 0f24 043093E5 		ldr	r3, [r3, #4]
 1383 0f28 043085E5 		str	r3, [r5, #4]
 1384 0f2c 080053E1 		cmp	r3, r8
 1385 0f30 04309805 		ldreq	r3, [r8, #4]
 1386 0f34 04308505 		streq	r3, [r5, #4]
 1387 0f38 043095E5 		ldr	r3, [r5, #4]
 1388 0f3c 0C6093E5 		ldr	r6, [r3, #12]
 1389 0f40 301096E5 		ldr	r1, [r6, #48]
 1390 0f44 0020A0E3 		mov	r2, #0
 1391              	.L237:
 1392 0f48 0230D1E7 		ldrb	r3, [r1, r2]	@ zero_extendqisi2
 1393 0f4c A50053E3 		cmp	r3, #165
 1394 0f50 0238A0E1 		mov	r3, r2, asl #16
 1395 0f54 2378A0E1 		mov	r7, r3, lsr #16
 1396 0f58 012082E2 		add	r2, r2, #1
 1397 0f5c F9FFFF0A 		beq	.L237
 1398 0f60 0A00A0E1 		mov	r0, sl
 1399 0f64 FEFFFFEB 		bl	strlen
 1400 0f68 2CC096E5 		ldr	ip, [r6, #44]
 1401 0f6c 3C4096E5 		ldr	r4, [r6, #60]
 1402 0f70 00008AE0 		add	r0, sl, r0
 1403 0f74 24109FE5 		ldr	r1, .L242
 1404 0f78 342086E2 		add	r2, r6, #52
 1405 0f7c 0B30A0E1 		mov	r3, fp
 1406 0f80 00C08DE5 		str	ip, [sp, #0]
 1407 0f84 04708DE5 		str	r7, [sp, #4]
 1408 0f88 08408DE5 		str	r4, [sp, #8]
 1409 0f8c FEFFFFEB 		bl	siprintf
 1410 0f90 090056E1 		cmp	r6, r9
 1411 0f94 E1FFFF1A 		bne	.L238
 1412 0f98 0CD08DE2 		add	sp, sp, #12
 1413 0f9c F08FBDE8 		ldmfd	sp!, {r4, r5, r6, r7, r8, r9, sl, fp, pc}
 1414              	.L243:
 1415              		.align	2
 1416              	.L242:
 1417 0fa0 44000000 		.word	.LC4
 1419              		.section	.rodata.str1.1
 1420              	.LC5:
 1421 005b 20202054 		.ascii	"   Task Name ST Pr StkFree T#\015\012\000"
 1421      61736B20 
 1421      4E616D65 
 1421      20535420 
 1421      50722053 
 1422              		.text
 1423              		.align	2
 1424              		.global	vTaskList
 1426              	vTaskList:
 1427              		@ args = 0, pretend = 0, frame = 0
 1428              		@ frame_needed = 0, uses_anonymous_args = 0
 1429 0fa4 B8209FE5 		ldr	r2, .L252
 1430 0fa8 003092E5 		ldr	r3, [r2, #0]
 1431 0fac 013083E2 		add	r3, r3, #1
 1432 0fb0 70402DE9 		stmfd	sp!, {r4, r5, r6, lr}
 1433 0fb4 003082E5 		str	r3, [r2, #0]
 1434 0fb8 A8109FE5 		ldr	r1, .L252+4
 1435 0fbc 0060A0E1 		mov	r6, r0
 1436 0fc0 FEFFFFEB 		bl	strcpy
 1437 0fc4 A0309FE5 		ldr	r3, .L252+8
 1438 0fc8 003093E5 		ldr	r3, [r3, #0]
 1439 0fcc 9C209FE5 		ldr	r2, .L252+12
 1440 0fd0 015083E2 		add	r5, r3, #1
 1441 0fd4 1430A0E3 		mov	r3, #20
 1442 0fd8 932524E0 		mla	r4, r3, r5, r2
 1443              	.L246:
 1444 0fdc 003094E5 		ldr	r3, [r4, #0]
 1445 0fe0 000053E3 		cmp	r3, #0
 1446 0fe4 015045E2 		sub	r5, r5, #1
 1447 0fe8 0410A011 		movne	r1, r4
 1448 0fec 0600A011 		movne	r0, r6
 1449 0ff0 5220A013 		movne	r2, #82
 1450 0ff4 BAFFFF1B 		blne	prvListTaskWithinSingleList
 1451              	.L245:
 1452 0ff8 000055E3 		cmp	r5, #0
 1453 0ffc 144044E2 		sub	r4, r4, #20
 1454 1000 F5FFFF1A 		bne	.L246
 1455 1004 68109FE5 		ldr	r1, .L252+16
 1456 1008 003091E5 		ldr	r3, [r1, #0]
 1457 100c 003093E5 		ldr	r3, [r3, #0]
 1458 1010 000053E3 		cmp	r3, #0
 1459 1014 00109115 		ldrne	r1, [r1, #0]
 1460 1018 0600A011 		movne	r0, r6
 1461 101c 4220A013 		movne	r2, #66
 1462 1020 AFFFFF1B 		blne	prvListTaskWithinSingleList
 1463              	.L247:
 1464 1024 4C109FE5 		ldr	r1, .L252+20
 1465 1028 003091E5 		ldr	r3, [r1, #0]
 1466 102c 003093E5 		ldr	r3, [r3, #0]
 1467 1030 000053E3 		cmp	r3, #0
 1468 1034 00109115 		ldrne	r1, [r1, #0]
 1469 1038 0600A011 		movne	r0, r6
 1470 103c 4220A013 		movne	r2, #66
 1471 1040 A7FFFF1B 		blne	prvListTaskWithinSingleList
 1472              	.L248:
 1473 1044 30109FE5 		ldr	r1, .L252+24
 1474 1048 003091E5 		ldr	r3, [r1, #0]
 1475 104c 000053E3 		cmp	r3, #0
 1476 1050 0600A011 		movne	r0, r6
 1477 1054 5320A013 		movne	r2, #83
 1478 1058 A1FFFF1B 		blne	prvListTaskWithinSingleList
 1479              	.L249:
 1480 105c 7040BDE8 		ldmfd	sp!, {r4, r5, r6, lr}
 1481 1060 FEFFFFEA 		b	xTaskResumeAll
 1482              	.L253:
 1483              		.align	2
 1484              	.L252:
 1485 1064 10000000 		.word	uxSchedulerSuspended
 1486 1068 5B000000 		.word	.LC5
 1487 106c 28000000 		.word	uxTopUsedPriority
 1488 1070 20000000 		.word	pxReadyTasksLists-20
 1489 1074 AC000000 		.word	pxDelayedTaskList
 1490 1078 B0000000 		.word	pxOverflowDelayedTaskList
 1491 107c C8000000 		.word	xSuspendedTaskList
 1493              		.align	2
 1494              		.global	vTaskEndScheduler
 1496              	vTaskEndScheduler:
 1497              		@ args = 0, pretend = 0, frame = 0
 1498              		@ frame_needed = 0, uses_anonymous_args = 0
 1499              		@ link register save eliminated.
 1500              	@ 1112 "../FreeRTOS/src/tasks.c" 1
 1501 1080 01002DE9 		STMDB	SP!, {R0}		
 1502 1084 00000FE1 		MRS	R0, CPSR		
 1503 1088 C00080E3 		ORR	R0, R0, #0xC0	
 1504 108c 00F029E1 		MSR	CPSR, R0		
 1505 1090 0100BDE8 		LDMIA	SP!, {R0}			
 1506              	@ 0 "" 2
 1507 1094 08309FE5 		ldr	r3, .L256
 1508 1098 0020A0E3 		mov	r2, #0
 1509 109c 002083E5 		str	r2, [r3, #0]
 1510 10a0 FEFFFFEA 		b	vPortEndScheduler
 1511              	.L257:
 1512              		.align	2
 1513              	.L256:
 1514 10a4 0C000000 		.word	xSchedulerRunning
 1516              		.align	2
 1518              	prvIdleTask:
 1519              		@ args = 0, pretend = 0, frame = 0
 1520              		@ frame_needed = 0, uses_anonymous_args = 0
 1521 10a8 04E02DE5 		str	lr, [sp, #-4]!
 1522              	.L259:
 1523 10ac FEFFFFEB 		bl	vApplicationIdleHook
 1524 10b0 FDFFFFEA 		b	.L259
 1526              		.align	2
 1527              		.global	xTaskGenericCreate
 1529              	xTaskGenericCreate:
 1530              		@ args = 16, pretend = 0, frame = 0
 1531              		@ frame_needed = 0, uses_anonymous_args = 0
 1532 10b4 F04F2DE9 		stmfd	sp!, {r4, r5, r6, r7, r8, r9, sl, fp, lr}
 1533 10b8 0228A0E1 		mov	r2, r2, asl #16
 1534 10bc 00A0A0E1 		mov	sl, r0
 1535 10c0 4C00A0E3 		mov	r0, #76
 1536 10c4 0160A0E1 		mov	r6, r1
 1537 10c8 0380A0E1 		mov	r8, r3
 1538 10cc 2258A0E1 		mov	r5, r2, lsr #16
 1539 10d0 24B09DE5 		ldr	fp, [sp, #36]
 1540 10d4 2C409DE5 		ldr	r4, [sp, #44]
 1541 10d8 FEFFFFEB 		bl	pvPortMalloc
 1542 10dc 007050E2 		subs	r7, r0, #0
 1543 10e0 0900000A 		beq	.L273
 1544              	.L262:
 1545 10e4 000054E3 		cmp	r4, #0
 1546 10e8 0200001A 		bne	.L264
 1547 10ec 0501A0E1 		mov	r0, r5, asl #2
 1548 10f0 FEFFFFEB 		bl	pvPortMalloc
 1549 10f4 0040A0E1 		mov	r4, r0
 1550              	.L264:
 1551 10f8 000054E3 		cmp	r4, #0
 1552 10fc 304087E5 		str	r4, [r7, #48]
 1553 1100 0300001A 		bne	.L265
 1554 1104 0700A0E1 		mov	r0, r7
 1555 1108 FEFFFFEB 		bl	vPortFree
 1556              	.L273:
 1557 110c 0000E0E3 		mvn	r0, #0
 1558 1110 F08FBDE8 		ldmfd	sp!, {r4, r5, r6, r7, r8, r9, sl, fp, pc}
 1559              	.L265:
 1560 1114 0521A0E1 		mov	r2, r5, asl #2
 1561 1118 0400A0E1 		mov	r0, r4
 1562 111c A510A0E3 		mov	r1, #165
 1563 1120 FEFFFFEB 		bl	memset
 1564 1124 301097E5 		ldr	r1, [r7, #48]
 1565 1128 0330E0E3 		mvn	r3, #3
 1566 112c 012065E2 		rsb	r2, r5, #1
 1567 1130 931225E0 		mla	r5, r3, r2, r1
 1568 1134 03005BE3 		cmp	fp, #3
 1569 1138 0B40A031 		movcc	r4, fp
 1570 113c 0340A023 		movcs	r4, #3
 1571 1140 0610A0E1 		mov	r1, r6
 1572 1144 0820A0E3 		mov	r2, #8
 1573 1148 0060A0E3 		mov	r6, #0
 1574 114c 340087E2 		add	r0, r7, #52
 1575 1150 049087E2 		add	r9, r7, #4
 1576 1154 FEFFFFEB 		bl	strncpy
 1577 1158 2C4087E5 		str	r4, [r7, #44]
 1578 115c 444087E5 		str	r4, [r7, #68]
 1579 1160 0900A0E1 		mov	r0, r9
 1580 1164 3B60C7E5 		strb	r6, [r7, #59]
 1581 1168 FEFFFFEB 		bl	vListInitialiseItem
 1582 116c 0750C5E3 		bic	r5, r5, #7
 1583 1170 180087E2 		add	r0, r7, #24
 1584 1174 044064E2 		rsb	r4, r4, #4
 1585 1178 FEFFFFEB 		bl	vListInitialiseItem
 1586 117c 0A10A0E1 		mov	r1, sl
 1587 1180 0820A0E1 		mov	r2, r8
 1588 1184 184087E5 		str	r4, [r7, #24]
 1589 1188 486087E5 		str	r6, [r7, #72]
 1590 118c 107087E5 		str	r7, [r7, #16]
 1591 1190 247087E5 		str	r7, [r7, #36]
 1592 1194 0500A0E1 		mov	r0, r5
 1593 1198 FEFFFFEB 		bl	pxPortInitialiseStack
 1594 119c 28309DE5 		ldr	r3, [sp, #40]
 1595 11a0 060053E1 		cmp	r3, r6
 1596 11a4 00708315 		strne	r7, [r3, #0]
 1597 11a8 000087E5 		str	r0, [r7, #0]
 1598 11ac FEFFFFEB 		bl	vPortEnterCritical
 1599 11b0 34219FE5 		ldr	r2, .L274
 1600 11b4 003092E5 		ldr	r3, [r2, #0]
 1601 11b8 013083E2 		add	r3, r3, #1
 1602 11bc 003082E5 		str	r3, [r2, #0]
 1603 11c0 28119FE5 		ldr	r1, .L274+4
 1604 11c4 003091E5 		ldr	r3, [r1, #0]
 1605 11c8 000053E3 		cmp	r3, #0
 1606 11cc 1A00001A 		bne	.L267
 1607 11d0 007081E5 		str	r7, [r1, #0]
 1608 11d4 003092E5 		ldr	r3, [r2, #0]
 1609 11d8 010053E3 		cmp	r3, #1
 1610 11dc 1E00001A 		bne	.L268
 1611 11e0 0C019FE5 		ldr	r0, .L274+8
 1612 11e4 FEFFFFEB 		bl	vListInitialise
 1613 11e8 08019FE5 		ldr	r0, .L274+12
 1614 11ec FEFFFFEB 		bl	vListInitialise
 1615 11f0 04519FE5 		ldr	r5, .L274+16
 1616 11f4 04019FE5 		ldr	r0, .L274+20
 1617 11f8 FEFFFFEB 		bl	vListInitialise
 1618 11fc 00419FE5 		ldr	r4, .L274+24
 1619 1200 00019FE5 		ldr	r0, .L274+28
 1620 1204 FEFFFFEB 		bl	vListInitialise
 1621 1208 0500A0E1 		mov	r0, r5
 1622 120c FEFFFFEB 		bl	vListInitialise
 1623 1210 0400A0E1 		mov	r0, r4
 1624 1214 FEFFFFEB 		bl	vListInitialise
 1625 1218 EC009FE5 		ldr	r0, .L274+32
 1626 121c FEFFFFEB 		bl	vListInitialise
 1627 1220 E8009FE5 		ldr	r0, .L274+36
 1628 1224 FEFFFFEB 		bl	vListInitialise
 1629 1228 E4309FE5 		ldr	r3, .L274+40
 1630 122c 005083E5 		str	r5, [r3, #0]
 1631 1230 E0309FE5 		ldr	r3, .L274+44
 1632 1234 004083E5 		str	r4, [r3, #0]
 1633 1238 070000EA 		b	.L268
 1634              	.L267:
 1635 123c D8309FE5 		ldr	r3, .L274+48
 1636 1240 003093E5 		ldr	r3, [r3, #0]
 1637 1244 000053E3 		cmp	r3, #0
 1638 1248 0300001A 		bne	.L268
 1639 124c 003091E5 		ldr	r3, [r1, #0]
 1640 1250 2C3093E5 		ldr	r3, [r3, #44]
 1641 1254 0B0053E1 		cmp	r3, fp
 1642 1258 00708195 		strls	r7, [r1, #0]
 1643              	.L268:
 1644 125c BC109FE5 		ldr	r1, .L274+52
 1645 1260 2C2097E5 		ldr	r2, [r7, #44]
 1646 1264 003091E5 		ldr	r3, [r1, #0]
 1647 1268 030052E1 		cmp	r2, r3
 1648 126c 00208185 		strhi	r2, [r1, #0]
 1649 1270 ACC09FE5 		ldr	ip, .L274+56
 1650 1274 AC109FE5 		ldr	r1, .L274+60
 1651 1278 00309CE5 		ldr	r3, [ip, #0]
 1652 127c 002091E5 		ldr	r2, [r1, #0]
 1653 1280 2C0097E5 		ldr	r0, [r7, #44]
 1654 1284 030050E1 		cmp	r0, r3
 1655 1288 013082E2 		add	r3, r2, #1
 1656 128c 3C2087E5 		str	r2, [r7, #60]
 1657 1290 00008C85 		strhi	r0, [ip, #0]
 1658 1294 003081E5 		str	r3, [r1, #0]
 1659 1298 54209FE5 		ldr	r2, .L274+8
 1660 129c 2C1097E5 		ldr	r1, [r7, #44]
 1661 12a0 1430A0E3 		mov	r3, #20
 1662 12a4 932120E0 		mla	r0, r3, r1, r2
 1663 12a8 0910A0E1 		mov	r1, r9
 1664 12ac FEFFFFEB 		bl	vListInsertEnd
 1665 12b0 FEFFFFEB 		bl	vPortExitCritical
 1666 12b4 60309FE5 		ldr	r3, .L274+48
 1667 12b8 003093E5 		ldr	r3, [r3, #0]
 1668 12bc 000053E3 		cmp	r3, #0
 1669 12c0 0700000A 		beq	.L271
 1670 12c4 24309FE5 		ldr	r3, .L274+4
 1671 12c8 003093E5 		ldr	r3, [r3, #0]
 1672 12cc 2C3093E5 		ldr	r3, [r3, #44]
 1673 12d0 0B0053E1 		cmp	r3, fp
 1674 12d4 0200002A 		bcs	.L271
 1675              	@ 535 "../FreeRTOS/src/tasks.c" 1
 1676 12d8 000000EF 		SWI 0
 1677              	@ 0 "" 2
 1678 12dc 0100A0E3 		mov	r0, #1
 1679 12e0 F08FBDE8 		ldmfd	sp!, {r4, r5, r6, r7, r8, r9, sl, fp, pc}
 1680              	.L271:
 1681 12e4 0100A0E3 		mov	r0, #1
 1682 12e8 F08FBDE8 		ldmfd	sp!, {r4, r5, r6, r7, r8, r9, sl, fp, pc}
 1683              	.L275:
 1684              		.align	2
 1685              	.L274:
 1686 12ec 2C000000 		.word	uxCurrentNumberOfTasks
 1687 12f0 00000000 		.word	pxCurrentTCB
 1688 12f4 34000000 		.word	pxReadyTasksLists
 1689 12f8 48000000 		.word	pxReadyTasksLists+20
 1690 12fc 84000000 		.word	xDelayedTaskList1
 1691 1300 5C000000 		.word	pxReadyTasksLists+40
 1692 1304 98000000 		.word	xDelayedTaskList2
 1693 1308 70000000 		.word	pxReadyTasksLists+60
 1694 130c B4000000 		.word	xPendingReadyList
 1695 1310 C8000000 		.word	xSuspendedTaskList
 1696 1314 AC000000 		.word	pxDelayedTaskList
 1697 1318 B0000000 		.word	pxOverflowDelayedTaskList
 1698 131c 0C000000 		.word	xSchedulerRunning
 1699 1320 28000000 		.word	uxTopUsedPriority
 1700 1324 08000000 		.word	uxTopReadyPriority
 1701 1328 30000000 		.word	uxTCBNumber
 1703              		.section	.rodata.str1.1
 1704              	.LC6:
 1705 007b 49444C45 		.ascii	"IDLE\000"
 1705      00
 1706              		.text
 1707              		.align	2
 1708              		.global	vTaskStartScheduler
 1710              	vTaskStartScheduler:
 1711              		@ args = 0, pretend = 0, frame = 0
 1712              		@ frame_needed = 0, uses_anonymous_args = 0
 1713 132c 10402DE9 		stmfd	sp!, {r4, lr}
 1714 1330 0040A0E3 		mov	r4, #0
 1715 1334 10D04DE2 		sub	sp, sp, #16
 1716 1338 84009FE5 		ldr	r0, .L279
 1717 133c 84109FE5 		ldr	r1, .L279+4
 1718 1340 8020A0E3 		mov	r2, #128
 1719 1344 0430A0E1 		mov	r3, r4
 1720 1348 00408DE5 		str	r4, [sp, #0]
 1721 134c 04408DE5 		str	r4, [sp, #4]
 1722 1350 08408DE5 		str	r4, [sp, #8]
 1723 1354 0C408DE5 		str	r4, [sp, #12]
 1724 1358 FEFFFFEB 		bl	xTaskGenericCreate
 1725 135c 010050E3 		cmp	r0, #1
 1726 1360 1500001A 		bne	.L278
 1727 1364 FEFFFFEB 		bl	xTimerCreateTimerTask
 1728 1368 010050E3 		cmp	r0, #1
 1729 136c 1200001A 		bne	.L278
 1730              	@ 1079 "../FreeRTOS/src/tasks.c" 1
 1731 1370 01002DE9 		STMDB	SP!, {R0}		
 1732 1374 00000FE1 		MRS	R0, CPSR		
 1733 1378 C00080E3 		ORR	R0, R0, #0xC0	
 1734 137c 00F029E1 		MSR	CPSR, R0		
 1735 1380 0100BDE8 		LDMIA	SP!, {R0}			
 1736              	@ 0 "" 2
 1737 1384 40309FE5 		ldr	r3, .L279+8
 1738 1388 000083E5 		str	r0, [r3, #0]
 1739 138c 3C309FE5 		ldr	r3, .L279+12
 1740 1390 3C209FE5 		ldr	r2, .L279+16
 1741 1394 004083E5 		str	r4, [r3, #0]
 1742 1398 2030A0E3 		mov	r3, #32
 1743 139c 0C3082E5 		str	r3, [r2, #12]
 1744 13a0 104082E5 		str	r4, [r2, #16]
 1745 13a4 184082E5 		str	r4, [r2, #24]
 1746 13a8 144082E5 		str	r4, [r2, #20]
 1747 13ac 040082E5 		str	r0, [r2, #4]
 1748 13b0 10D08DE2 		add	sp, sp, #16
 1749 13b4 1040BDE8 		ldmfd	sp!, {r4, lr}
 1750 13b8 FEFFFFEA 		b	xPortStartScheduler
 1751              	.L278:
 1752 13bc 10D08DE2 		add	sp, sp, #16
 1753 13c0 1080BDE8 		ldmfd	sp!, {r4, pc}
 1754              	.L280:
 1755              		.align	2
 1756              	.L279:
 1757 13c4 00000000 		.word	prvIdleTask
 1758 13c8 7B000000 		.word	.LC6
 1759 13cc 0C000000 		.word	xSchedulerRunning
 1760 13d0 1C000000 		.word	xTickCount
 1761 13d4 008000E0 		.word	-536838144
 1763              		.global	pxCurrentTCB
 1764              		.bss
 1765              		.align	2
 1768              	pxCurrentTCB:
 1769 0000 00000000 		.space	4
 1770              		.global	ulISROverhead
 1771              		.align	2
 1774              	ulISROverhead:
 1775 0004 00000000 		.space	4
 1776              		.align	2
 1777              	uxTopReadyPriority:
 1778 0008 00000000 		.space	4
 1779              		.align	2
 1780              	xSchedulerRunning:
 1781 000c 00000000 		.space	4
 1782              		.align	2
 1783              	uxSchedulerSuspended:
 1784 0010 00000000 		.space	4
 1785              		.align	2
 1786              	xMissedYield:
 1787 0014 00000000 		.space	4
 1788              		.align	2
 1789              	xNumOfOverflows:
 1790 0018 00000000 		.space	4
 1791              		.align	2
 1792              	xTickCount:
 1793 001c 00000000 		.space	4
 1794              		.data
 1795              		.align	2
 1798              	xNextTaskUnblockTime:
 1799 0000 FFFFFFFF 		.word	-1
 1800              		.bss
 1801              		.align	2
 1802              	ulTaskSwitchedInTime:
 1803 0020 00000000 		.space	4
 1804              		.section	.rodata
 1807              	ucExpectedStackBytes.3122:
 1808 0000 A5       		.byte	-91
 1809 0001 A5       		.byte	-91
 1810 0002 A5       		.byte	-91
 1811 0003 A5       		.byte	-91
 1812 0004 A5       		.byte	-91
 1813 0005 A5       		.byte	-91
 1814 0006 A5       		.byte	-91
 1815 0007 A5       		.byte	-91
 1816 0008 A5       		.byte	-91
 1817 0009 A5       		.byte	-91
 1818 000a A5       		.byte	-91
 1819 000b A5       		.byte	-91
 1820 000c A5       		.byte	-91
 1821 000d A5       		.byte	-91
 1822 000e A5       		.byte	-91
 1823 000f A5       		.byte	-91
 1824 0010 A5       		.byte	-91
 1825 0011 A5       		.byte	-91
 1826 0012 A5       		.byte	-91
 1827 0013 A5       		.byte	-91
 1828              		.bss
 1829              		.align	2
 1830              	uxMissedTicks:
 1831 0024 00000000 		.space	4
 1832              		.align	2
 1833              	uxTopUsedPriority:
 1834 0028 00000000 		.space	4
 1835              		.align	2
 1836              	uxCurrentNumberOfTasks:
 1837 002c 00000000 		.space	4
 1838              		.align	2
 1839              	uxTCBNumber:
 1840 0030 00000000 		.space	4
 1841              		.align	2
 1842              	pxReadyTasksLists:
 1843 0034 00000000 		.space	80
 1843      00000000 
 1843      00000000 
 1843      00000000 
 1843      00000000 
 1844              		.align	2
 1845              	xDelayedTaskList1:
 1846 0084 00000000 		.space	20
 1846      00000000 
 1846      00000000 
 1846      00000000 
 1846      00000000 
 1847              		.align	2
 1848              	xDelayedTaskList2:
 1849 0098 00000000 		.space	20
 1849      00000000 
 1849      00000000 
 1849      00000000 
 1849      00000000 
 1850              		.align	2
 1851              	pxDelayedTaskList:
 1852 00ac 00000000 		.space	4
 1853              		.align	2
 1854              	pxOverflowDelayedTaskList:
 1855 00b0 00000000 		.space	4
 1856              		.align	2
 1857              	xPendingReadyList:
 1858 00b4 00000000 		.space	20
 1858      00000000 
 1858      00000000 
 1858      00000000 
 1858      00000000 
 1859              		.align	2
 1860              	xSuspendedTaskList:
 1861 00c8 00000000 		.space	20
 1861      00000000 
 1861      00000000 
 1861      00000000 
 1861      00000000 
 1862              		.ident	"GCC: (GNU) 4.3.2"